---
triple:          'arm64-apple-darwin'
binary-path:     smalltest
relocations:
  - { offsetInCU: 0x2BD5, offset: 0x2BD5, size: 0x8, addend: 0x0, symName: __ZN2pm6chains8FunctionINSt3__116integer_sequenceImJLm0ELm1EEEENS0_10OperationsIN8polymake5mlistIJNS_25binary_transform_iteratorINS_13iterator_pairINS_19same_value_iteratorIRKNS_8RationalEEENS_14iterator_rangeINS_17sequence_iteratorIlLb1EEEEENS7_IJNS_20FeaturesViaSecondTagINS7_IJNS_13end_sensitiveEEEEEEEEEEENS2_4pairINS_7nothingENS_10operations6apply2INS_12BuildUnaryItINSR_11dereferenceEEEvEEEELb0EEENSF_INS_11ptr_wrapperISC_Lb0EEEEEEEEE6at_endEE5tableE, symObjAddr: 0x57650, symBinAddr: 0x10006A2A0, symSize: 0x0 }
  - { offsetInCU: 0x2D63, offset: 0x2D63, size: 0x8, addend: 0x0, symName: __ZN2pm6chains8FunctionINSt3__116integer_sequenceImJLm0ELm1EEEENS0_10OperationsIN8polymake5mlistIJNS_25binary_transform_iteratorINS_13iterator_pairINS_19same_value_iteratorIRKNS_8RationalEEENS_14iterator_rangeINS_17sequence_iteratorIlLb1EEEEENS7_IJNS_20FeaturesViaSecondTagINS7_IJNS_13end_sensitiveEEEEEEEEEEENS2_4pairINS_7nothingENS_10operations6apply2INS_12BuildUnaryItINSR_11dereferenceEEEvEEEELb0EEENSF_INS_11ptr_wrapperISC_Lb0EEEEEEEEE4starEE5tableE, symObjAddr: 0x57780, symBinAddr: 0x10006A3D0, symSize: 0x0 }
  - { offsetInCU: 0x2DCA, offset: 0x2DCA, size: 0x8, addend: 0x0, symName: __ZN2pm6chains8FunctionINSt3__116integer_sequenceImJLm0ELm1EEEENS0_10OperationsIN8polymake5mlistIJNS_25binary_transform_iteratorINS_13iterator_pairINS_19same_value_iteratorIRKNS_8RationalEEENS_14iterator_rangeINS_17sequence_iteratorIlLb1EEEEENS7_IJNS_20FeaturesViaSecondTagINS7_IJNS_13end_sensitiveEEEEEEEEEEENS2_4pairINS_7nothingENS_10operations6apply2INS_12BuildUnaryItINSR_11dereferenceEEEvEEEELb0EEENSF_INS_11ptr_wrapperISC_Lb0EEEEEEEEE4incrEE5tableE, symObjAddr: 0x57790, symBinAddr: 0x10006A3E0, symSize: 0x0 }
  - { offsetInCU: 0x34BF, offset: 0x34BF, size: 0x8, addend: 0x0, symName: __ZN2pm6chains8FunctionINSt3__116integer_sequenceImJLm0ELm1EEEENS0_10OperationsIN8polymake5mlistIJNS_14iterator_rangeINS_11ptr_wrapperIKNS_8RationalELb1EEEEENS_25binary_transform_iteratorINS_13iterator_pairINS_19same_value_iteratorIRSB_EENS8_INS_17sequence_iteratorIlLb0EEEEENS7_IJNS_20FeaturesViaSecondTagINS7_IJNS_13end_sensitiveEEEEEEEEEEENS2_4pairINS_7nothingENS_10operations6apply2INS_12BuildUnaryItINSU_11dereferenceEEEvEEEELb0EEEEEEE6at_endEE5tableE, symObjAddr: 0x578D0, symBinAddr: 0x10006A520, symSize: 0x0 }
  - { offsetInCU: 0x364D, offset: 0x364D, size: 0x8, addend: 0x0, symName: __ZN2pm6chains8FunctionINSt3__116integer_sequenceImJLm0ELm1EEEENS0_10OperationsIN8polymake5mlistIJNS_14iterator_rangeINS_11ptr_wrapperIKNS_8RationalELb1EEEEENS_25binary_transform_iteratorINS_13iterator_pairINS_19same_value_iteratorIRSB_EENS8_INS_17sequence_iteratorIlLb0EEEEENS7_IJNS_20FeaturesViaSecondTagINS7_IJNS_13end_sensitiveEEEEEEEEEEENS2_4pairINS_7nothingENS_10operations6apply2INS_12BuildUnaryItINSU_11dereferenceEEEvEEEELb0EEEEEEE4starEE5tableE, symObjAddr: 0x578E0, symBinAddr: 0x10006A530, symSize: 0x0 }
  - { offsetInCU: 0x36B4, offset: 0x36B4, size: 0x8, addend: 0x0, symName: __ZN2pm6chains8FunctionINSt3__116integer_sequenceImJLm0ELm1EEEENS0_10OperationsIN8polymake5mlistIJNS_14iterator_rangeINS_11ptr_wrapperIKNS_8RationalELb1EEEEENS_25binary_transform_iteratorINS_13iterator_pairINS_19same_value_iteratorIRSB_EENS8_INS_17sequence_iteratorIlLb0EEEEENS7_IJNS_20FeaturesViaSecondTagINS7_IJNS_13end_sensitiveEEEEEEEEEEENS2_4pairINS_7nothingENS_10operations6apply2INS_12BuildUnaryItINSU_11dereferenceEEEvEEEELb0EEEEEEE4incrEE5tableE, symObjAddr: 0x578F0, symBinAddr: 0x10006A540, symSize: 0x0 }
  - { offsetInCU: 0xF2A5, offset: 0xF2A5, size: 0x8, addend: 0x0, symName: __ZN2pm4perlorENS0_10ValueFlagsES1_, symObjAddr: 0x1BB4, symBinAddr: 0x100002F50, symSize: 0x20 }
  - { offsetInCU: 0xF2DF, offset: 0xF2DF, size: 0x8, addend: 0x0, symName: __ZN2pm4perllsINS_11BlockMatrixIN8polymake5mlistIJKNS_11RepeatedColINS_17SameElementVectorIRKNS_8RationalEEEEERKNS_6MatrixIS7_EEEEENSt3__117integral_constantIbLb0EEEEEEEvRKNS0_5ValueEOT_, symObjAddr: 0xA4C4, symBinAddr: 0x10000B860, symSize: 0x2C }
  - { offsetInCU: 0xF321, offset: 0xF321, size: 0x8, addend: 0x0, symName: __ZN2pm4perlmlENS0_10ValueFlagsES1_, symObjAddr: 0xA5C0, symBinAddr: 0x10000B95C, symSize: 0x28 }
  - { offsetInCU: 0xF60F, offset: 0xF60F, size: 0x8, addend: 0x0, symName: __ZN2pm4perllsINS_11VectorChainIN8polymake5mlistIJKNS_17SameElementVectorIRKNS_8RationalEEEKNS_12IndexedSliceINS_10masqueradeINS_10ConcatRowsERKNS_11Matrix_baseIS6_EEEEKNS_6SeriesIlLb1EEENS4_IJEEEEEEEEEEEEvRKNS0_5ValueEOT_, symObjAddr: 0xCDE4, symBinAddr: 0x10000E180, symSize: 0x2C }
  - { offsetInCU: 0xF651, offset: 0xF651, size: 0x8, addend: 0x0, symName: __ZN2pm4perllsIRKNS_8RationalEEEvRKNS0_5ValueEOT_, symObjAddr: 0xEB38, symBinAddr: 0x10000FED4, symSize: 0x2C }
  - { offsetInCU: 0xFA30, offset: 0xFA30, size: 0x8, addend: 0x0, symName: __ZN2pm4perlorENS0_10ClassFlagsES1_, symObjAddr: 0x10878, symBinAddr: 0x100011C14, symSize: 0x20 }
  - { offsetInCU: 0x1023B, offset: 0x1023B, size: 0x8, addend: 0x0, symName: __ZN2pm4perlrsIRNS_14incidence_lineIRNS_3AVL4treeINS_8sparse2d6traitsINS5_11traits_baseINS_7nothingELb1ELb0ELNS5_16restriction_kindE0EEELb0ELS9_0EEEEEEEEENSt3__19enable_ifIXntsr20is_effectively_constIT_EE5valueEbE4typeERKNS0_5ValueEOSI_, symObjAddr: 0x2BBD0, symBinAddr: 0x10002CF6C, symSize: 0xEC }
  - { offsetInCU: 0x105FC, offset: 0x105FC, size: 0x8, addend: 0x0, symName: __ZN2pm4perlrsIRlEENSt3__19enable_ifIXntsr20is_effectively_constIT_EE5valueEbE4typeERKNS0_5ValueEOS5_, symObjAddr: 0x2EC1C, symBinAddr: 0x10002FFB8, symSize: 0xEC }
  - { offsetInCU: 0x10849, offset: 0x10849, size: 0x8, addend: 0x0, symName: __ZN2pm4perlrsIRNS_14incidence_lineINS_3AVL4treeINS_8sparse2d6traitsINS5_11traits_baseINS_7nothingELb1ELb0ELNS5_16restriction_kindE2EEELb0ELS9_2EEEEEEEEENSt3__19enable_ifIXntsr20is_effectively_constIT_EE5valueEbE4typeERKNS0_5ValueEOSH_, symObjAddr: 0x3242C, symBinAddr: 0x1000337C8, symSize: 0xEC }
  - { offsetInCU: 0x10B4F, offset: 0x10B4F, size: 0x8, addend: 0x0, symName: __ZN2pm4perllsIRNS_6MatrixINS_8RationalEEEEEvRKNS0_5ValueEOT_, symObjAddr: 0x38F98, symBinAddr: 0x10003A334, symSize: 0x2C }
  - { offsetInCU: 0x10B91, offset: 0x10B91, size: 0x8, addend: 0x0, symName: __ZN2pm4perllsINS_12IndexedSliceINS_10masqueradeINS_10ConcatRowsERKNS_11Matrix_baseINS_8RationalEEEEEKNS_6SeriesIlLb1EEEN8polymake5mlistIJEEEEEEEvRKNS0_5ValueEOT_, symObjAddr: 0x39B7C, symBinAddr: 0x10003AF18, symSize: 0x2C }
  - { offsetInCU: 0x1111D, offset: 0x1111D, size: 0x8, addend: 0x0, symName: __ZN2pm4perlrsIRNS_5graph18incident_edge_listINS_3AVL4treeINS_8sparse2d6traitsINS2_11traits_baseINS2_10UndirectedELb0ELNS6_16restriction_kindE0EEELb1ELSA_0EEEEEEEEENSt3__19enable_ifIXntsr20is_effectively_constIT_EE5valueEbE4typeERKNS0_5ValueEOSI_, symObjAddr: 0x47BAC, symBinAddr: 0x100048F48, symSize: 0xEC }
  - { offsetInCU: 0x28CE9, offset: 0x28CE9, size: 0x8, addend: 0x0, symName: __ZN2pm3AVL8traverseINS0_4treeINS_8sparse2d6traitsINS3_11traits_baseINS_7nothingELb1ELb0ELNS3_16restriction_kindE0EEELb0ELS7_0EEEEEEENS0_3PtrINS3_4cellIS6_EEEESE_RKT_NS0_10link_indexE, symObjAddr: 0x2050C, symBinAddr: 0x1000218A8, symSize: 0x44 }
  - { offsetInCU: 0x28D3A, offset: 0x28D3A, size: 0x8, addend: 0x0, symName: __ZN2pm3AVL8traverseINS0_4treeINS_8sparse2d6traitsINS3_11traits_baseINS_7nothingELb0ELb0ELNS3_16restriction_kindE0EEELb0ELS7_0EEEEEEENS0_3PtrINS3_4cellIS6_EEEESE_RKT_NS0_10link_indexE, symObjAddr: 0x21BC0, symBinAddr: 0x100022F5C, symSize: 0x44 }
  - { offsetInCU: 0x28D8B, offset: 0x28D8B, size: 0x8, addend: 0x0, symName: __ZN2pm3AVL8traverseINS0_4treeINS_8sparse2d6traitsINS3_11traits_baseINS_7nothingELb1ELb0ELNS3_16restriction_kindE2EEELb0ELS7_2EEEEEEENS0_3PtrINS3_4cellIS6_EEEESE_RKT_NS0_10link_indexE, symObjAddr: 0x2A690, symBinAddr: 0x10002BA2C, symSize: 0x44 }
  - { offsetInCU: 0x28DDC, offset: 0x28DDC, size: 0x8, addend: 0x0, symName: __ZN2pm3AVL8traverseINS0_4treeINS_8sparse2d6traitsINS_5graph11traits_baseINS5_10UndirectedELb0ELNS3_16restriction_kindE0EEELb1ELS8_0EEEEEEENS0_3PtrINS3_4cellIlEEEESF_RKT_NS0_10link_indexE, symObjAddr: 0x3FBB4, symBinAddr: 0x100040F50, symSize: 0x44 }
  - { offsetInCU: 0x37D85, offset: 0x37D85, size: 0x8, addend: 0x0, symName: __ZN2pm5graphrsINS_11PlainParserIN8polymake5mlistIJNS_12TrustedValueINSt3__117integral_constantIbLb0EEEEEEEEEEEERT_RNS_12GenericInputISC_EERNS0_5GraphINS0_10UndirectedEEE, symObjAddr: 0x3DAAC, symBinAddr: 0x10003EE48, symSize: 0x94 }
  - { offsetInCU: 0x37DCB, offset: 0x37DCB, size: 0x8, addend: 0x0, symName: __ZN2pm5graphrsINS_11PlainParserIN8polymake5mlistIJNS_12TrustedValueINSt3__117integral_constantIbLb0EEEEENS_13SeparatorCharINS7_IcLc10EEEEENS_14ClosingBracketINS7_IcLc0EEEEENS_14OpeningBracketISE_EENS_20SparseRepresentationINS7_IbLb1EEEEEEEEEEEERT_RNS_12GenericInputISN_EERNS0_18incident_edge_listINS_3AVL4treeINS_8sparse2d6traitsINS0_11traits_baseINS0_10UndirectedELb0ELNSV_16restriction_kindE0EEELb1ELSZ_0EEEEEEE, symObjAddr: 0x43058, symBinAddr: 0x1000443F4, symSize: 0x44 }
  - { offsetInCU: 0x37E11, offset: 0x37E11, size: 0x8, addend: 0x0, symName: __ZN2pm5graphrsINS_11PlainParserIN8polymake5mlistIJNS_12TrustedValueINSt3__117integral_constantIbLb0EEEEENS_13SeparatorCharINS7_IcLc10EEEEENS_14ClosingBracketINS7_IcLc0EEEEENS_14OpeningBracketISE_EEEEEEEEERT_RNS_12GenericInputISK_EERNS0_18incident_edge_listINS_3AVL4treeINS_8sparse2d6traitsINS0_11traits_baseINS0_10UndirectedELb0ELNSS_16restriction_kindE0EEELb1ELSW_0EEEEEEE, symObjAddr: 0x45FC0, symBinAddr: 0x10004735C, symSize: 0x44 }
  - { offsetInCU: 0x37E57, offset: 0x37E57, size: 0x8, addend: 0x0, symName: __ZN2pm5graphrsINS_11PlainParserIN8polymake5mlistIJEEEEEEERT_RNS_12GenericInputIS7_EERNS0_5GraphINS0_10UndirectedEEE, symObjAddr: 0x4632C, symBinAddr: 0x1000476C8, symSize: 0x94 }
  - { offsetInCU: 0x37E9D, offset: 0x37E9D, size: 0x8, addend: 0x0, symName: __ZN2pm5graphrsINS_11PlainParserIN8polymake5mlistIJNS_13SeparatorCharINSt3__117integral_constantIcLc10EEEEENS_14ClosingBracketINS7_IcLc0EEEEENS_14OpeningBracketISB_EENS_20SparseRepresentationINS7_IbLb1EEEEEEEEEEEERT_RNS_12GenericInputISK_EERNS0_18incident_edge_listINS_3AVL4treeINS_8sparse2d6traitsINS0_11traits_baseINS0_10UndirectedELb0ELNSS_16restriction_kindE0EEELb1ELSW_0EEEEEEE, symObjAddr: 0x46D90, symBinAddr: 0x10004812C, symSize: 0x44 }
  - { offsetInCU: 0x37EE3, offset: 0x37EE3, size: 0x8, addend: 0x0, symName: __ZN2pm5graphrsINS_11PlainParserIN8polymake5mlistIJNS_13SeparatorCharINSt3__117integral_constantIcLc10EEEEENS_14ClosingBracketINS7_IcLc0EEEEENS_14OpeningBracketISB_EEEEEEEEERT_RNS_12GenericInputISH_EERNS0_18incident_edge_listINS_3AVL4treeINS_8sparse2d6traitsINS0_11traits_baseINS0_10UndirectedELb0ELNSP_16restriction_kindE0EEELb1ELST_0EEEEEEE, symObjAddr: 0x47264, symBinAddr: 0x100048600, symSize: 0x44 }
  - { offsetInCU: 0x37F29, offset: 0x37F29, size: 0x8, addend: 0x0, symName: __ZN2pm5graphrsINS_4perl10ValueInputIN8polymake5mlistIJNS_12TrustedValueINSt3__117integral_constantIbLb0EEEEEEEEEEEERT_RNS_12GenericInputISD_EERNS0_5GraphINS0_10UndirectedEEE, symObjAddr: 0x474EC, symBinAddr: 0x100048888, symSize: 0x94 }
  - { offsetInCU: 0x37F6F, offset: 0x37F6F, size: 0x8, addend: 0x0, symName: __ZN2pm5graphrsINS_11PlainParserIN8polymake5mlistIJNS_12TrustedValueINSt3__117integral_constantIbLb0EEEEEEEEEEEERT_RNS_12GenericInputISC_EERNS0_18incident_edge_listINS_3AVL4treeINS_8sparse2d6traitsINS0_11traits_baseINS0_10UndirectedELb0ELNSK_16restriction_kindE0EEELb1ELSO_0EEEEEEE, symObjAddr: 0x4B258, symBinAddr: 0x10004C5F4, symSize: 0x44 }
  - { offsetInCU: 0x37FB5, offset: 0x37FB5, size: 0x8, addend: 0x0, symName: __ZN2pm5graphrsINS_11PlainParserIN8polymake5mlistIJEEEEEEERT_RNS_12GenericInputIS7_EERNS0_18incident_edge_listINS_3AVL4treeINS_8sparse2d6traitsINS0_11traits_baseINS0_10UndirectedELb0ELNSF_16restriction_kindE0EEELb1ELSJ_0EEEEEEE, symObjAddr: 0x4B3FC, symBinAddr: 0x10004C798, symSize: 0x44 }
  - { offsetInCU: 0x37FFB, offset: 0x37FFB, size: 0x8, addend: 0x0, symName: __ZN2pm5graphrsINS_4perl10ValueInputIN8polymake5mlistIJNS_12TrustedValueINSt3__117integral_constantIbLb0EEEEEEEEEEEERT_RNS_12GenericInputISD_EERNS0_18incident_edge_listINS_3AVL4treeINS_8sparse2d6traitsINS0_11traits_baseINS0_10UndirectedELb0ELNSL_16restriction_kindE0EEELb1ELSP_0EEEEEEE, symObjAddr: 0x4B5E4, symBinAddr: 0x10004C980, symSize: 0x44 }
  - { offsetInCU: 0x38041, offset: 0x38041, size: 0x8, addend: 0x0, symName: __ZN2pm5graphrsINS_4perl10ValueInputIN8polymake5mlistIJEEEEEEERT_RNS_12GenericInputIS8_EERNS0_18incident_edge_listINS_3AVL4treeINS_8sparse2d6traitsINS0_11traits_baseINS0_10UndirectedELb0ELNSG_16restriction_kindE0EEELb1ELSK_0EEEEEEE, symObjAddr: 0x4BB08, symBinAddr: 0x10004CEA4, symSize: 0x44 }
  - { offsetInCU: 0x38087, offset: 0x38087, size: 0x8, addend: 0x0, symName: __ZN2pm5graphrsINS_4perl10ValueInputIN8polymake5mlistIJEEEEEEERT_RNS_12GenericInputIS8_EERNS0_5GraphINS0_10UndirectedEEE, symObjAddr: 0x4C0A0, symBinAddr: 0x10004D43C, symSize: 0x94 }
  - { offsetInCU: 0x7594A, offset: 0x7594A, size: 0x8, addend: 0x0, symName: __ZN2pm5isinfEl, symObjAddr: 0x88EC, symBinAddr: 0x100009C88, symSize: 0x14 }
  - { offsetInCU: 0x75C6D, offset: 0x75C6D, size: 0x8, addend: 0x0, symName: __ZN2pmlsERNSt3__113basic_ostreamIcNS0_11char_traitsIcEEEERKNS_7IntegerE, symObjAddr: 0x38, symBinAddr: 0x1000013D4, symSize: 0xC0 }
  - { offsetInCU: 0x75CB9, offset: 0x75CB9, size: 0x8, addend: 0x0, symName: __ZN2pmlsERNSt3__113basic_ostreamIcNS0_11char_traitsIcEEEERKNS_8RationalE, symObjAddr: 0x184, symBinAddr: 0x100001520, symSize: 0x30 }
  - { offsetInCU: 0x75CF6, offset: 0x75CF6, size: 0x8, addend: 0x0, symName: __ZN2pmorINS_17SameElementVectorIRKNS_8RationalEEERNS_6MatrixIS2_EEEENS_13GenericMatrixIS7_S2_E12block_matrixIT_T0_NSt3__117integral_constantIbLb0EEEvE8v_m_typeEOSC_OSD_, symObjAddr: 0xD34, symBinAddr: 0x1000020D0, symSize: 0x34 }
  - { offsetInCU: 0x75D45, offset: 0x75D45, size: 0x8, addend: 0x0, symName: __ZN2pm11ones_vectorINS_8RationalEEEDal, symObjAddr: 0xD68, symBinAddr: 0x100002104, symSize: 0x34 }
  - { offsetInCU: 0x75D7C, offset: 0x75D7C, size: 0x8, addend: 0x0, symName: __ZN2pmmiINS_12IndexedSliceINS_10masqueradeINS_10ConcatRowsERNS_11Matrix_baseINS_8RationalEEEEEKNS_6SeriesIlLb1EEEN8polymake5mlistIJEEEEERNS_6VectorIS5_EEEENS_13GenericVectorISF_S5_E7lazy_opIT_T0_NS_11BuildBinaryINS_10operations3subEEEvE8v_v_typeEOSM_OSN_, symObjAddr: 0xF2C, symBinAddr: 0x1000022C8, symSize: 0xE0 }
  - { offsetInCU: 0x75DCB, offset: 0x75DCB, size: 0x8, addend: 0x0, symName: __ZN2pm16adjacency_matrixINS_5graph5GraphINS1_10UndirectedEEEEERNS_15AdjacencyMatrixIN8polymake7mselectIJNSt3__19enable_ifIXsr3std19is_rvalue_referenceIT_EE5valueEu22__add_rvalue_referenceINS_6UnwaryINS_8ConcreteIu11__remove_cvIu20__remove_reference_tISA_EEXsr16has_generic_typeINS_5derefISE_E4typeEEE5valueELb0EE4typeEE4typeEEEENS9_IXsr3std19is_lvalue_referenceISA_EE5valueEu22__add_lvalue_referenceINS8_11conditionalIXsr8is_constISA_EE5valueENS8_9add_constISL_E4typeESL_E4typeEEEESL_EE4typeEXsrSX_13is_multigraphEEERNS_12GenericGraphISA_NSA_3dirEEE, symObjAddr: 0x13E0, symBinAddr: 0x10000277C, symSize: 0x24 }
  - { offsetInCU: 0x75E02, offset: 0x75E02, size: 0x8, addend: 0x0, symName: __ZN2pmlsIN8polymake5mlistIJEEENSt3__111char_traitsIcEEEERNS_12PlainPrinterIT_T0_EESB_PFRNS4_13basic_ostreamIcS9_EESE_E, symObjAddr: 0x1438, symBinAddr: 0x1000027D4, symSize: 0x34 }
  - { offsetInCU: 0x75F59, offset: 0x75F59, size: 0x8, addend: 0x0, symName: __ZN2pm19same_element_vectorIRKNS_8RationalEEEDaOT_l, symObjAddr: 0x1C40, symBinAddr: 0x100002FDC, symSize: 0x40 }
  - { offsetInCU: 0x75F9F, offset: 0x75F9F, size: 0x8, addend: 0x0, symName: __ZN2pm9one_valueINS_8RationalEEERKT_v, symObjAddr: 0x1C80, symBinAddr: 0x10000301C, symSize: 0x14 }
  - { offsetInCU: 0x75FC7, offset: 0x75FC7, size: 0x8, addend: 0x0, symName: __ZN2pm4rowsIRNS_6MatrixINS_8RationalEEEEENS_16inherit_ref_norvINS_4RowsIN8polymake7mselectIJNSt3__19enable_ifIXsr3std19is_rvalue_referenceIu11__remove_cvIu20__remove_reference_tIT_EEEE5valueEu22__add_rvalue_referenceINS_6UnwaryINS_8ConcreteIu11__remove_cvIu20__remove_reference_tISD_EEXsr16has_generic_typeINS_5derefISH_E4typeEEE5valueELb0EE4typeEE4typeEEEENSA_IXsr3std19is_lvalue_referenceISD_EE5valueEu22__add_lvalue_referenceINS9_11conditionalIXsr8is_constISD_EE5valueENS9_9add_constISO_E4typeESO_E4typeEEEESO_EE4typeEEERSB_E4typeEOSB_, symObjAddr: 0x2048, symBinAddr: 0x1000033E4, symSize: 0x28 }
  - { offsetInCU: 0x75FFC, offset: 0x75FFC, size: 0x8, addend: 0x0, symName: __ZN2pm4rowsIRKNS_6MatrixINS_8RationalEEEEENS_16inherit_ref_norvINS_4RowsIN8polymake7mselectIJNSt3__19enable_ifIXsr3std19is_rvalue_referenceIu11__remove_cvIu20__remove_reference_tIT_EEEE5valueEu22__add_rvalue_referenceINS_6UnwaryINS_8ConcreteIu11__remove_cvIu20__remove_reference_tISE_EEXsr16has_generic_typeINS_5derefISI_E4typeEEE5valueELb0EE4typeEE4typeEEEENSB_IXsr3std19is_lvalue_referenceISE_EE5valueEu22__add_lvalue_referenceINSA_11conditionalIXsr8is_constISE_EE5valueENSA_9add_constISP_E4typeESP_E4typeEEEESP_EE4typeEEERSC_E4typeEOSC_, symObjAddr: 0x20D8, symBinAddr: 0x100003474, symSize: 0x28 }
  - { offsetInCU: 0x76031, offset: 0x76031, size: 0x8, addend: 0x0, symName: __ZN2pm6unwaryIRKNS_6MatrixINS_8RationalEEEEEDcOT_NSt3__19enable_ifIXntcl7is_waryIS7_EEEPPvE4typeE, symObjAddr: 0x2124, symBinAddr: 0x1000034C0, symSize: 0x28 }
  - { offsetInCU: 0x76070, offset: 0x76070, size: 0x8, addend: 0x0, symName: __ZN2pm8concreteIRKNS_6MatrixINS_8RationalEEEEEDcOT_, symObjAddr: 0x214C, symBinAddr: 0x1000034E8, symSize: 0x14 }
  - { offsetInCU: 0x760A7, offset: 0x760A7, size: 0x8, addend: 0x0, symName: __ZN2pm6unwaryIRNS_6MatrixINS_8RationalEEEEEDcOT_NSt3__19enable_ifIXntcl7is_waryIS6_EEEPPvE4typeE, symObjAddr: 0x2484, symBinAddr: 0x100003820, symSize: 0x28 }
  - { offsetInCU: 0x760E6, offset: 0x760E6, size: 0x8, addend: 0x0, symName: __ZN2pm8concreteIRNS_6MatrixINS_8RationalEEEEEDcOT_, symObjAddr: 0x24AC, symBinAddr: 0x100003848, symSize: 0x14 }
  - { offsetInCU: 0x7611D, offset: 0x7611D, size: 0x8, addend: 0x0, symName: __ZN2pm18make_mutable_aliasERNS_11Matrix_baseINS_8RationalEEES3_, symObjAddr: 0x2BCC, symBinAddr: 0x100003F68, symSize: 0x30 }
  - { offsetInCU: 0x76157, offset: 0x76157, size: 0x8, addend: 0x0, symName: __ZN2pm10destroy_atINS_8RationalEEEvPT_, symObjAddr: 0x34F8, symBinAddr: 0x100004894, symSize: 0x24 }
  - { offsetInCU: 0x7618A, offset: 0x7618A, size: 0x8, addend: 0x0, symName: __ZN2pm4rowsIRNS_15IncidenceMatrixINS_12NonSymmetricEEEEENS_16inherit_ref_norvINS_4RowsIN8polymake7mselectIJNSt3__19enable_ifIXsr3std19is_rvalue_referenceIu11__remove_cvIu20__remove_reference_tIT_EEEE5valueEu22__add_rvalue_referenceINS_6UnwaryINS_8ConcreteIu11__remove_cvIu20__remove_reference_tISD_EEXsr16has_generic_typeINS_5derefISH_E4typeEEE5valueELb0EE4typeEE4typeEEEENSA_IXsr3std19is_lvalue_referenceISD_EE5valueEu22__add_lvalue_referenceINS9_11conditionalIXsr8is_constISD_EE5valueENS9_9add_constISO_E4typeESO_E4typeEEEESO_EE4typeEEERSB_E4typeEOSB_, symObjAddr: 0x3B2C, symBinAddr: 0x100004EC8, symSize: 0x28 }
  - { offsetInCU: 0x761BF, offset: 0x761BF, size: 0x8, addend: 0x0, symName: __ZN2pm6unwaryIRNS_15IncidenceMatrixINS_12NonSymmetricEEEEEDcOT_NSt3__19enable_ifIXntcl7is_waryIS6_EEEPPvE4typeE, symObjAddr: 0x3BC4, symBinAddr: 0x100004F60, symSize: 0x28 }
  - { offsetInCU: 0x761FE, offset: 0x761FE, size: 0x8, addend: 0x0, symName: __ZN2pm8concreteIRNS_15IncidenceMatrixINS_12NonSymmetricEEEEEDcOT_, symObjAddr: 0x3BEC, symBinAddr: 0x100004F88, symSize: 0x14 }
  - { offsetInCU: 0x76235, offset: 0x76235, size: 0x8, addend: 0x0, symName: __ZN2pm18make_mutable_aliasERNS_20IncidenceMatrix_baseINS_12NonSymmetricEEES3_, symObjAddr: 0x40B8, symBinAddr: 0x100005454, symSize: 0x30 }
  - { offsetInCU: 0x76272, offset: 0x76272, size: 0x8, addend: 0x0, symName: __ZN2pm10destroy_atINS_8sparse2d5TableINS_7nothingELb0ELNS1_16restriction_kindE0EEEEEvPT_, symObjAddr: 0x4360, symBinAddr: 0x1000056FC, symSize: 0x24 }
  - { offsetInCU: 0x762A5, offset: 0x762A5, size: 0x8, addend: 0x0, symName: __ZN2pm10destroy_atINS_8sparse2d5TableINS_7nothingELb0ELNS1_16restriction_kindE1EEEEEvPT_, symObjAddr: 0x43E4, symBinAddr: 0x100005780, symSize: 0x24 }
  - { offsetInCU: 0x762D8, offset: 0x762D8, size: 0x8, addend: 0x0, symName: __ZN2pm10destroy_atINS_3AVL4treeINS_8sparse2d6traitsINS3_11traits_baseINS_7nothingELb0ELb0ELNS3_16restriction_kindE1EEELb0ELS7_1EEEEEEEvPT_, symObjAddr: 0x465C, symBinAddr: 0x1000059F8, symSize: 0x24 }
  - { offsetInCU: 0x7630B, offset: 0x7630B, size: 0x8, addend: 0x0, symName: __ZN2pm10destroy_atINS_3AVL4treeINS_8sparse2d6traitsINS3_11traits_baseINS_7nothingELb1ELb0ELNS3_16restriction_kindE1EEELb0ELS7_1EEEEEEEvPT_, symObjAddr: 0x4D20, symBinAddr: 0x1000060BC, symSize: 0x24 }
  - { offsetInCU: 0x7633E, offset: 0x7633E, size: 0x8, addend: 0x0, symName: __ZN2pm10destroy_atINS_5graph5TableINS1_10UndirectedEEEEEvPT_, symObjAddr: 0x55FC, symBinAddr: 0x100006998, symSize: 0x24 }
  - { offsetInCU: 0x76371, offset: 0x76371, size: 0x8, addend: 0x0, symName: __ZN2pm6entireIJERNS_12EmbeddedListINS_5graph11NodeMapBaseEXadL_ZNS3_4ptrsEEEEEEEDaOT0_NSt3__19enable_ifIXsr3std19is_lvalue_referenceIS8_EE5valueEPPvE4typeE, symObjAddr: 0x581C, symBinAddr: 0x100006BB8, symSize: 0x38 }
  - { offsetInCU: 0x763B5, offset: 0x763B5, size: 0x8, addend: 0x0, symName: __ZN2pm6ensureIRNS_12EmbeddedListINS_5graph11NodeMapBaseEXadL_ZNS3_4ptrsEEEEEJN8polymake5mlistIJNS_13end_sensitiveEEEEEEEDcOT_DpT0_, symObjAddr: 0x58F8, symBinAddr: 0x100006C94, symSize: 0x14 }
  - { offsetInCU: 0x76402, offset: 0x76402, size: 0x8, addend: 0x0, symName: __ZN2pm6entireIJERNS_12EmbeddedListINS_5graph11EdgeMapBaseEXadL_ZNS3_4ptrsEEEEEEEDaOT0_NSt3__19enable_ifIXsr3std19is_lvalue_referenceIS8_EE5valueEPPvE4typeE, symObjAddr: 0x5C5C, symBinAddr: 0x100006FF8, symSize: 0x38 }
  - { offsetInCU: 0x76446, offset: 0x76446, size: 0x8, addend: 0x0, symName: __ZN2pm6ensureIRNS_12EmbeddedListINS_5graph11EdgeMapBaseEXadL_ZNS3_4ptrsEEEEEJN8polymake5mlistIJNS_13end_sensitiveEEEEEEEDcOT_DpT0_, symObjAddr: 0x5D70, symBinAddr: 0x10000710C, symSize: 0x14 }
  - { offsetInCU: 0x76493, offset: 0x76493, size: 0x8, addend: 0x0, symName: __ZN2pm10destroy_atINS_5graph10node_entryINS1_10UndirectedELNS_8sparse2d16restriction_kindE1EEEEEvPT_, symObjAddr: 0x663C, symBinAddr: 0x1000079D8, symSize: 0x24 }
  - { offsetInCU: 0x764C6, offset: 0x764C6, size: 0x8, addend: 0x0, symName: __ZN2pm13count_columnsIiEElRKSt16initializer_listIS1_IT_EE, symObjAddr: 0x7898, symBinAddr: 0x100008C34, symSize: 0x110 }
  - { offsetInCU: 0x76528, offset: 0x76528, size: 0x8, addend: 0x0, symName: __ZN2pm12construct_atINS_11Matrix_baseINS_8RationalEE5dim_tEJRKS4_EEEPT_S8_DpOT0_, symObjAddr: 0x7DF4, symBinAddr: 0x100009190, symSize: 0x24 }
  - { offsetInCU: 0x76579, offset: 0x76579, size: 0x8, addend: 0x0, symName: __ZN2pm12entire_rangeIJNS_5denseEESt16initializer_listIiEEEDaRKT0_, symObjAddr: 0x803C, symBinAddr: 0x1000093D8, symSize: 0x38 }
  - { offsetInCU: 0x765BB, offset: 0x765BB, size: 0x8, addend: 0x0, symName: __ZN2pm12construct_atINS_8RationalEJRKiEEEPT_S5_DpOT0_, symObjAddr: 0x81FC, symBinAddr: 0x100009598, symSize: 0x38 }
  - { offsetInCU: 0x766BC, offset: 0x766BC, size: 0x8, addend: 0x0, symName: __ZN2pm12construct_atINS_8RationalEJEEEPT_S3_DpOT0_, symObjAddr: 0x8E74, symBinAddr: 0x10000A210, symSize: 0x30 }
  - { offsetInCU: 0x766F8, offset: 0x766F8, size: 0x8, addend: 0x0, symName: __ZN2pm6ensureIRKSt16initializer_listIiEJN8polymake5mlistIJNS_5denseENS_13end_sensitiveEEEEEEEDcOT_DpT0_, symObjAddr: 0x8FA4, symBinAddr: 0x10000A340, symSize: 0x14 }
  - { offsetInCU: 0x7677A, offset: 0x7677A, size: 0x8, addend: 0x0, symName: __ZN2pm6unwaryINS_17SameElementVectorIRKNS_8RationalEEEEEDcOT_NSt3__19enable_ifIXntcl7is_waryIS7_EEEPPvE4typeE, symObjAddr: 0x9280, symBinAddr: 0x10000A61C, symSize: 0x28 }
  - { offsetInCU: 0x767B9, offset: 0x767B9, size: 0x8, addend: 0x0, symName: __ZN2pm8concreteINS_17SameElementVectorIRKNS_8RationalEEEEEDcOT_, symObjAddr: 0x9320, symBinAddr: 0x10000A6BC, symSize: 0x14 }
  - { offsetInCU: 0x76863, offset: 0x76863, size: 0x8, addend: 0x0, symName: __ZN2pm18make_mutable_aliasINS_6MatrixINS_8RationalEEEEEvRKT_S6_, symObjAddr: 0x9BE8, symBinAddr: 0x10000AF84, symSize: 0x14 }
  - { offsetInCU: 0x7689A, offset: 0x7689A, size: 0x8, addend: 0x0, symName: __ZN2pm4rowsIRKNS_11RepeatedColINS_17SameElementVectorIRKNS_8RationalEEEEEEENS_16inherit_ref_norvINS_4RowsIN8polymake7mselectIJNSt3__19enable_ifIXsr3std19is_rvalue_referenceIu11__remove_cvIu20__remove_reference_tIT_EEEE5valueEu22__add_rvalue_referenceINS_6UnwaryINS_8ConcreteIu11__remove_cvIu20__remove_reference_tISI_EEXsr16has_generic_typeINS_5derefISM_E4typeEEE5valueELb0EE4typeEE4typeEEEENSF_IXsr3std19is_lvalue_referenceISI_EE5valueEu22__add_lvalue_referenceINSE_11conditionalIXsr8is_constISI_EE5valueENSE_9add_constIST_E4typeEST_E4typeEEEEST_EE4typeEEERSG_E4typeEOSG_, symObjAddr: 0x9FAC, symBinAddr: 0x10000B348, symSize: 0x28 }
  - { offsetInCU: 0x768CF, offset: 0x768CF, size: 0x8, addend: 0x0, symName: __ZN2pm6unwaryIRKNS_11RepeatedColINS_17SameElementVectorIRKNS_8RationalEEEEEEEDcOT_NSt3__19enable_ifIXntcl7is_waryISB_EEEPPvE4typeE, symObjAddr: 0xA000, symBinAddr: 0x10000B39C, symSize: 0x28 }
  - { offsetInCU: 0x7690E, offset: 0x7690E, size: 0x8, addend: 0x0, symName: __ZN2pm8concreteIRKNS_11RepeatedColINS_17SameElementVectorIRKNS_8RationalEEEEEEEDcOT_, symObjAddr: 0xA028, symBinAddr: 0x10000B3C4, symSize: 0x14 }
  - { offsetInCU: 0x76945, offset: 0x76945, size: 0x8, addend: 0x0, symName: __ZN2pm23as_same_value_containerINS_17SameElementVectorIRKNS_8RationalEEEEERKNS_20same_value_containerIT_EERKNS_5aliasIS7_Xsr13alias_kind_ofIS7_EE5valueEEE, symObjAddr: 0xA18C, symBinAddr: 0x10000B528, symSize: 0x24 }
  - { offsetInCU: 0x77097, offset: 0x77097, size: 0x8, addend: 0x0, symName: __ZN2pm8concreteIRKNS_11BlockMatrixIN8polymake5mlistIJKNS_11RepeatedColINS_17SameElementVectorIRKNS_8RationalEEEEERKNS_6MatrixIS6_EEEEENSt3__117integral_constantIbLb0EEEEEEEDcOT_, symObjAddr: 0xAC50, symBinAddr: 0x10000BFEC, symSize: 0x14 }
  - { offsetInCU: 0x770CE, offset: 0x770CE, size: 0x8, addend: 0x0, symName: __ZN2pm4rowsIRKNS_11BlockMatrixIN8polymake5mlistIJKNS_11RepeatedColINS_17SameElementVectorIRKNS_8RationalEEEEERKNS_6MatrixIS6_EEEEENSt3__117integral_constantIbLb0EEEEEEENS_16inherit_ref_norvINS_4RowsINS2_7mselectIJNSH_9enable_ifIXsr3std19is_rvalue_referenceIu11__remove_cvIu20__remove_reference_tIT_EEEE5valueEu22__add_rvalue_referenceINS_6UnwaryINS_8ConcreteIu11__remove_cvIu20__remove_reference_tIST_EEXsr16has_generic_typeINS_5derefISX_E4typeEEE5valueELb0EE4typeEE4typeEEEENSQ_IXsr3std19is_lvalue_referenceIST_EE5valueEu22__add_lvalue_referenceINSH_11conditionalIXsr8is_constIST_EE5valueENSH_9add_constIS14_E4typeES14_E4typeEEEES14_EE4typeEEERSR_E4typeEOSR_, symObjAddr: 0xAD38, symBinAddr: 0x10000C0D4, symSize: 0x28 }
  - { offsetInCU: 0x77103, offset: 0x77103, size: 0x8, addend: 0x0, symName: __ZN2pm6entireIJNS_5denseEERKNS_4RowsINS_11BlockMatrixIN8polymake5mlistIJKNS_11RepeatedColINS_17SameElementVectorIRKNS_8RationalEEEEERKNS_6MatrixIS8_EEEEENSt3__117integral_constantIbLb0EEEEEEEEEDaOT0_NSJ_9enable_ifIXsr3std19is_lvalue_referenceISS_EE5valueEPPvE4typeE, symObjAddr: 0xAF54, symBinAddr: 0x10000C2F0, symSize: 0x38 }
  - { offsetInCU: 0x7714D, offset: 0x7714D, size: 0x8, addend: 0x0, symName: __ZN2pm6ensureIRKNS_4RowsINS_11BlockMatrixIN8polymake5mlistIJKNS_11RepeatedColINS_17SameElementVectorIRKNS_8RationalEEEEERKNS_6MatrixIS7_EEEEENSt3__117integral_constantIbLb0EEEEEEEJNS4_IJNS_5denseENS_13end_sensitiveEEEEEEEDcOT_DpT0_, symObjAddr: 0xB218, symBinAddr: 0x10000C5B4, symSize: 0x14 }
  - { offsetInCU: 0x771D0, offset: 0x771D0, size: 0x8, addend: 0x0, symName: __ZN2pm6ensureIRKNS_4RowsINS_11RepeatedColINS_17SameElementVectorIRKNS_8RationalEEEEEEEJN8polymake5mlistIJNS_13end_sensitiveEEEEEEEDcOT_DpT0_, symObjAddr: 0xB340, symBinAddr: 0x10000C6DC, symSize: 0x14 }
  - { offsetInCU: 0x7721D, offset: 0x7721D, size: 0x8, addend: 0x0, symName: __ZN2pm6ensureIRKNS_4RowsINS_6MatrixINS_8RationalEEEEEJN8polymake5mlistIJEEEEEEDcOT_DpT0_, symObjAddr: 0xB3BC, symBinAddr: 0x10000C758, symSize: 0x14 }
  - { offsetInCU: 0x7726A, offset: 0x7726A, size: 0x8, addend: 0x0, symName: __ZN2pm6ensureIRKNS_17SameElementVectorIRKNS_8RationalEEEJN8polymake5mlistIJNS_13end_sensitiveEEEEEEEDcOT_DpT0_, symObjAddr: 0xB57C, symBinAddr: 0x10000C918, symSize: 0x14 }
  - { offsetInCU: 0x772B7, offset: 0x772B7, size: 0x8, addend: 0x0, symName: __ZN2pm6ensureIRKNS_20same_value_containerIRKNS_8RationalEEEJN8polymake5mlistIJEEEEEEDcOT_DpT0_, symObjAddr: 0xB6B4, symBinAddr: 0x10000CA50, symSize: 0x14 }
  - { offsetInCU: 0x77304, offset: 0x77304, size: 0x8, addend: 0x0, symName: __ZN2pm6ensureINS_9SeriesRawIlLb1EEEJN8polymake5mlistIJNS_13end_sensitiveEEEEEEEDcOT_DpT0_, symObjAddr: 0xB734, symBinAddr: 0x10000CAD0, symSize: 0x14 }
  - { offsetInCU: 0x77351, offset: 0x77351, size: 0x8, addend: 0x0, symName: __ZN2pm23as_same_value_containerIRKNS_8RationalEEERKNS_20same_value_containerIT_EERKNS_5aliasIS5_Xsr13alias_kind_ofIS5_EE5valueEEE, symObjAddr: 0xB84C, symBinAddr: 0x10000CBE8, symSize: 0x24 }
  - { offsetInCU: 0x77388, offset: 0x77388, size: 0x8, addend: 0x0, symName: __ZN2pm20prepare_iterator_argINS_19same_value_iteratorIRKNS_8RationalEEES5_EEDcRKT0_NSt3__19enable_ifIXsr19is_derived_from_anyIS7_N8polymake10mlist_wrapIJNSC_10mlist_foldINSC_5mlistIJT_NS_15iterator_traitsISG_E8iteratorEEEENSC_28mlist_remove_duplicates_implINSA_7is_sameEE4funcEvE4typeEEE4typeEEE5valueEPPvE4typeE, symObjAddr: 0xBC14, symBinAddr: 0x10000CFB0, symSize: 0x18 }
  - { offsetInCU: 0x773D3, offset: 0x773D3, size: 0x8, addend: 0x0, symName: __ZN2pm20prepare_iterator_argINS_14iterator_rangeINS_17sequence_iteratorIlLb1EEEEES4_EEDcRKT0_NSt3__19enable_ifIXsr19is_derived_from_anyIS6_N8polymake10mlist_wrapIJNSB_10mlist_foldINSB_5mlistIJT_NS_15iterator_traitsISF_E8iteratorEEEENSB_28mlist_remove_duplicates_implINS9_7is_sameEE4funcEvE4typeEEE4typeEEE5valueEPPvE4typeE, symObjAddr: 0xBC2C, symBinAddr: 0x10000CFC8, symSize: 0x18 }
  - { offsetInCU: 0x7741E, offset: 0x7741E, size: 0x8, addend: 0x0, symName: __ZN2pm20prepare_iterator_argINS_25binary_transform_iteratorINS_13iterator_pairINS_19same_value_iteratorIRKNS_8RationalEEENS_14iterator_rangeINS_17sequence_iteratorIlLb1EEEEEN8polymake5mlistIJNS_20FeaturesViaSecondTagINSD_IJNS_13end_sensitiveEEEEEEEEEEENSt3__14pairINS_7nothingENS_10operations6apply2INS_12BuildUnaryItINSN_11dereferenceEEEvEEEELb0EEESU_EEDcRKT0_NSK_9enable_ifIXsr19is_derived_from_anyISW_NSC_10mlist_wrapIJNSC_10mlist_foldINSD_IJT_NS_15iterator_traitsIS12_E8iteratorEEEENSC_28mlist_remove_duplicates_implINSK_7is_sameEE4funcEvE4typeEEE4typeEEE5valueEPPvE4typeE, symObjAddr: 0xBEC4, symBinAddr: 0x10000D260, symSize: 0x18 }
  - { offsetInCU: 0x77469, offset: 0x77469, size: 0x8, addend: 0x0, symName: __ZN2pm6ensureINS_20same_value_containerIRKNS_11Matrix_baseINS_8RationalEEEEEJN8polymake5mlistIJEEEEEEDcOT_DpT0_, symObjAddr: 0xC10C, symBinAddr: 0x10000D4A8, symSize: 0x14 }
  - { offsetInCU: 0x774B6, offset: 0x774B6, size: 0x8, addend: 0x0, symName: __ZN2pm6ensureINS_6SeriesIlLb0EEEJN8polymake5mlistIJEEEEEEDcOT_DpT0_, symObjAddr: 0xC190, symBinAddr: 0x10000D52C, symSize: 0x14 }
  - { offsetInCU: 0x77504, offset: 0x77504, size: 0x8, addend: 0x0, symName: __ZN2pm18make_mutable_aliasINS_11Matrix_baseINS_8RationalEEEEEvRKT_S6_, symObjAddr: 0xC384, symBinAddr: 0x10000D720, symSize: 0x14 }
  - { offsetInCU: 0x7753B, offset: 0x7753B, size: 0x8, addend: 0x0, symName: __ZN2pm20prepare_iterator_argINS_19same_value_iteratorIRKNS_11Matrix_baseINS_8RationalEEEEES7_EEDcRKT0_NSt3__19enable_ifIXsr19is_derived_from_anyIS9_N8polymake10mlist_wrapIJNSE_10mlist_foldINSE_5mlistIJT_NS_15iterator_traitsISI_E8iteratorEEEENSE_28mlist_remove_duplicates_implINSC_7is_sameEE4funcEvE4typeEEE4typeEEE5valueEPPvE4typeE, symObjAddr: 0xC550, symBinAddr: 0x10000D8EC, symSize: 0x18 }
  - { offsetInCU: 0x77586, offset: 0x77586, size: 0x8, addend: 0x0, symName: __ZN2pm20prepare_iterator_argINS_15series_iteratorIlLb1EEES2_EEDcRKT0_NSt3__19enable_ifIXsr19is_derived_from_anyIS4_N8polymake10mlist_wrapIJNS9_10mlist_foldINS9_5mlistIJT_NS_15iterator_traitsISD_E8iteratorEEEENS9_28mlist_remove_duplicates_implINS7_7is_sameEE4funcEvE4typeEEE4typeEEE5valueEPPvE4typeE, symObjAddr: 0xC568, symBinAddr: 0x10000D904, symSize: 0x18 }
  - { offsetInCU: 0x775F0, offset: 0x775F0, size: 0x8, addend: 0x0, symName: __ZN2pm8concreteIRKNS_11VectorChainIN8polymake5mlistIJKNS_17SameElementVectorIRKNS_8RationalEEEKNS_12IndexedSliceINS_10masqueradeINS_10ConcatRowsERKNS_11Matrix_baseIS5_EEEEKNS_6SeriesIlLb1EEENS3_IJEEEEEEEEEEEEDcOT_, symObjAddr: 0xD9B4, symBinAddr: 0x10000ED50, symSize: 0x14 }
  - { offsetInCU: 0x77627, offset: 0x77627, size: 0x8, addend: 0x0, symName: __ZN2pm6entireIJNS_5denseEERKNS_11VectorChainIN8polymake5mlistIJKNS_17SameElementVectorIRKNS_8RationalEEEKNS_12IndexedSliceINS_10masqueradeINS_10ConcatRowsERKNS_11Matrix_baseIS6_EEEEKNS_6SeriesIlLb1EEENS4_IJEEEEEEEEEEEEDaOT0_NSt3__19enable_ifIXsr3std19is_lvalue_referenceISV_EE5valueEPPvE4typeE, symObjAddr: 0xDBD8, symBinAddr: 0x10000EF74, symSize: 0x3C }
  - { offsetInCU: 0x77671, offset: 0x77671, size: 0x8, addend: 0x0, symName: __ZN2pm6ensureIRKNS_11VectorChainIN8polymake5mlistIJKNS_17SameElementVectorIRKNS_8RationalEEEKNS_12IndexedSliceINS_10masqueradeINS_10ConcatRowsERKNS_11Matrix_baseIS5_EEEEKNS_6SeriesIlLb1EEENS3_IJEEEEEEEEEEJNS3_IJNS_5denseENS_13end_sensitiveEEEEEEEDcOT_DpT0_, symObjAddr: 0xDFA4, symBinAddr: 0x10000F340, symSize: 0x14 }
  - { offsetInCU: 0x776BE, offset: 0x776BE, size: 0x8, addend: 0x0, symName: __ZN2pm6ensureIRKNS_12IndexedSliceINS_10masqueradeINS_10ConcatRowsERKNS_11Matrix_baseINS_8RationalEEEEEKNS_6SeriesIlLb1EEEN8polymake5mlistIJEEEEEJNSE_IJNS_13end_sensitiveEEEEEEEDcOT_DpT0_, symObjAddr: 0xE1D0, symBinAddr: 0x10000F56C, symSize: 0x14 }
  - { offsetInCU: 0x7770B, offset: 0x7770B, size: 0x8, addend: 0x0, symName: __ZN2pm6ensureIRKNS_10ConcatRowsINS_11Matrix_baseINS_8RationalEEEEEJN8polymake5mlistIJNS_20provide_constructionINS_13end_sensitiveELb0EEEEEEEEEDcOT_DpT0_, symObjAddr: 0xE2C8, symBinAddr: 0x10000F664, symSize: 0x14 }
  - { offsetInCU: 0x77758, offset: 0x77758, size: 0x8, addend: 0x0, symName: __ZN2pm8isfiniteERKNS_8RationalE, symObjAddr: 0xEED0, symBinAddr: 0x10001026C, symSize: 0x3C }
  - { offsetInCU: 0x77786, offset: 0x77786, size: 0x8, addend: 0x0, symName: __ZN2pm5isinfERKNS_8RationalE, symObjAddr: 0xEFEC, symBinAddr: 0x100010388, symSize: 0x58 }
  - { offsetInCU: 0x777B4, offset: 0x777B4, size: 0x8, addend: 0x0, symName: __ZN2pm8concreteIRKNS_8RationalEEEDcOT_, symObjAddr: 0xF0EC, symBinAddr: 0x100010488, symSize: 0x14 }
  - { offsetInCU: 0x7781C, offset: 0x7781C, size: 0x8, addend: 0x0, symName: __ZN2pm6ensureIRKNS_11VectorChainIN8polymake5mlistIJKNS_17SameElementVectorIRKNS_8RationalEEEKNS_12IndexedSliceINS_10masqueradeINS_10ConcatRowsERKNS_11Matrix_baseIS5_EEEEKNS_6SeriesIlLb1EEENS3_IJEEEEEEEEEEJSL_EEEDcOT_DpT0_, symObjAddr: 0x11D54, symBinAddr: 0x1000130F0, symSize: 0x14 }
  - { offsetInCU: 0x77869, offset: 0x77869, size: 0x8, addend: 0x0, symName: __ZN2pm20prepare_iterator_argINS_14iterator_rangeINS_17sequence_iteratorIlLb0EEEEES4_EEDcRKT0_NSt3__19enable_ifIXsr19is_derived_from_anyIS6_N8polymake10mlist_wrapIJNSB_10mlist_foldINSB_5mlistIJT_NS_15iterator_traitsISF_E8iteratorEEEENSB_28mlist_remove_duplicates_implINS9_7is_sameEE4funcEvE4typeEEE4typeEEE5valueEPPvE4typeE, symObjAddr: 0x128F4, symBinAddr: 0x100013C90, symSize: 0x18 }
  - { offsetInCU: 0x778B4, offset: 0x778B4, size: 0x8, addend: 0x0, symName: __ZN2pm6ensureIRKNS_11VectorChainIN8polymake5mlistIJKNS_17SameElementVectorIRKNS_8RationalEEEKNS_12IndexedSliceINS_10masqueradeINS_10ConcatRowsERKNS_11Matrix_baseIS5_EEEEKNS_6SeriesIlLb1EEENS3_IJEEEEEEEEEEJNS_5denseEEEEDcOT_DpT0_, symObjAddr: 0x1358C, symBinAddr: 0x100014928, symSize: 0x14 }
  - { offsetInCU: 0x77901, offset: 0x77901, size: 0x8, addend: 0x0, symName: __ZN2pm7get_dimINS_11VectorChainIN8polymake5mlistIJKNS_17SameElementVectorIRKNS_8RationalEEEKNS_12IndexedSliceINS_10masqueradeINS_10ConcatRowsERKNS_11Matrix_baseIS5_EEEEKNS_6SeriesIlLb1EEENS3_IJEEEEEEEEEEEENSt3__19enable_ifIXntsr23check_container_featureIT_NS_17sparse_compatibleEEE5valueElE4typeERKSS_, symObjAddr: 0x135F0, symBinAddr: 0x10001498C, symSize: 0x28 }
  - { offsetInCU: 0x77938, offset: 0x77938, size: 0x8, addend: 0x0, symName: __ZN2pm12construct_atINS_8RationalEJRKS1_EEEPT_S5_DpOT0_, symObjAddr: 0x13A70, symBinAddr: 0x100014E0C, symSize: 0x34 }
  - { offsetInCU: 0x77CA4, offset: 0x77CA4, size: 0x8, addend: 0x0, symName: __ZN2pm6unwaryIRKNS_11BlockMatrixIN8polymake5mlistIJKNS_11RepeatedColINS_17SameElementVectorIRKNS_8RationalEEEEERKNS_6MatrixIS6_EEEEENSt3__117integral_constantIbLb0EEEEEEEDcOT_NSH_9enable_ifIXntcl7is_waryISO_EEEPPvE4typeE, symObjAddr: 0x14B94, symBinAddr: 0x100015F30, symSize: 0x28 }
  - { offsetInCU: 0x77D14, offset: 0x77D14, size: 0x8, addend: 0x0, symName: __ZN2pm6ensureIRKNS_4RowsINS_11BlockMatrixIN8polymake5mlistIJKNS_11RepeatedColINS_17SameElementVectorIRKNS_8RationalEEEEERKNS_6MatrixIS7_EEEEENSt3__117integral_constantIbLb0EEEEEEEJNS4_IJEEEEEEDcOT_DpT0_, symObjAddr: 0x15F6C, symBinAddr: 0x100017308, symSize: 0x14 }
  - { offsetInCU: 0x77D61, offset: 0x77D61, size: 0x8, addend: 0x0, symName: __ZN2pm6ensureIRKNS_4RowsINS_11RepeatedColINS_17SameElementVectorIRKNS_8RationalEEEEEEEJN8polymake5mlistIJEEEEEEDcOT_DpT0_, symObjAddr: 0x1606C, symBinAddr: 0x100017408, symSize: 0x14 }
  - { offsetInCU: 0x77DAE, offset: 0x77DAE, size: 0x8, addend: 0x0, symName: __ZN2pm6ensureIRKNS_17SameElementVectorIRKNS_8RationalEEEJN8polymake5mlistIJEEEEEEDcOT_DpT0_, symObjAddr: 0x1612C, symBinAddr: 0x1000174C8, symSize: 0x14 }
  - { offsetInCU: 0x77DFB, offset: 0x77DFB, size: 0x8, addend: 0x0, symName: __ZN2pm6ensureINS_9SeriesRawIlLb1EEEJN8polymake5mlistIJEEEEEEDcOT_DpT0_, symObjAddr: 0x16214, symBinAddr: 0x1000175B0, symSize: 0x14 }
  - { offsetInCU: 0x77E48, offset: 0x77E48, size: 0x8, addend: 0x0, symName: __ZN2pm20prepare_iterator_argINS_17sequence_iteratorIlLb1EEES2_EEDcRKT0_NSt3__19enable_ifIXsr19is_derived_from_anyIS4_N8polymake10mlist_wrapIJNS9_10mlist_foldINS9_5mlistIJT_NS_15iterator_traitsISD_E8iteratorEEEENS9_28mlist_remove_duplicates_implINS7_7is_sameEE4funcEvE4typeEEE4typeEEE5valueEPPvE4typeE, symObjAddr: 0x162D4, symBinAddr: 0x100017670, symSize: 0x18 }
  - { offsetInCU: 0x77E93, offset: 0x77E93, size: 0x8, addend: 0x0, symName: __ZN2pm20prepare_iterator_argINS_25binary_transform_iteratorINS_13iterator_pairINS_19same_value_iteratorIRKNS_8RationalEEENS_17sequence_iteratorIlLb1EEEN8polymake5mlistIJEEEEENSt3__14pairINS_7nothingENS_10operations6apply2INS_12BuildUnaryItINSH_11dereferenceEEEvEEEELb0EEESO_EEDcRKT0_NSE_9enable_ifIXsr19is_derived_from_anyISQ_NSA_10mlist_wrapIJNSA_10mlist_foldINSB_IJT_NS_15iterator_traitsISW_E8iteratorEEEENSA_28mlist_remove_duplicates_implINSE_7is_sameEE4funcEvE4typeEEE4typeEEE5valueEPPvE4typeE, symObjAddr: 0x1645C, symBinAddr: 0x1000177F8, symSize: 0x18 }
  - { offsetInCU: 0x77FB2, offset: 0x77FB2, size: 0x8, addend: 0x0, symName: __ZN2pm20prepare_iterator_argINS_17sequence_iteratorIlLb0EEES2_EEDcRKT0_NSt3__19enable_ifIXsr19is_derived_from_anyIS4_N8polymake10mlist_wrapIJNS9_10mlist_foldINS9_5mlistIJT_NS_15iterator_traitsISD_E8iteratorEEEENS9_28mlist_remove_duplicates_implINS7_7is_sameEE4funcEvE4typeEEE4typeEEE5valueEPPvE4typeE, symObjAddr: 0x174A4, symBinAddr: 0x100018840, symSize: 0x18 }
  - { offsetInCU: 0x77FFD, offset: 0x77FFD, size: 0x8, addend: 0x0, symName: __ZN2pm20prepare_iterator_argINS_25binary_transform_iteratorINS_13iterator_pairINS_19same_value_iteratorIRKNS_8RationalEEENS_17sequence_iteratorIlLb0EEEN8polymake5mlistIJEEEEENSt3__14pairINS_7nothingENS_10operations6apply2INS_12BuildUnaryItINSH_11dereferenceEEEvEEEELb0EEESO_EEDcRKT0_NSE_9enable_ifIXsr19is_derived_from_anyISQ_NSA_10mlist_wrapIJNSA_10mlist_foldINSB_IJT_NS_15iterator_traitsISW_E8iteratorEEEENSA_28mlist_remove_duplicates_implINSE_7is_sameEE4funcEvE4typeEEE4typeEEE5valueEPPvE4typeE, symObjAddr: 0x1762C, symBinAddr: 0x1000189C8, symSize: 0x18 }
  - { offsetInCU: 0x78048, offset: 0x78048, size: 0x8, addend: 0x0, symName: __ZN2pm20prepare_iterator_argINS_15series_iteratorIlLb0EEES2_EEDcRKT0_NSt3__19enable_ifIXsr19is_derived_from_anyIS4_N8polymake10mlist_wrapIJNS9_10mlist_foldINS9_5mlistIJT_NS_15iterator_traitsISD_E8iteratorEEEENS9_28mlist_remove_duplicates_implINS7_7is_sameEE4funcEvE4typeEEE4typeEEE5valueEPPvE4typeE, symObjAddr: 0x17950, symBinAddr: 0x100018CEC, symSize: 0x18 }
  - { offsetInCU: 0x782CA, offset: 0x782CA, size: 0x8, addend: 0x0, symName: __ZN2pm18index_within_rangeINS_4RowsINS_11BlockMatrixIN8polymake5mlistIJKNS_11RepeatedColINS_17SameElementVectorIRKNS_8RationalEEEEERKNS_6MatrixIS7_EEEEENSt3__117integral_constantIbLb0EEEEEEEEElRKT_l, symObjAddr: 0x18634, symBinAddr: 0x1000199D0, symSize: 0xDC }
  - { offsetInCU: 0x7831F, offset: 0x7831F, size: 0x8, addend: 0x0, symName: __ZN2pm7get_dimINS_4RowsINS_11BlockMatrixIN8polymake5mlistIJKNS_11RepeatedColINS_17SameElementVectorIRKNS_8RationalEEEEERKNS_6MatrixIS7_EEEEENSt3__117integral_constantIbLb0EEEEEEEEENSI_9enable_ifIXntsr23check_container_featureIT_NS_17sparse_compatibleEEE5valueElE4typeERKSO_, symObjAddr: 0x1875C, symBinAddr: 0x100019AF8, symSize: 0x24 }
  - { offsetInCU: 0x78356, offset: 0x78356, size: 0x8, addend: 0x0, symName: __ZN2pm4colsIRKNS_11BlockMatrixIN8polymake5mlistIJKNS_11RepeatedColINS_17SameElementVectorIRKNS_8RationalEEEEERKNS_6MatrixIS6_EEEEENSt3__117integral_constantIbLb0EEEEEEENS_16inherit_ref_norvINS_4ColsINS2_7mselectIJNSH_9enable_ifIXsr3std19is_rvalue_referenceIu11__remove_cvIu20__remove_reference_tIT_EEEE5valueEu22__add_rvalue_referenceINS_6UnwaryINS_8ConcreteIu11__remove_cvIu20__remove_reference_tIST_EEXsr16has_generic_typeINS_5derefISX_E4typeEEE5valueELb0EE4typeEE4typeEEEENSQ_IXsr3std19is_lvalue_referenceIST_EE5valueEu22__add_lvalue_referenceINSH_11conditionalIXsr8is_constIST_EE5valueENSH_9add_constIS14_E4typeES14_E4typeEEEES14_EE4typeEEERSR_E4typeEOSR_, symObjAddr: 0x18D88, symBinAddr: 0x10001A124, symSize: 0x28 }
  - { offsetInCU: 0x7838B, offset: 0x7838B, size: 0x8, addend: 0x0, symName: __ZN2pm4colsIRKNS_6MatrixINS_8RationalEEEEENS_16inherit_ref_norvINS_4ColsIN8polymake7mselectIJNSt3__19enable_ifIXsr3std19is_rvalue_referenceIu11__remove_cvIu20__remove_reference_tIT_EEEE5valueEu22__add_rvalue_referenceINS_6UnwaryINS_8ConcreteIu11__remove_cvIu20__remove_reference_tISE_EEXsr16has_generic_typeINS_5derefISI_E4typeEEE5valueELb0EE4typeEE4typeEEEENSB_IXsr3std19is_lvalue_referenceISE_EE5valueEu22__add_lvalue_referenceINSA_11conditionalIXsr8is_constISE_EE5valueENSA_9add_constISP_E4typeESP_E4typeEEEESP_EE4typeEEERSC_E4typeEOSC_, symObjAddr: 0x18EC4, symBinAddr: 0x10001A260, symSize: 0x28 }
  - { offsetInCU: 0x783C0, offset: 0x783C0, size: 0x8, addend: 0x0, symName: __ZN2pm4colsIRKNS_11RepeatedColINS_17SameElementVectorIRKNS_8RationalEEEEEEENS_16inherit_ref_norvINS_4ColsIN8polymake7mselectIJNSt3__19enable_ifIXsr3std19is_rvalue_referenceIu11__remove_cvIu20__remove_reference_tIT_EEEE5valueEu22__add_rvalue_referenceINS_6UnwaryINS_8ConcreteIu11__remove_cvIu20__remove_reference_tISI_EEXsr16has_generic_typeINS_5derefISM_E4typeEEE5valueELb0EE4typeEE4typeEEEENSF_IXsr3std19is_lvalue_referenceISI_EE5valueEu22__add_lvalue_referenceINSE_11conditionalIXsr8is_constISI_EE5valueENSE_9add_constIST_E4typeEST_E4typeEEEEST_EE4typeEEERSG_E4typeEOSG_, symObjAddr: 0x19068, symBinAddr: 0x10001A404, symSize: 0x28 }
  - { offsetInCU: 0x783F5, offset: 0x783F5, size: 0x8, addend: 0x0, symName: __ZN2pm6ensureIRKNS_10ConcatRowsINS_11BlockMatrixIN8polymake5mlistIJKNS_11RepeatedColINS_17SameElementVectorIRKNS_8RationalEEEEERKNS_6MatrixIS7_EEEEENSt3__117integral_constantIbLb0EEEEEEEJNS_5denseEEEEDcOT_DpT0_, symObjAddr: 0x19104, symBinAddr: 0x10001A4A0, symSize: 0x14 }
  - { offsetInCU: 0x78442, offset: 0x78442, size: 0x8, addend: 0x0, symName: __ZN2pm11concat_rowsINS_11BlockMatrixIN8polymake5mlistIJKNS_11RepeatedColINS_17SameElementVectorIRKNS_8RationalEEEEERKNS_6MatrixIS6_EEEEENSt3__117integral_constantIbLb0EEEEEEERKNS_10ConcatRowsINS2_7mselectIJNSH_9enable_ifIXsr3std19is_rvalue_referenceIT_EE5valueEu22__add_rvalue_referenceINS_6UnwaryINS_8ConcreteIu11__remove_cvIu20__remove_reference_tISO_EEXsr16has_generic_typeINS_5derefISS_E4typeEEE5valueELb0EE4typeEE4typeEEEENSN_IXsr3std19is_lvalue_referenceISO_EE5valueEu22__add_lvalue_referenceINSH_11conditionalIXsr8is_constISO_EE5valueENSH_9add_constISZ_E4typeESZ_E4typeEEEESZ_EE4typeEEERKNS_13GenericMatrixISO_NSO_12element_typeEEE, symObjAddr: 0x19118, symBinAddr: 0x10001A4B4, symSize: 0x24 }
  - { offsetInCU: 0x78479, offset: 0x78479, size: 0x8, addend: 0x0, symName: __ZN2pm6ensureIRKNS_4RowsINS_11BlockMatrixIN8polymake5mlistIJKNS_11RepeatedColINS_17SameElementVectorIRKNS_8RationalEEEEERKNS_6MatrixIS7_EEEEENSt3__117integral_constantIbLb0EEEEEEEJNS4_IJNS_13end_sensitiveEEEEEEEDcOT_DpT0_, symObjAddr: 0x191B4, symBinAddr: 0x10001A550, symSize: 0x14 }
  - { offsetInCU: 0x784C6, offset: 0x784C6, size: 0x8, addend: 0x0, symName: __ZN2pm6ensureIRNS_11VectorChainIN8polymake5mlistIJKNS_17SameElementVectorIRKNS_8RationalEEEKNS_12IndexedSliceINS_10masqueradeINS_10ConcatRowsERKNS_11Matrix_baseIS5_EEEEKNS_6SeriesIlLb1EEENS3_IJEEEEEEEEEEJNS3_IJNS_13end_sensitiveEEEEEEEDcOT_DpT0_, symObjAddr: 0x19A90, symBinAddr: 0x10001AE2C, symSize: 0x14 }
  - { offsetInCU: 0x78513, offset: 0x78513, size: 0x8, addend: 0x0, symName: __ZN2pm12construct_atINS_8sparse2d5TableINS_7nothingELb0ELNS1_16restriction_kindE0EEEJEEEPT_S7_DpOT0_, symObjAddr: 0x1AE6C, symBinAddr: 0x10001C208, symSize: 0x2C }
  - { offsetInCU: 0x7854F, offset: 0x7854F, size: 0x8, addend: 0x0, symName: __ZN2pm12construct_atINS_3AVL4treeINS_8sparse2d6traitsINS3_11traits_baseINS_7nothingELb1ELb0ELNS3_16restriction_kindE0EEELb0ELS7_0EEEEEJRlEEEPT_SD_DpOT0_, symObjAddr: 0x1B198, symBinAddr: 0x10001C534, symSize: 0x34 }
  - { offsetInCU: 0x785A0, offset: 0x785A0, size: 0x8, addend: 0x0, symName: __ZN2pm12construct_atINS_3AVL4treeINS_8sparse2d6traitsINS3_11traits_baseINS_7nothingELb0ELb0ELNS3_16restriction_kindE0EEELb0ELS7_0EEEEEJRlEEEPT_SD_DpOT0_, symObjAddr: 0x1B5B8, symBinAddr: 0x10001C954, symSize: 0x34 }
  - { offsetInCU: 0x78622, offset: 0x78622, size: 0x8, addend: 0x0, symName: __ZN2pm8concreteIRKNS_12NonSymmetricEEEDcOT_, symObjAddr: 0x1C1A0, symBinAddr: 0x10001D53C, symSize: 0x14 }
  - { offsetInCU: 0x78697, offset: 0x78697, size: 0x8, addend: 0x0, symName: __ZN2pm18retrieve_containerINS_11PlainParserIN8polymake5mlistIJNS_12TrustedValueINSt3__117integral_constantIbLb0EEEEEEEEEENS_15IncidenceMatrixINS_12NonSymmetricEEEEEvRT_RT0_NS_7io_test9as_matrixILi2EEE, symObjAddr: 0x1CA64, symBinAddr: 0x10001DE00, symSize: 0x110 }
  - { offsetInCU: 0x786FC, offset: 0x786FC, size: 0x8, addend: 0x0, symName: __ZN2pm22resize_and_fill_matrixINS_21PlainParserListCursorINS_14incidence_lineIRNS_3AVL4treeINS_8sparse2d6traitsINS5_11traits_baseINS_7nothingELb1ELb0ELNS5_16restriction_kindE0EEELb0ELS9_0EEEEEEEN8polymake5mlistIJNS_12TrustedValueINSt3__117integral_constantIbLb0EEEEENS_13SeparatorCharINSJ_IcLc10EEEEENS_14ClosingBracketINSJ_IcLc0EEEEENS_14OpeningBracketISQ_EEEEEEENS_15IncidenceMatrixINS_12NonSymmetricEEEEEvRT_RT0_lNSJ_IiLi0EEE, symObjAddr: 0x1CBDC, symBinAddr: 0x10001DF78, symSize: 0xF0 }
  - { offsetInCU: 0x78786, offset: 0x78786, size: 0x8, addend: 0x0, symName: __ZN2pm21fill_dense_from_denseINS_21PlainParserListCursorINS_14incidence_lineIRNS_3AVL4treeINS_8sparse2d6traitsINS5_11traits_baseINS_7nothingELb1ELb0ELNS5_16restriction_kindE0EEELb0ELS9_0EEEEEEEN8polymake5mlistIJNS_12TrustedValueINSt3__117integral_constantIbLb0EEEEENS_13SeparatorCharINSJ_IcLc10EEEEENS_14ClosingBracketINSJ_IcLc0EEEEENS_14OpeningBracketISQ_EEEEEEENS_4RowsINS_15IncidenceMatrixINS_12NonSymmetricEEEEEEEvRT_RT0_, symObjAddr: 0x1CF60, symBinAddr: 0x10001E2FC, symSize: 0xE4 }
  - { offsetInCU: 0x787FE, offset: 0x787FE, size: 0x8, addend: 0x0, symName: __ZN2pm21fill_dense_from_denseINS_21PlainParserListCursorINS_14incidence_lineIRNS_3AVL4treeINS_8sparse2d6traitsINS5_11traits_baseINS_7nothingELb1ELb0ELNS5_16restriction_kindE0EEELb0ELS9_0EEEEEEEN8polymake5mlistIJNS_12TrustedValueINSt3__117integral_constantIbLb0EEEEENS_13SeparatorCharINSJ_IcLc10EEEEENS_14ClosingBracketINSJ_IcLc0EEEEENS_14OpeningBracketISQ_EEEEEEENS_4RowsINS_25RestrictedIncidenceMatrixILS9_2EEEEEEEvRT_RT0_, symObjAddr: 0x1D078, symBinAddr: 0x10001E414, symSize: 0x74 }
  - { offsetInCU: 0x78885, offset: 0x78885, size: 0x8, addend: 0x0, symName: __ZN2pm4rowsIRNS_25RestrictedIncidenceMatrixILNS_8sparse2d16restriction_kindE2EEEEENS_16inherit_ref_norvINS_4RowsIN8polymake7mselectIJNSt3__19enable_ifIXsr3std19is_rvalue_referenceIu11__remove_cvIu20__remove_reference_tIT_EEEE5valueEu22__add_rvalue_referenceINS_6UnwaryINS_8ConcreteIu11__remove_cvIu20__remove_reference_tISE_EEXsr16has_generic_typeINS_5derefISI_E4typeEEE5valueELb0EE4typeEE4typeEEEENSB_IXsr3std19is_lvalue_referenceISE_EE5valueEu22__add_lvalue_referenceINSA_11conditionalIXsr8is_constISE_EE5valueENSA_9add_constISP_E4typeESP_E4typeEEEESP_EE4typeEEERSC_E4typeEOSC_, symObjAddr: 0x1D0EC, symBinAddr: 0x10001E488, symSize: 0x28 }
  - { offsetInCU: 0x788D8, offset: 0x788D8, size: 0x8, addend: 0x0, symName: __ZN2pm12construct_atINS_3AVL4treeINS_8sparse2d6traitsINS3_11traits_baseINS_7nothingELb1ELb0ELNS3_16restriction_kindE1EEELb0ELS7_1EEEEEJRlEEEPT_SD_DpOT0_, symObjAddr: 0x1DF48, symBinAddr: 0x10001F2E4, symSize: 0x34 }
  - { offsetInCU: 0x78929, offset: 0x78929, size: 0x8, addend: 0x0, symName: __ZN2pm12construct_atINS_3AVL4treeINS_8sparse2d6traitsINS3_11traits_baseINS_7nothingELb0ELb0ELNS3_16restriction_kindE1EEELb0ELS7_1EEEEEJRlEEEPT_SD_DpOT0_, symObjAddr: 0x1E288, symBinAddr: 0x10001F624, symSize: 0x34 }
  - { offsetInCU: 0x7897A, offset: 0x7897A, size: 0x8, addend: 0x0, symName: __ZN2pm6entireIJERNS_4RowsINS_15IncidenceMatrixINS_12NonSymmetricEEEEEEEDaOT0_NSt3__19enable_ifIXsr3std19is_lvalue_referenceIS9_EE5valueEPPvE4typeE, symObjAddr: 0x1E500, symBinAddr: 0x10001F89C, symSize: 0x38 }
  - { offsetInCU: 0x789BE, offset: 0x789BE, size: 0x8, addend: 0x0, symName: __ZN2pm6ensureIRNS_4RowsINS_15IncidenceMatrixINS_12NonSymmetricEEEEEJN8polymake5mlistIJNS_13end_sensitiveEEEEEEEDcOT_DpT0_, symObjAddr: 0x1E664, symBinAddr: 0x10001FA00, symSize: 0x14 }
  - { offsetInCU: 0x78A0B, offset: 0x78A0B, size: 0x8, addend: 0x0, symName: __ZN2pm6ensureINS_20same_value_containerIRNS_20IncidenceMatrix_baseINS_12NonSymmetricEEEEEJN8polymake5mlistIJEEEEEEDcOT_DpT0_, symObjAddr: 0x1E7AC, symBinAddr: 0x10001FB48, symSize: 0x14 }
  - { offsetInCU: 0x78A58, offset: 0x78A58, size: 0x8, addend: 0x0, symName: __ZN2pm6ensureINS_6SeriesIlLb1EEEJN8polymake5mlistIJNS_13end_sensitiveEEEEEEEDcOT_DpT0_, symObjAddr: 0x1E80C, symBinAddr: 0x10001FBA8, symSize: 0x14 }
  - { offsetInCU: 0x78AA5, offset: 0x78AA5, size: 0x8, addend: 0x0, symName: __ZN2pm20prepare_iterator_argINS_19same_value_iteratorIRNS_20IncidenceMatrix_baseINS_12NonSymmetricEEEEES6_EEDcRKT0_NSt3__19enable_ifIXsr19is_derived_from_anyIS8_N8polymake10mlist_wrapIJNSD_10mlist_foldINSD_5mlistIJT_NS_15iterator_traitsISH_E8iteratorEEEENSD_28mlist_remove_duplicates_implINSB_7is_sameEE4funcEvE4typeEEE4typeEEE5valueEPPvE4typeE, symObjAddr: 0x1EA20, symBinAddr: 0x10001FDBC, symSize: 0x18 }
  - { offsetInCU: 0x78CDE, offset: 0x78CDE, size: 0x8, addend: 0x0, symName: __ZN2pm8concreteIRNS_14incidence_lineIRNS_3AVL4treeINS_8sparse2d6traitsINS4_11traits_baseINS_7nothingELb1ELb0ELNS4_16restriction_kindE0EEELb0ELS8_0EEEEEEEEEDcOT_, symObjAddr: 0x1EE30, symBinAddr: 0x1000201CC, symSize: 0x14 }
  - { offsetInCU: 0x78D15, offset: 0x78D15, size: 0x8, addend: 0x0, symName: __ZN2pm18retrieve_containerINS_11PlainParserIN8polymake5mlistIJNS_12TrustedValueINSt3__117integral_constantIbLb0EEEEENS_13SeparatorCharINS6_IcLc10EEEEENS_14ClosingBracketINS6_IcLc0EEEEENS_14OpeningBracketISD_EEEEEEENS_14incidence_lineIRNS_3AVL4treeINS_8sparse2d6traitsINSM_11traits_baseINS_7nothingELb1ELb0ELNSM_16restriction_kindE0EEELb0ELSQ_0EEEEEEEEEvRT_RT0_NS_7io_test12by_insertionE, symObjAddr: 0x1EEB4, symBinAddr: 0x100020250, symSize: 0xB8 }
  - { offsetInCU: 0x78D8A, offset: 0x78D8A, size: 0x8, addend: 0x0, symName: __ZN2pm12construct_atINS_8sparse2d5TableINS_7nothingELb0ELNS1_16restriction_kindE0EEEJRKS5_EEEPT_S9_DpOT0_, symObjAddr: 0x1F54C, symBinAddr: 0x1000208E8, symSize: 0x3C }
  - { offsetInCU: 0x78DDB, offset: 0x78DDB, size: 0x8, addend: 0x0, symName: __ZN2pm12construct_atINS_3AVL4treeINS_8sparse2d6traitsINS3_11traits_baseINS_7nothingELb1ELb0ELNS3_16restriction_kindE0EEELb0ELS7_0EEEEEJRKSA_EEEPT_SE_DpOT0_, symObjAddr: 0x1F938, symBinAddr: 0x100020CD4, symSize: 0x34 }
  - { offsetInCU: 0x78E2C, offset: 0x78E2C, size: 0x8, addend: 0x0, symName: __ZN2pm4signIlEENSt3__19enable_ifIXsr3std13is_arithmeticIT_EE5valueElE4typeES3_, symObjAddr: 0x20D6C, symBinAddr: 0x100022108, symSize: 0x24 }
  - { offsetInCU: 0x78E61, offset: 0x78E61, size: 0x8, addend: 0x0, symName: __ZN2pm9sign_implIlEElT_NSt3__117integral_constantIbLb1EEE, symObjAddr: 0x20D90, symBinAddr: 0x10002212C, symSize: 0x54 }
  - { offsetInCU: 0x78EA0, offset: 0x78EA0, size: 0x8, addend: 0x0, symName: __ZN2pm12construct_atINS_3AVL4treeINS_8sparse2d6traitsINS3_11traits_baseINS_7nothingELb0ELb0ELNS3_16restriction_kindE0EEELb0ELS7_0EEEEEJRKSA_EEEPT_SE_DpOT0_, symObjAddr: 0x210AC, symBinAddr: 0x100022448, symSize: 0x34 }
  - { offsetInCU: 0x78F04, offset: 0x78F04, size: 0x8, addend: 0x0, symName: __ZN2pm8concreteIRlEEDcOT_, symObjAddr: 0x238D8, symBinAddr: 0x100024C74, symSize: 0x14 }
  - { offsetInCU: 0x78F3B, offset: 0x78F3B, size: 0x8, addend: 0x0, symName: __ZN2pm20prepare_iterator_argINS_24unary_transform_iteratorINS_3AVL13tree_iteratorINS_8sparse2d9it_traitsINS_7nothingELb1ELb0EEELNS2_10link_indexE1EEENSt3__14pairINS_10BuildUnaryINS4_13cell_accessorEEENS_12BuildUnaryItINS4_19cell_index_accessorEEEEEEES9_EEN8polymake11mproject1stIRKT0_NS_15iterator_traitsISM_E17iterator_categoryEE4typeESO_NSA_9enable_ifIXaantsr19is_derived_from_anyISM_NSK_10mlist_wrapIJNSK_10mlist_foldINSK_5mlistIJT_NSP_ISY_E8iteratorEEEENSK_28mlist_remove_duplicates_implINSA_7is_sameEE4funcEvE4typeEEE4typeEEE5valuesr17can_construct_anyISM_S19_EE5valueEPPvE4typeE, symObjAddr: 0x23AC8, symBinAddr: 0x100024E64, symSize: 0x18 }
  - { offsetInCU: 0x78F86, offset: 0x78F86, size: 0x8, addend: 0x0, symName: __ZN2pm20prepare_iterator_argINS_3AVL13tree_iteratorINS_8sparse2d9it_traitsINS_7nothingELb1ELb0EEELNS1_10link_indexE1EEES8_EEDcRKT0_NSt3__19enable_ifIXsr19is_derived_from_anyISA_N8polymake10mlist_wrapIJNSF_10mlist_foldINSF_5mlistIJT_NS_15iterator_traitsISJ_E8iteratorEEEENSF_28mlist_remove_duplicates_implINSD_7is_sameEE4funcEvE4typeEEE4typeEEE5valueEPPvE4typeE, symObjAddr: 0x23B88, symBinAddr: 0x100024F24, symSize: 0x18 }
  - { offsetInCU: 0x78FD1, offset: 0x78FD1, size: 0x8, addend: 0x0, symName: __ZN2pm8diligentIRKlEEDcOT_NSt3__19enable_ifIXntcl7is_lazyIS4_EEEPPvE4typeE, symObjAddr: 0x24818, symBinAddr: 0x100025BB4, symSize: 0x28 }
  - { offsetInCU: 0x79013, offset: 0x79013, size: 0x8, addend: 0x0, symName: __ZN2pm8concreteIRKlEEDcOT_, symObjAddr: 0x24B80, symBinAddr: 0x100025F1C, symSize: 0x14 }
  - { offsetInCU: 0x7904A, offset: 0x7904A, size: 0x8, addend: 0x0, symName: __ZN2pm12construct_atINS_3AVL4treeINS_8sparse2d6traitsINS3_11traits_baseINS_7nothingELb1ELb0ELNS3_16restriction_kindE2EEELb0ELS7_2EEEEEJRlEEEPT_SD_DpOT0_, symObjAddr: 0x25464, symBinAddr: 0x100026800, symSize: 0x34 }
  - { offsetInCU: 0x7909B, offset: 0x7909B, size: 0x8, addend: 0x0, symName: __ZN2pm6entireIJERNS_4RowsINS_25RestrictedIncidenceMatrixILNS_8sparse2d16restriction_kindE2EEEEEEEDaOT0_NSt3__19enable_ifIXsr3std19is_lvalue_referenceISA_EE5valueEPPvE4typeE, symObjAddr: 0x256C8, symBinAddr: 0x100026A64, symSize: 0x38 }
  - { offsetInCU: 0x790DF, offset: 0x790DF, size: 0x8, addend: 0x0, symName: __ZN2pm6ensureIRNS_4RowsINS_25RestrictedIncidenceMatrixILNS_8sparse2d16restriction_kindE2EEEEEJN8polymake5mlistIJNS_13end_sensitiveEEEEEEEDcOT_DpT0_, symObjAddr: 0x257D4, symBinAddr: 0x100026B70, symSize: 0x14 }
  - { offsetInCU: 0x7912C, offset: 0x7912C, size: 0x8, addend: 0x0, symName: __ZN2pm6ensureIRNS_8sparse2d5rulerINS_3AVL4treeINS1_6traitsINS1_11traits_baseINS_7nothingELb1ELb0ELNS1_16restriction_kindE2EEELb0ELS8_2EEEEENS1_12ruler_prefixEEEJN8polymake5mlistIJNS_13end_sensitiveEEEEEEEDcOT_DpT0_, symObjAddr: 0x25850, symBinAddr: 0x100026BEC, symSize: 0x14 }
  - { offsetInCU: 0x79179, offset: 0x79179, size: 0x8, addend: 0x0, symName: __ZN2pm20prepare_iterator_argINS_14iterator_rangeINS_11ptr_wrapperINS_3AVL4treeINS_8sparse2d6traitsINS5_11traits_baseINS_7nothingELb1ELb0ELNS5_16restriction_kindE2EEELb0ELS9_2EEEEELb0EEEEESE_EEDcRKT0_NSt3__19enable_ifIXsr19is_derived_from_anyISG_N8polymake10mlist_wrapIJNSL_10mlist_foldINSL_5mlistIJT_NS_15iterator_traitsISP_E8iteratorEEEENSL_28mlist_remove_duplicates_implINSJ_7is_sameEE4funcEvE4typeEEE4typeEEE5valueEPPvE4typeE, symObjAddr: 0x25C2C, symBinAddr: 0x100026FC8, symSize: 0x18 }
  - { offsetInCU: 0x792C9, offset: 0x792C9, size: 0x8, addend: 0x0, symName: __ZN2pm8concreteIRNS_14incidence_lineINS_3AVL4treeINS_8sparse2d6traitsINS4_11traits_baseINS_7nothingELb1ELb0ELNS4_16restriction_kindE2EEELb0ELS8_2EEEEEEEEEDcOT_, symObjAddr: 0x25E44, symBinAddr: 0x1000271E0, symSize: 0x14 }
  - { offsetInCU: 0x79300, offset: 0x79300, size: 0x8, addend: 0x0, symName: __ZN2pm18retrieve_containerINS_11PlainParserIN8polymake5mlistIJNS_12TrustedValueINSt3__117integral_constantIbLb0EEEEENS_13SeparatorCharINS6_IcLc10EEEEENS_14ClosingBracketINS6_IcLc0EEEEENS_14OpeningBracketISD_EEEEEEENS_14incidence_lineINS_3AVL4treeINS_8sparse2d6traitsINSM_11traits_baseINS_7nothingELb1ELb0ELNSM_16restriction_kindE2EEELb0ELSQ_2EEEEEEEEEvRT_RT0_NS_7io_test12by_insertionE, symObjAddr: 0x25EB4, symBinAddr: 0x100027250, symSize: 0xB8 }
  - { offsetInCU: 0x79375, offset: 0x79375, size: 0x8, addend: 0x0, symName: __ZN2pm6unwaryIRNS_25RestrictedIncidenceMatrixILNS_8sparse2d16restriction_kindE2EEEEEDcOT_NSt3__19enable_ifIXntcl7is_waryIS7_EEEPPvE4typeE, symObjAddr: 0x2765C, symBinAddr: 0x1000289F8, symSize: 0x28 }
  - { offsetInCU: 0x793B4, offset: 0x793B4, size: 0x8, addend: 0x0, symName: __ZN2pm8concreteIRNS_25RestrictedIncidenceMatrixILNS_8sparse2d16restriction_kindE2EEEEEDcOT_, symObjAddr: 0x27684, symBinAddr: 0x100028A20, symSize: 0x14 }
  - { offsetInCU: 0x793EB, offset: 0x793EB, size: 0x8, addend: 0x0, symName: __ZN2pm12construct_atINS_8sparse2d5TableINS_7nothingELb0ELNS1_16restriction_kindE0EEEJNS2_IS3_Lb0ELS4_2EEEEEEPT_S8_DpOT0_, symObjAddr: 0x277F8, symBinAddr: 0x100028B94, symSize: 0x34 }
  - { offsetInCU: 0x7943C, offset: 0x7943C, size: 0x8, addend: 0x0, symName: __ZN2pm6entireIJERNS_8sparse2d5rulerINS_3AVL4treeINS1_6traitsINS1_11traits_baseINS_7nothingELb1ELb0ELNS1_16restriction_kindE0EEELb0ELS8_0EEEEENS1_12ruler_prefixEEEEEDaOT0_NSt3__19enable_ifIXsr3std19is_lvalue_referenceISH_EE5valueEPPvE4typeE, symObjAddr: 0x279CC, symBinAddr: 0x100028D68, symSize: 0x38 }
  - { offsetInCU: 0x79480, offset: 0x79480, size: 0x8, addend: 0x0, symName: __ZN2pm6ensureIRNS_8sparse2d5rulerINS_3AVL4treeINS1_6traitsINS1_11traits_baseINS_7nothingELb1ELb0ELNS1_16restriction_kindE0EEELb0ELS8_0EEEEENS1_12ruler_prefixEEEJN8polymake5mlistIJNS_13end_sensitiveEEEEEEEDcOT_DpT0_, symObjAddr: 0x27BA4, symBinAddr: 0x100028F40, symSize: 0x14 }
  - { offsetInCU: 0x794CD, offset: 0x794CD, size: 0x8, addend: 0x0, symName: __ZN2pm10destroy_atINS_3AVL4treeINS_8sparse2d6traitsINS3_11traits_baseINS_7nothingELb1ELb0ELNS3_16restriction_kindE2EEELb0ELS7_2EEEEEEEvPT_, symObjAddr: 0x2821C, symBinAddr: 0x1000295B8, symSize: 0x24 }
  - { offsetInCU: 0x79500, offset: 0x79500, size: 0x8, addend: 0x0, symName: __ZN2pm18retrieve_containerINS_11PlainParserIN8polymake5mlistIJEEEEENS_15IncidenceMatrixINS_12NonSymmetricEEEEEvRT_RT0_NS_7io_test9as_matrixILi2EEE, symObjAddr: 0x28A54, symBinAddr: 0x100029DF0, symSize: 0x98 }
  - { offsetInCU: 0x79565, offset: 0x79565, size: 0x8, addend: 0x0, symName: __ZN2pm22resize_and_fill_matrixINS_21PlainParserListCursorINS_14incidence_lineIRNS_3AVL4treeINS_8sparse2d6traitsINS5_11traits_baseINS_7nothingELb1ELb0ELNS5_16restriction_kindE0EEELb0ELS9_0EEEEEEEN8polymake5mlistIJNS_13SeparatorCharINSt3__117integral_constantIcLc10EEEEENS_14ClosingBracketINSJ_IcLc0EEEEENS_14OpeningBracketISN_EEEEEEENS_15IncidenceMatrixINS_12NonSymmetricEEEEEvRT_RT0_lNSJ_IiLi0EEE, symObjAddr: 0x28B2C, symBinAddr: 0x100029EC8, symSize: 0xF0 }
  - { offsetInCU: 0x795EF, offset: 0x795EF, size: 0x8, addend: 0x0, symName: __ZN2pm21fill_dense_from_denseINS_21PlainParserListCursorINS_14incidence_lineIRNS_3AVL4treeINS_8sparse2d6traitsINS5_11traits_baseINS_7nothingELb1ELb0ELNS5_16restriction_kindE0EEELb0ELS9_0EEEEEEEN8polymake5mlistIJNS_13SeparatorCharINSt3__117integral_constantIcLc10EEEEENS_14ClosingBracketINSJ_IcLc0EEEEENS_14OpeningBracketISN_EEEEEEENS_4RowsINS_15IncidenceMatrixINS_12NonSymmetricEEEEEEEvRT_RT0_, symObjAddr: 0x28DD0, symBinAddr: 0x10002A16C, symSize: 0xE4 }
  - { offsetInCU: 0x79667, offset: 0x79667, size: 0x8, addend: 0x0, symName: __ZN2pm21fill_dense_from_denseINS_21PlainParserListCursorINS_14incidence_lineIRNS_3AVL4treeINS_8sparse2d6traitsINS5_11traits_baseINS_7nothingELb1ELb0ELNS5_16restriction_kindE0EEELb0ELS9_0EEEEEEEN8polymake5mlistIJNS_13SeparatorCharINSt3__117integral_constantIcLc10EEEEENS_14ClosingBracketINSJ_IcLc0EEEEENS_14OpeningBracketISN_EEEEEEENS_4RowsINS_25RestrictedIncidenceMatrixILS9_2EEEEEEEvRT_RT0_, symObjAddr: 0x28EB4, symBinAddr: 0x10002A250, symSize: 0x74 }
  - { offsetInCU: 0x796EE, offset: 0x796EE, size: 0x8, addend: 0x0, symName: __ZN2pm18retrieve_containerINS_11PlainParserIN8polymake5mlistIJNS_13SeparatorCharINSt3__117integral_constantIcLc10EEEEENS_14ClosingBracketINS6_IcLc0EEEEENS_14OpeningBracketISA_EEEEEEENS_14incidence_lineIRNS_3AVL4treeINS_8sparse2d6traitsINSJ_11traits_baseINS_7nothingELb1ELb0ELNSJ_16restriction_kindE0EEELb0ELSN_0EEEEEEEEEvRT_RT0_NS_7io_test6as_setE, symObjAddr: 0x29590, symBinAddr: 0x10002A92C, symSize: 0xCC }
  - { offsetInCU: 0x79772, offset: 0x79772, size: 0x8, addend: 0x0, symName: __ZN2pm6ensureIRNS_8sparse2d4lineINS_3AVL4treeINS1_6traitsINS1_11traits_baseINS_7nothingELb1ELb0ELNS1_16restriction_kindE0EEELb0ELS8_0EEEEEEEJN8polymake5mlistIJEEEEEEDcOT_DpT0_, symObjAddr: 0x298FC, symBinAddr: 0x10002AC98, symSize: 0x14 }
  - { offsetInCU: 0x797BF, offset: 0x797BF, size: 0x8, addend: 0x0, symName: __ZN2pm6ensureIRNS_3AVL4treeINS_8sparse2d6traitsINS3_11traits_baseINS_7nothingELb1ELb0ELNS3_16restriction_kindE0EEELb0ELS7_0EEEEEJN8polymake5mlistIJEEEEEEDcOT_DpT0_, symObjAddr: 0x299B4, symBinAddr: 0x10002AD50, symSize: 0x14 }
  - { offsetInCU: 0x7980C, offset: 0x7980C, size: 0x8, addend: 0x0, symName: __ZN2pm20prepare_iterator_argINS_24unary_transform_iteratorINS_3AVL13tree_iteratorINS_8sparse2d9it_traitsINS_7nothingELb1ELb0EEELNS2_10link_indexE1EEENSt3__14pairINS_10BuildUnaryINS4_13cell_accessorEEENS_12BuildUnaryItINS4_19cell_index_accessorEEEEEEESJ_EEDcRKT0_NSA_9enable_ifIXsr19is_derived_from_anyISL_N8polymake10mlist_wrapIJNSP_10mlist_foldINSP_5mlistIJT_NS_15iterator_traitsIST_E8iteratorEEEENSP_28mlist_remove_duplicates_implINSA_7is_sameEE4funcEvE4typeEEE4typeEEE5valueEPPvE4typeE, symObjAddr: 0x29A6C, symBinAddr: 0x10002AE08, symSize: 0x18 }
  - { offsetInCU: 0x79857, offset: 0x79857, size: 0x8, addend: 0x0, symName: __ZN2pm18retrieve_containerINS_11PlainParserIN8polymake5mlistIJNS_13SeparatorCharINSt3__117integral_constantIcLc10EEEEENS_14ClosingBracketINS6_IcLc0EEEEENS_14OpeningBracketISA_EEEEEEENS_14incidence_lineINS_3AVL4treeINS_8sparse2d6traitsINSJ_11traits_baseINS_7nothingELb1ELb0ELNSJ_16restriction_kindE2EEELb0ELSN_2EEEEEEEEEvRT_RT0_NS_7io_test6as_setE, symObjAddr: 0x29F08, symBinAddr: 0x10002B2A4, symSize: 0xCC }
  - { offsetInCU: 0x798DB, offset: 0x798DB, size: 0x8, addend: 0x0, symName: __ZN2pm6ensureIRNS_8sparse2d4lineINS_3AVL4treeINS1_6traitsINS1_11traits_baseINS_7nothingELb1ELb0ELNS1_16restriction_kindE2EEELb0ELS8_2EEEEEEEJN8polymake5mlistIJEEEEEEDcOT_DpT0_, symObjAddr: 0x2A0D4, symBinAddr: 0x10002B470, symSize: 0x14 }
  - { offsetInCU: 0x79928, offset: 0x79928, size: 0x8, addend: 0x0, symName: __ZN2pm6ensureIRNS_3AVL4treeINS_8sparse2d6traitsINS3_11traits_baseINS_7nothingELb1ELb0ELNS3_16restriction_kindE2EEELb0ELS7_2EEEEEJN8polymake5mlistIJEEEEEEDcOT_DpT0_, symObjAddr: 0x2A150, symBinAddr: 0x10002B4EC, symSize: 0x14 }
  - { offsetInCU: 0x79975, offset: 0x79975, size: 0x8, addend: 0x0, symName: __ZN2pm18retrieve_containerINS_4perl10ValueInputIN8polymake5mlistIJNS_12TrustedValueINSt3__117integral_constantIbLb0EEEEEEEEEENS_15IncidenceMatrixINS_12NonSymmetricEEEEEvRT_RT0_NS_7io_test9as_matrixILi2EEE, symObjAddr: 0x2A944, symBinAddr: 0x10002BCE0, symSize: 0x110 }
  - { offsetInCU: 0x799DA, offset: 0x799DA, size: 0x8, addend: 0x0, symName: __ZN2pm22resize_and_fill_matrixINS_4perl14ListValueInputINS_14incidence_lineIRNS_3AVL4treeINS_8sparse2d6traitsINS6_11traits_baseINS_7nothingELb1ELb0ELNS6_16restriction_kindE0EEELb0ELSA_0EEEEEEEN8polymake5mlistIJNS_12TrustedValueINSt3__117integral_constantIbLb0EEEEEEEEEENS_15IncidenceMatrixINS_12NonSymmetricEEEEEvRT_RT0_lNSK_IiLi0EEE, symObjAddr: 0x2AAB0, symBinAddr: 0x10002BE4C, symSize: 0xF0 }
  - { offsetInCU: 0x79A64, offset: 0x79A64, size: 0x8, addend: 0x0, symName: __ZN2pm21fill_dense_from_denseINS_4perl14ListValueInputINS_14incidence_lineIRNS_3AVL4treeINS_8sparse2d6traitsINS6_11traits_baseINS_7nothingELb1ELb0ELNS6_16restriction_kindE0EEELb0ELSA_0EEEEEEEN8polymake5mlistIJNS_12TrustedValueINSt3__117integral_constantIbLb0EEEEEEEEEENS_4RowsINS_15IncidenceMatrixINS_12NonSymmetricEEEEEEEvRT_RT0_, symObjAddr: 0x2AD08, symBinAddr: 0x10002C0A4, symSize: 0xE4 }
  - { offsetInCU: 0x79ADC, offset: 0x79ADC, size: 0x8, addend: 0x0, symName: __ZN2pm21fill_dense_from_denseINS_4perl14ListValueInputINS_14incidence_lineIRNS_3AVL4treeINS_8sparse2d6traitsINS6_11traits_baseINS_7nothingELb1ELb0ELNS6_16restriction_kindE0EEELb0ELSA_0EEEEEEEN8polymake5mlistIJNS_12TrustedValueINSt3__117integral_constantIbLb0EEEEEEEEEENS_4RowsINS_25RestrictedIncidenceMatrixILSA_2EEEEEEEvRT_RT0_, symObjAddr: 0x2ADEC, symBinAddr: 0x10002C188, symSize: 0x74 }
  - { offsetInCU: 0x79B72, offset: 0x79B72, size: 0x8, addend: 0x0, symName: __ZN2pm10maybe_waryINS_14incidence_lineIRNS_3AVL4treeINS_8sparse2d6traitsINS4_11traits_baseINS_7nothingELb1ELb0ELNS4_16restriction_kindE0EEELb0ELS8_0EEEEEEEEENSt3__19enable_ifIXsr9MaybeWaryIT_EE5valueERNS_4WaryISG_EEE4typeERSG_, symObjAddr: 0x2BFC4, symBinAddr: 0x10002D360, symSize: 0x24 }
  - { offsetInCU: 0x79BA7, offset: 0x79BA7, size: 0x8, addend: 0x0, symName: __ZN2pm4waryIRNS_14incidence_lineIRNS_3AVL4treeINS_8sparse2d6traitsINS4_11traits_baseINS_7nothingELb1ELb0ELNS4_16restriction_kindE0EEELb0ELS8_0EEEEEEEEEDcOT_, symObjAddr: 0x2C158, symBinAddr: 0x10002D4F4, symSize: 0x14 }
  - { offsetInCU: 0x79C6F, offset: 0x79C6F, size: 0x8, addend: 0x0, symName: __ZN2pm6entireIJERNS_14incidence_lineIRNS_3AVL4treeINS_8sparse2d6traitsINS4_11traits_baseINS_7nothingELb1ELb0ELNS4_16restriction_kindE0EEELb0ELS8_0EEEEEEEEEDaOT0_NSt3__19enable_ifIXsr3std19is_lvalue_referenceISH_EE5valueEPPvE4typeE, symObjAddr: 0x2C520, symBinAddr: 0x10002D8BC, symSize: 0x38 }
  - { offsetInCU: 0x79CB3, offset: 0x79CB3, size: 0x8, addend: 0x0, symName: __ZN2pm6entireIJERKNS_14incidence_lineIRNS_3AVL4treeINS_8sparse2d6traitsINS4_11traits_baseINS_7nothingELb1ELb0ELNS4_16restriction_kindE0EEELb0ELS8_0EEEEEEEEEDaOT0_NSt3__19enable_ifIXsr3std19is_lvalue_referenceISI_EE5valueEPPvE4typeE, symObjAddr: 0x2C558, symBinAddr: 0x10002D8F4, symSize: 0x34 }
  - { offsetInCU: 0x79CF7, offset: 0x79CF7, size: 0x8, addend: 0x0, symName: __ZN2pm6ensureIRNS_14incidence_lineIRNS_3AVL4treeINS_8sparse2d6traitsINS4_11traits_baseINS_7nothingELb1ELb0ELNS4_16restriction_kindE0EEELb0ELS8_0EEEEEEEJN8polymake5mlistIJNS_13end_sensitiveEEEEEEEDcOT_DpT0_, symObjAddr: 0x2C8B0, symBinAddr: 0x10002DC4C, symSize: 0x14 }
  - { offsetInCU: 0x79D44, offset: 0x79D44, size: 0x8, addend: 0x0, symName: __ZN2pm6ensureIRKNS_14incidence_lineIRNS_3AVL4treeINS_8sparse2d6traitsINS4_11traits_baseINS_7nothingELb1ELb0ELNS4_16restriction_kindE0EEELb0ELS8_0EEEEEEEJN8polymake5mlistIJNS_13end_sensitiveEEEEEEEDcOT_DpT0_, symObjAddr: 0x2C98C, symBinAddr: 0x10002DD28, symSize: 0x14 }
  - { offsetInCU: 0x79D91, offset: 0x79D91, size: 0x8, addend: 0x0, symName: __ZN2pm6ensureIRKNS_8sparse2d4lineINS_3AVL4treeINS1_6traitsINS1_11traits_baseINS_7nothingELb1ELb0ELNS1_16restriction_kindE0EEELb0ELS8_0EEEEEEEJN8polymake5mlistIJEEEEEEDcOT_DpT0_, symObjAddr: 0x2C9FC, symBinAddr: 0x10002DD98, symSize: 0x14 }
  - { offsetInCU: 0x79DDE, offset: 0x79DDE, size: 0x8, addend: 0x0, symName: __ZN2pm6ensureIRKNS_3AVL4treeINS_8sparse2d6traitsINS3_11traits_baseINS_7nothingELb1ELb0ELNS3_16restriction_kindE0EEELb0ELS7_0EEEEEJN8polymake5mlistIJEEEEEEDcOT_DpT0_, symObjAddr: 0x2CABC, symBinAddr: 0x10002DE58, symSize: 0x14 }
  - { offsetInCU: 0x79E2B, offset: 0x79E2B, size: 0x8, addend: 0x0, symName: __ZN2pm20prepare_iterator_argINS_3AVL13tree_iteratorIKNS_8sparse2d9it_traitsINS_7nothingELb1ELb0EEELNS1_10link_indexE1EEES9_EEDcRKT0_NSt3__19enable_ifIXsr19is_derived_from_anyISB_N8polymake10mlist_wrapIJNSG_10mlist_foldINSG_5mlistIJT_NS_15iterator_traitsISK_E8iteratorEEEENSG_28mlist_remove_duplicates_implINSE_7is_sameEE4funcEvE4typeEEE4typeEEE5valueEPPvE4typeE, symObjAddr: 0x2CC1C, symBinAddr: 0x10002DFB8, symSize: 0x18 }
  - { offsetInCU: 0x79E76, offset: 0x79E76, size: 0x8, addend: 0x0, symName: __ZN2pm20prepare_iterator_argINS_24unary_transform_iteratorINS_3AVL13tree_iteratorIKNS_8sparse2d9it_traitsINS_7nothingELb1ELb0EEELNS2_10link_indexE1EEENSt3__14pairINS_10BuildUnaryINS4_13cell_accessorEEENS_12BuildUnaryItINS4_19cell_index_accessorEEEEEEESK_EEDcRKT0_NSB_9enable_ifIXsr19is_derived_from_anyISM_N8polymake10mlist_wrapIJNSQ_10mlist_foldINSQ_5mlistIJT_NS_15iterator_traitsISU_E8iteratorEEEENSQ_28mlist_remove_duplicates_implINSB_7is_sameEE4funcEvE4typeEEE4typeEEE5valueEPPvE4typeE, symObjAddr: 0x2CD2C, symBinAddr: 0x10002E0C8, symSize: 0x18 }
  - { offsetInCU: 0x7A2D5, offset: 0x7A2D5, size: 0x8, addend: 0x0, symName: __ZN2pm12min_value_asIdlEENSt3__19enable_ifIXsr3std13is_arithmeticIT0_EE5valueET_E4typeEN8polymake5mlistIJS3_EEE, symObjAddr: 0x2EF7C, symBinAddr: 0x100030318, symSize: 0x20 }
  - { offsetInCU: 0x7A30F, offset: 0x7A30F, size: 0x8, addend: 0x0, symName: __ZN2pm12max_value_asIdlEENSt3__19enable_ifIXsr3std13is_arithmeticIT0_EE5valueET_E4typeEN8polymake5mlistIJS3_EEE, symObjAddr: 0x2EF9C, symBinAddr: 0x100030338, symSize: 0x20 }
  - { offsetInCU: 0x7A37A, offset: 0x7A37A, size: 0x8, addend: 0x0, symName: __ZN2pm8concreteIRKNS_14incidence_lineIRNS_3AVL4treeINS_8sparse2d6traitsINS4_11traits_baseINS_7nothingELb1ELb0ELNS4_16restriction_kindE0EEELb0ELS8_0EEEEEEEEEDcOT_, symObjAddr: 0x2F84C, symBinAddr: 0x100030BE8, symSize: 0x14 }
  - { offsetInCU: 0x7A3B1, offset: 0x7A3B1, size: 0x8, addend: 0x0, symName: __ZN2pm6entireIJNS_5denseEERKNS_14incidence_lineIRNS_3AVL4treeINS_8sparse2d6traitsINS5_11traits_baseINS_7nothingELb1ELb0ELNS5_16restriction_kindE0EEELb0ELS9_0EEEEEEEEEDaOT0_NSt3__19enable_ifIXsr3std19is_lvalue_referenceISJ_EE5valueEPPvE4typeE, symObjAddr: 0x2FA1C, symBinAddr: 0x100030DB8, symSize: 0x34 }
  - { offsetInCU: 0x7A3FB, offset: 0x7A3FB, size: 0x8, addend: 0x0, symName: __ZN2pm6ensureIRKNS_14incidence_lineIRNS_3AVL4treeINS_8sparse2d6traitsINS4_11traits_baseINS_7nothingELb1ELb0ELNS4_16restriction_kindE0EEELb0ELS8_0EEEEEEEJN8polymake5mlistIJNS_5denseENS_13end_sensitiveEEEEEEEDcOT_DpT0_, symObjAddr: 0x2FCA0, symBinAddr: 0x10003103C, symSize: 0x14 }
  - { offsetInCU: 0x7A448, offset: 0x7A448, size: 0x8, addend: 0x0, symName: __ZN2pm7get_dimINS_8sparse2d4lineINS_3AVL4treeINS1_6traitsINS1_11traits_baseINS_7nothingELb1ELb0ELNS1_16restriction_kindE0EEELb0ELS8_0EEEEEEEEENSt3__19enable_ifIXsr23check_container_featureIT_NS_17sparse_compatibleEEE5valueElE4typeERKSF_, symObjAddr: 0x2FFB0, symBinAddr: 0x10003134C, symSize: 0x24 }
  - { offsetInCU: 0x7A47F, offset: 0x7A47F, size: 0x8, addend: 0x0, symName: __ZN2pm6ensureIRNS_14incidence_lineIRNS_3AVL4treeINS_8sparse2d6traitsINS4_11traits_baseINS_7nothingELb1ELb0ELNS4_16restriction_kindE0EEELb0ELS8_0EEEEEEEJN8polymake5mlistIJEEEEEEDcOT_DpT0_, symObjAddr: 0x3026C, symBinAddr: 0x100031608, symSize: 0x14 }
  - { offsetInCU: 0x7A4CC, offset: 0x7A4CC, size: 0x8, addend: 0x0, symName: __ZN2pm6ensureIRKNS_14incidence_lineIRNS_3AVL4treeINS_8sparse2d6traitsINS4_11traits_baseINS_7nothingELb1ELb0ELNS4_16restriction_kindE0EEELb0ELS8_0EEEEEEEJN8polymake5mlistIJEEEEEEDcOT_DpT0_, symObjAddr: 0x302C4, symBinAddr: 0x100031660, symSize: 0x14 }
  - { offsetInCU: 0x7A519, offset: 0x7A519, size: 0x8, addend: 0x0, symName: __ZN2pm20prepare_iterator_argINS_3AVL13tree_iteratorINS_8sparse2d9it_traitsINS_7nothingELb1ELb0EEELNS1_10link_indexEn1EEES8_EEDcRKT0_NSt3__19enable_ifIXsr19is_derived_from_anyISA_N8polymake10mlist_wrapIJNSF_10mlist_foldINSF_5mlistIJT_NS_15iterator_traitsISJ_E8iteratorEEEENSF_28mlist_remove_duplicates_implINSD_7is_sameEE4funcEvE4typeEEE4typeEEE5valueEPPvE4typeE, symObjAddr: 0x306F0, symBinAddr: 0x100031A8C, symSize: 0x18 }
  - { offsetInCU: 0x7A564, offset: 0x7A564, size: 0x8, addend: 0x0, symName: __ZN2pm20prepare_iterator_argINS_24unary_transform_iteratorINS_3AVL13tree_iteratorINS_8sparse2d9it_traitsINS_7nothingELb1ELb0EEELNS2_10link_indexEn1EEENSt3__14pairINS_10BuildUnaryINS4_13cell_accessorEEENS_12BuildUnaryItINS4_19cell_index_accessorEEEEEEESJ_EEDcRKT0_NSA_9enable_ifIXsr19is_derived_from_anyISL_N8polymake10mlist_wrapIJNSP_10mlist_foldINSP_5mlistIJT_NS_15iterator_traitsIST_E8iteratorEEEENSP_28mlist_remove_duplicates_implINSA_7is_sameEE4funcEvE4typeEEE4typeEEE5valueEPPvE4typeE, symObjAddr: 0x3081C, symBinAddr: 0x100031BB8, symSize: 0x18 }
  - { offsetInCU: 0x7A5AF, offset: 0x7A5AF, size: 0x8, addend: 0x0, symName: __ZN2pm20prepare_iterator_argINS_3AVL13tree_iteratorIKNS_8sparse2d9it_traitsINS_7nothingELb1ELb0EEELNS1_10link_indexEn1EEES9_EEDcRKT0_NSt3__19enable_ifIXsr19is_derived_from_anyISB_N8polymake10mlist_wrapIJNSG_10mlist_foldINSG_5mlistIJT_NS_15iterator_traitsISK_E8iteratorEEEENSG_28mlist_remove_duplicates_implINSE_7is_sameEE4funcEvE4typeEEE4typeEEE5valueEPPvE4typeE, symObjAddr: 0x30BB8, symBinAddr: 0x100031F54, symSize: 0x18 }
  - { offsetInCU: 0x7A5FA, offset: 0x7A5FA, size: 0x8, addend: 0x0, symName: __ZN2pm20prepare_iterator_argINS_24unary_transform_iteratorINS_3AVL13tree_iteratorIKNS_8sparse2d9it_traitsINS_7nothingELb1ELb0EEELNS2_10link_indexEn1EEENSt3__14pairINS_10BuildUnaryINS4_13cell_accessorEEENS_12BuildUnaryItINS4_19cell_index_accessorEEEEEEESK_EEDcRKT0_NSB_9enable_ifIXsr19is_derived_from_anyISM_N8polymake10mlist_wrapIJNSQ_10mlist_foldINSQ_5mlistIJT_NS_15iterator_traitsISU_E8iteratorEEEENSQ_28mlist_remove_duplicates_implINSB_7is_sameEE4funcEvE4typeEEE4typeEEE5valueEPPvE4typeE, symObjAddr: 0x30CB8, symBinAddr: 0x100032054, symSize: 0x18 }
  - { offsetInCU: 0x7AA97, offset: 0x7AA97, size: 0x8, addend: 0x0, symName: __ZN2pm18retrieve_containerINS_11PlainParserIN8polymake5mlistIJNS_12TrustedValueINSt3__117integral_constantIbLb0EEEEEEEEEENS_14incidence_lineIRNS_3AVL4treeINS_8sparse2d6traitsINSE_11traits_baseINS_7nothingELb1ELb0ELNSE_16restriction_kindE0EEELb0ELSI_0EEEEEEEEEvRT_RT0_NS_7io_test12by_insertionE, symObjAddr: 0x31914, symBinAddr: 0x100032CB0, symSize: 0xB8 }
  - { offsetInCU: 0x7AB0C, offset: 0x7AB0C, size: 0x8, addend: 0x0, symName: __ZN2pm18retrieve_containerINS_11PlainParserIN8polymake5mlistIJEEEEENS_14incidence_lineIRNS_3AVL4treeINS_8sparse2d6traitsINS9_11traits_baseINS_7nothingELb1ELb0ELNS9_16restriction_kindE0EEELb0ELSD_0EEEEEEEEEvRT_RT0_NS_7io_test6as_setE, symObjAddr: 0x31A98, symBinAddr: 0x100032E34, symSize: 0xCC }
  - { offsetInCU: 0x7AB90, offset: 0x7AB90, size: 0x8, addend: 0x0, symName: __ZN2pm18retrieve_containerINS_4perl10ValueInputIN8polymake5mlistIJNS_12TrustedValueINSt3__117integral_constantIbLb0EEEEEEEEEENS_14incidence_lineIRNS_3AVL4treeINS_8sparse2d6traitsINSF_11traits_baseINS_7nothingELb1ELb0ELNSF_16restriction_kindE0EEELb0ELSJ_0EEEEEEEEEvRT_RT0_NS_7io_test12by_insertionE, symObjAddr: 0x31C74, symBinAddr: 0x100033010, symSize: 0xAC }
  - { offsetInCU: 0x7AC04, offset: 0x7AC04, size: 0x8, addend: 0x0, symName: __ZN2pm18retrieve_containerINS_4perl10ValueInputIN8polymake5mlistIJEEEEENS_14incidence_lineIRNS_3AVL4treeINS_8sparse2d6traitsINSA_11traits_baseINS_7nothingELb1ELb0ELNSA_16restriction_kindE0EEELb0ELSE_0EEEEEEEEEvRT_RT0_NS_7io_test6as_setE, symObjAddr: 0x32004, symBinAddr: 0x1000333A0, symSize: 0xC0 }
  - { offsetInCU: 0x7AC88, offset: 0x7AC88, size: 0x8, addend: 0x0, symName: __ZN2pm10maybe_waryINS_14incidence_lineINS_3AVL4treeINS_8sparse2d6traitsINS4_11traits_baseINS_7nothingELb1ELb0ELNS4_16restriction_kindE2EEELb0ELS8_2EEEEEEEEENSt3__19enable_ifIXsr9MaybeWaryIT_EE5valueERNS_4WaryISF_EEE4typeERSF_, symObjAddr: 0x32820, symBinAddr: 0x100033BBC, symSize: 0x24 }
  - { offsetInCU: 0x7ACBD, offset: 0x7ACBD, size: 0x8, addend: 0x0, symName: __ZN2pm4waryIRNS_14incidence_lineINS_3AVL4treeINS_8sparse2d6traitsINS4_11traits_baseINS_7nothingELb1ELb0ELNS4_16restriction_kindE2EEELb0ELS8_2EEEEEEEEEDcOT_, symObjAddr: 0x329B4, symBinAddr: 0x100033D50, symSize: 0x14 }
  - { offsetInCU: 0x7ACF2, offset: 0x7ACF2, size: 0x8, addend: 0x0, symName: __ZN2pm6entireIJERNS_14incidence_lineINS_3AVL4treeINS_8sparse2d6traitsINS4_11traits_baseINS_7nothingELb1ELb0ELNS4_16restriction_kindE2EEELb0ELS8_2EEEEEEEEEDaOT0_NSt3__19enable_ifIXsr3std19is_lvalue_referenceISG_EE5valueEPPvE4typeE, symObjAddr: 0x32D7C, symBinAddr: 0x100034118, symSize: 0x38 }
  - { offsetInCU: 0x7AD36, offset: 0x7AD36, size: 0x8, addend: 0x0, symName: __ZN2pm6entireIJERKNS_14incidence_lineINS_3AVL4treeINS_8sparse2d6traitsINS4_11traits_baseINS_7nothingELb1ELb0ELNS4_16restriction_kindE2EEELb0ELS8_2EEEEEEEEEDaOT0_NSt3__19enable_ifIXsr3std19is_lvalue_referenceISH_EE5valueEPPvE4typeE, symObjAddr: 0x32DB4, symBinAddr: 0x100034150, symSize: 0x34 }
  - { offsetInCU: 0x7AD7A, offset: 0x7AD7A, size: 0x8, addend: 0x0, symName: __ZN2pm6ensureIRNS_14incidence_lineINS_3AVL4treeINS_8sparse2d6traitsINS4_11traits_baseINS_7nothingELb1ELb0ELNS4_16restriction_kindE2EEELb0ELS8_2EEEEEEEJN8polymake5mlistIJNS_13end_sensitiveEEEEEEEDcOT_DpT0_, symObjAddr: 0x32F44, symBinAddr: 0x1000342E0, symSize: 0x14 }
  - { offsetInCU: 0x7ADC7, offset: 0x7ADC7, size: 0x8, addend: 0x0, symName: __ZN2pm6ensureIRKNS_14incidence_lineINS_3AVL4treeINS_8sparse2d6traitsINS4_11traits_baseINS_7nothingELb1ELb0ELNS4_16restriction_kindE2EEELb0ELS8_2EEEEEEEJN8polymake5mlistIJNS_13end_sensitiveEEEEEEEDcOT_DpT0_, symObjAddr: 0x33078, symBinAddr: 0x100034414, symSize: 0x14 }
  - { offsetInCU: 0x7AE14, offset: 0x7AE14, size: 0x8, addend: 0x0, symName: __ZN2pm6ensureIRKNS_8sparse2d4lineINS_3AVL4treeINS1_6traitsINS1_11traits_baseINS_7nothingELb1ELb0ELNS1_16restriction_kindE2EEELb0ELS8_2EEEEEEEJN8polymake5mlistIJEEEEEEDcOT_DpT0_, symObjAddr: 0x330E8, symBinAddr: 0x100034484, symSize: 0x14 }
  - { offsetInCU: 0x7AE61, offset: 0x7AE61, size: 0x8, addend: 0x0, symName: __ZN2pm6ensureIRKNS_3AVL4treeINS_8sparse2d6traitsINS3_11traits_baseINS_7nothingELb1ELb0ELNS3_16restriction_kindE2EEELb0ELS7_2EEEEEJN8polymake5mlistIJEEEEEEDcOT_DpT0_, symObjAddr: 0x3316C, symBinAddr: 0x100034508, symSize: 0x14 }
  - { offsetInCU: 0x7AEDF, offset: 0x7AEDF, size: 0x8, addend: 0x0, symName: __ZN2pm8concreteIRKNS_14incidence_lineINS_3AVL4treeINS_8sparse2d6traitsINS4_11traits_baseINS_7nothingELb1ELb0ELNS4_16restriction_kindE2EEELb0ELS8_2EEEEEEEEEDcOT_, symObjAddr: 0x34984, symBinAddr: 0x100035D20, symSize: 0x14 }
  - { offsetInCU: 0x7AF16, offset: 0x7AF16, size: 0x8, addend: 0x0, symName: __ZN2pm6entireIJNS_5denseEERKNS_14incidence_lineINS_3AVL4treeINS_8sparse2d6traitsINS5_11traits_baseINS_7nothingELb1ELb0ELNS5_16restriction_kindE2EEELb0ELS9_2EEEEEEEEEDaOT0_NSt3__19enable_ifIXsr3std19is_lvalue_referenceISI_EE5valueEPPvE4typeE, symObjAddr: 0x34B54, symBinAddr: 0x100035EF0, symSize: 0x34 }
  - { offsetInCU: 0x7AF60, offset: 0x7AF60, size: 0x8, addend: 0x0, symName: __ZN2pm6ensureIRKNS_14incidence_lineINS_3AVL4treeINS_8sparse2d6traitsINS4_11traits_baseINS_7nothingELb1ELb0ELNS4_16restriction_kindE2EEELb0ELS8_2EEEEEEEJN8polymake5mlistIJNS_5denseENS_13end_sensitiveEEEEEEEDcOT_DpT0_, symObjAddr: 0x34B88, symBinAddr: 0x100035F24, symSize: 0x14 }
  - { offsetInCU: 0x7AFAD, offset: 0x7AFAD, size: 0x8, addend: 0x0, symName: __ZN2pm7get_dimINS_8sparse2d4lineINS_3AVL4treeINS1_6traitsINS1_11traits_baseINS_7nothingELb1ELb0ELNS1_16restriction_kindE2EEELb0ELS8_2EEEEEEEEENSt3__19enable_ifIXsr23check_container_featureIT_NS_17sparse_compatibleEEE5valueElE4typeERKSF_, symObjAddr: 0x34E3C, symBinAddr: 0x1000361D8, symSize: 0x24 }
  - { offsetInCU: 0x7AFE4, offset: 0x7AFE4, size: 0x8, addend: 0x0, symName: __ZN2pm6ensureIRNS_14incidence_lineINS_3AVL4treeINS_8sparse2d6traitsINS4_11traits_baseINS_7nothingELb1ELb0ELNS4_16restriction_kindE2EEELb0ELS8_2EEEEEEEJN8polymake5mlistIJEEEEEEDcOT_DpT0_, symObjAddr: 0x35008, symBinAddr: 0x1000363A4, symSize: 0x14 }
  - { offsetInCU: 0x7B031, offset: 0x7B031, size: 0x8, addend: 0x0, symName: __ZN2pm6ensureIRKNS_14incidence_lineINS_3AVL4treeINS_8sparse2d6traitsINS4_11traits_baseINS_7nothingELb1ELb0ELNS4_16restriction_kindE2EEELb0ELS8_2EEEEEEEJN8polymake5mlistIJEEEEEEDcOT_DpT0_, symObjAddr: 0x35060, symBinAddr: 0x1000363FC, symSize: 0x14 }
  - { offsetInCU: 0x7B0BC, offset: 0x7B0BC, size: 0x8, addend: 0x0, symName: __ZN2pm18retrieve_containerINS_11PlainParserIN8polymake5mlistIJNS_12TrustedValueINSt3__117integral_constantIbLb0EEEEEEEEEENS_14incidence_lineINS_3AVL4treeINS_8sparse2d6traitsINSE_11traits_baseINS_7nothingELb1ELb0ELNSE_16restriction_kindE2EEELb0ELSI_2EEEEEEEEEvRT_RT0_NS_7io_test12by_insertionE, symObjAddr: 0x35A00, symBinAddr: 0x100036D9C, symSize: 0xB8 }
  - { offsetInCU: 0x7B131, offset: 0x7B131, size: 0x8, addend: 0x0, symName: __ZN2pm18retrieve_containerINS_11PlainParserIN8polymake5mlistIJEEEEENS_14incidence_lineINS_3AVL4treeINS_8sparse2d6traitsINS9_11traits_baseINS_7nothingELb1ELb0ELNS9_16restriction_kindE2EEELb0ELSD_2EEEEEEEEEvRT_RT0_NS_7io_test6as_setE, symObjAddr: 0x35BC4, symBinAddr: 0x100036F60, symSize: 0xCC }
  - { offsetInCU: 0x7B1B5, offset: 0x7B1B5, size: 0x8, addend: 0x0, symName: __ZN2pm18retrieve_containerINS_4perl10ValueInputIN8polymake5mlistIJNS_12TrustedValueINSt3__117integral_constantIbLb0EEEEEEEEEENS_14incidence_lineINS_3AVL4treeINS_8sparse2d6traitsINSF_11traits_baseINS_7nothingELb1ELb0ELNSF_16restriction_kindE2EEELb0ELSJ_2EEEEEEEEEvRT_RT0_NS_7io_test12by_insertionE, symObjAddr: 0x35DE0, symBinAddr: 0x10003717C, symSize: 0xAC }
  - { offsetInCU: 0x7B229, offset: 0x7B229, size: 0x8, addend: 0x0, symName: __ZN2pm18retrieve_containerINS_4perl10ValueInputIN8polymake5mlistIJEEEEENS_14incidence_lineINS_3AVL4treeINS_8sparse2d6traitsINSA_11traits_baseINS_7nothingELb1ELb0ELNSA_16restriction_kindE2EEELb0ELSE_2EEEEEEEEEvRT_RT0_NS_7io_test6as_setE, symObjAddr: 0x35F54, symBinAddr: 0x1000372F0, symSize: 0xC0 }
  - { offsetInCU: 0x7B2AD, offset: 0x7B2AD, size: 0x8, addend: 0x0, symName: __ZN2pm18retrieve_containerINS_4perl10ValueInputIN8polymake5mlistIJEEEEENS_15IncidenceMatrixINS_12NonSymmetricEEEEEvRT_RT0_NS_7io_test9as_matrixILi2EEE, symObjAddr: 0x3613C, symBinAddr: 0x1000374D8, symSize: 0x90 }
  - { offsetInCU: 0x7B312, offset: 0x7B312, size: 0x8, addend: 0x0, symName: __ZN2pm22resize_and_fill_matrixINS_4perl14ListValueInputINS_14incidence_lineIRNS_3AVL4treeINS_8sparse2d6traitsINS6_11traits_baseINS_7nothingELb1ELb0ELNS6_16restriction_kindE0EEELb0ELSA_0EEEEEEEN8polymake5mlistIJEEEEENS_15IncidenceMatrixINS_12NonSymmetricEEEEEvRT_RT0_lNSt3__117integral_constantIiLi0EEE, symObjAddr: 0x3620C, symBinAddr: 0x1000375A8, symSize: 0xF0 }
  - { offsetInCU: 0x7B39C, offset: 0x7B39C, size: 0x8, addend: 0x0, symName: __ZN2pm21fill_dense_from_denseINS_4perl14ListValueInputINS_14incidence_lineIRNS_3AVL4treeINS_8sparse2d6traitsINS6_11traits_baseINS_7nothingELb1ELb0ELNS6_16restriction_kindE0EEELb0ELSA_0EEEEEEEN8polymake5mlistIJEEEEENS_4RowsINS_15IncidenceMatrixINS_12NonSymmetricEEEEEEEvRT_RT0_, symObjAddr: 0x363B8, symBinAddr: 0x100037754, symSize: 0xE4 }
  - { offsetInCU: 0x7B414, offset: 0x7B414, size: 0x8, addend: 0x0, symName: __ZN2pm21fill_dense_from_denseINS_4perl14ListValueInputINS_14incidence_lineIRNS_3AVL4treeINS_8sparse2d6traitsINS6_11traits_baseINS_7nothingELb1ELb0ELNS6_16restriction_kindE0EEELb0ELSA_0EEEEEEEN8polymake5mlistIJEEEEENS_4RowsINS_25RestrictedIncidenceMatrixILSA_2EEEEEEEvRT_RT0_, symObjAddr: 0x3649C, symBinAddr: 0x100037838, symSize: 0x74 }
  - { offsetInCU: 0x7B49B, offset: 0x7B49B, size: 0x8, addend: 0x0, symName: __ZN2pm6unwaryINS_12IndexedSliceINS_10masqueradeINS_10ConcatRowsERNS_11Matrix_baseINS_8RationalEEEEEKNS_6SeriesIlLb1EEEN8polymake5mlistIJEEEEEEEDcOT_NSt3__19enable_ifIXntcl7is_waryISH_EEEPPvE4typeE, symObjAddr: 0x36EC8, symBinAddr: 0x100038264, symSize: 0x28 }
  - { offsetInCU: 0x7B4DA, offset: 0x7B4DA, size: 0x8, addend: 0x0, symName: __ZN2pm6unwaryIRNS_6VectorINS_8RationalEEEEEDcOT_NSt3__19enable_ifIXntcl7is_waryIS6_EEEPPvE4typeE, symObjAddr: 0x36EF0, symBinAddr: 0x10003828C, symSize: 0x28 }
  - { offsetInCU: 0x7B519, offset: 0x7B519, size: 0x8, addend: 0x0, symName: __ZN2pm7get_dimINS_6VectorINS_8RationalEEEEENSt3__19enable_ifIXntsr23check_container_featureIT_NS_17sparse_compatibleEEE5valueElE4typeERKS6_, symObjAddr: 0x36F84, symBinAddr: 0x100038320, symSize: 0x24 }
  - { offsetInCU: 0x7B550, offset: 0x7B550, size: 0x8, addend: 0x0, symName: __ZN2pm8concreteINS_12IndexedSliceINS_10masqueradeINS_10ConcatRowsERNS_11Matrix_baseINS_8RationalEEEEEKNS_6SeriesIlLb1EEEN8polymake5mlistIJEEEEEEEDcOT_, symObjAddr: 0x36FFC, symBinAddr: 0x100038398, symSize: 0x14 }
  - { offsetInCU: 0x7B587, offset: 0x7B587, size: 0x8, addend: 0x0, symName: __ZN2pm8concreteIRNS_6VectorINS_8RationalEEEEEDcOT_, symObjAddr: 0x37010, symBinAddr: 0x1000383AC, symSize: 0x14 }
  - { offsetInCU: 0x7B5BF, offset: 0x7B5BF, size: 0x8, addend: 0x0, symName: __ZN2pm18make_mutable_aliasINS_6VectorINS_8RationalEEEEEvRKT_S6_, symObjAddr: 0x374CC, symBinAddr: 0x100038868, symSize: 0x14 }
  - { offsetInCU: 0x7B5F6, offset: 0x7B5F6, size: 0x8, addend: 0x0, symName: __ZN2pm7get_dimINS_12IndexedSliceINS_10masqueradeINS_10ConcatRowsERNS_11Matrix_baseINS_8RationalEEEEEKNS_6SeriesIlLb1EEEN8polymake5mlistIJEEEEEEENSt3__19enable_ifIXntsr23check_container_featureIT_NS_17sparse_compatibleEEE5valueElE4typeERKSI_, symObjAddr: 0x37660, symBinAddr: 0x1000389FC, symSize: 0x24 }
  - { offsetInCU: 0x7B62D, offset: 0x7B62D, size: 0x8, addend: 0x0, symName: __ZN2pm7get_dimINS_11LazyVector2IKNS_12IndexedSliceINS_10masqueradeINS_10ConcatRowsERNS_11Matrix_baseINS_8RationalEEEEEKNS_6SeriesIlLb1EEEN8polymake5mlistIJEEEEERKNS_6VectorIS6_EENS_11BuildBinaryINS_10operations3subEEEEEEENSt3__19enable_ifIXntsr23check_container_featureIT_NS_17sparse_compatibleEEE5valueElE4typeERKST_, symObjAddr: 0x376D8, symBinAddr: 0x100038A74, symSize: 0x24 }
  - { offsetInCU: 0x7B664, offset: 0x7B664, size: 0x8, addend: 0x0, symName: __ZN2pm10copy_rangeINS_25binary_transform_iteratorINS_13iterator_pairINS_11ptr_wrapperIKNS_8RationalELb0EEES6_N8polymake5mlistIJEEEEENS_11BuildBinaryINS_10operations3subEEELb0EEENS_14iterator_rangeINS3_IS4_Lb0EEEEEvEENSt3__111conditionalIXsr3std19is_rvalue_referenceIOT0_EE5valueESM_u11__remove_cvIu20__remove_reference_tISL_EEE4typeEOT_SM_, symObjAddr: 0x37870, symBinAddr: 0x100038C0C, symSize: 0x40 }
  - { offsetInCU: 0x7B6C0, offset: 0x7B6C0, size: 0x8, addend: 0x0, symName: __ZN2pm6ensureIRKNS_11LazyVector2IKNS_12IndexedSliceINS_10masqueradeINS_10ConcatRowsERNS_11Matrix_baseINS_8RationalEEEEEKNS_6SeriesIlLb1EEEN8polymake5mlistIJEEEEERKNS_6VectorIS6_EENS_11BuildBinaryINS_10operations3subEEEEEJNS_5denseEEEEDcOT_DpT0_, symObjAddr: 0x378B0, symBinAddr: 0x100038C4C, symSize: 0x14 }
  - { offsetInCU: 0x7B70D, offset: 0x7B70D, size: 0x8, addend: 0x0, symName: __ZN2pm6entireIJERNS_12IndexedSliceINS_10masqueradeINS_10ConcatRowsERNS_11Matrix_baseINS_8RationalEEEEEKNS_6SeriesIlLb1EEEN8polymake5mlistIJEEEEEEEDaOT0_NSt3__19enable_ifIXsr3std19is_lvalue_referenceISJ_EE5valueEPPvE4typeE, symObjAddr: 0x37950, symBinAddr: 0x100038CEC, symSize: 0x38 }
  - { offsetInCU: 0x7B752, offset: 0x7B752, size: 0x8, addend: 0x0, symName: __ZN2pm15copy_range_implINS_25binary_transform_iteratorINS_13iterator_pairINS_11ptr_wrapperIKNS_8RationalELb0EEES6_N8polymake5mlistIJEEEEENS_11BuildBinaryINS_10operations3subEEELb0EEERNS_14iterator_rangeINS3_IS4_Lb0EEEEEEEvOT_OT0_NSt3__117integral_constantIbLb0EEENSP_IbLb1EEE, symObjAddr: 0x3799C, symBinAddr: 0x100038D38, symSize: 0xA0 }
  - { offsetInCU: 0x7B911, offset: 0x7B911, size: 0x8, addend: 0x0, symName: __ZN2pmmiERKNS_8RationalES2_, symObjAddr: 0x37C4C, symBinAddr: 0x100038FE8, symSize: 0x18C }
  - { offsetInCU: 0x7B95E, offset: 0x7B95E, size: 0x8, addend: 0x0, symName: __ZN2pm6ensureIRKNS_12IndexedSliceINS_10masqueradeINS_10ConcatRowsERNS_11Matrix_baseINS_8RationalEEEEEKNS_6SeriesIlLb1EEEN8polymake5mlistIJEEEEEJSE_EEEDcOT_DpT0_, symObjAddr: 0x380C4, symBinAddr: 0x100039460, symSize: 0x14 }
  - { offsetInCU: 0x7B9AB, offset: 0x7B9AB, size: 0x8, addend: 0x0, symName: __ZN2pm6ensureIRKNS_6VectorINS_8RationalEEEJN8polymake5mlistIJEEEEEEDcOT_DpT0_, symObjAddr: 0x3813C, symBinAddr: 0x1000394D8, symSize: 0x14 }
  - { offsetInCU: 0x7B9F8, offset: 0x7B9F8, size: 0x8, addend: 0x0, symName: __ZN2pm6ensureIRKNS_10ConcatRowsINS_11Matrix_baseINS_8RationalEEEEEJN8polymake5mlistIJEEEEEEDcOT_DpT0_, symObjAddr: 0x38208, symBinAddr: 0x1000395A4, symSize: 0x14 }
  - { offsetInCU: 0x7BA45, offset: 0x7BA45, size: 0x8, addend: 0x0, symName: __ZN2pm20prepare_iterator_argINS_11ptr_wrapperIKNS_8RationalELb0EEES4_EEDcRKT0_NSt3__19enable_ifIXsr19is_derived_from_anyIS6_N8polymake10mlist_wrapIJNSB_10mlist_foldINSB_5mlistIJT_NS_15iterator_traitsISF_E8iteratorEEEENSB_28mlist_remove_duplicates_implINS9_7is_sameEE4funcEvE4typeEEE4typeEEE5valueEPPvE4typeE, symObjAddr: 0x38334, symBinAddr: 0x1000396D0, symSize: 0x18 }
  - { offsetInCU: 0x7BA90, offset: 0x7BA90, size: 0x8, addend: 0x0, symName: __ZN2pm6ensureIRNS_12IndexedSliceINS_10masqueradeINS_10ConcatRowsERNS_11Matrix_baseINS_8RationalEEEEEKNS_6SeriesIlLb1EEEN8polymake5mlistIJEEEEEJNSD_IJNS_13end_sensitiveEEEEEEEDcOT_DpT0_, symObjAddr: 0x38408, symBinAddr: 0x1000397A4, symSize: 0x14 }
  - { offsetInCU: 0x7BADD, offset: 0x7BADD, size: 0x8, addend: 0x0, symName: __ZN2pm6ensureIRNS_10ConcatRowsINS_11Matrix_baseINS_8RationalEEEEEJN8polymake5mlistIJNS_20provide_constructionINS_13end_sensitiveELb0EEEEEEEEEDcOT_DpT0_, symObjAddr: 0x3851C, symBinAddr: 0x1000398B8, symSize: 0x14 }
  - { offsetInCU: 0x7BB2A, offset: 0x7BB2A, size: 0x8, addend: 0x0, symName: __ZN2pm6entireIJNS_5denseEERKNS_4RowsINS_6MatrixINS_8RationalEEEEEEEDaOT0_NSt3__19enable_ifIXsr3std19is_lvalue_referenceISB_EE5valueEPPvE4typeE, symObjAddr: 0x39510, symBinAddr: 0x10003A8AC, symSize: 0x38 }
  - { offsetInCU: 0x7BB74, offset: 0x7BB74, size: 0x8, addend: 0x0, symName: __ZN2pm6ensureIRKNS_4RowsINS_6MatrixINS_8RationalEEEEEJN8polymake5mlistIJNS_5denseENS_13end_sensitiveEEEEEEEDcOT_DpT0_, symObjAddr: 0x3967C, symBinAddr: 0x10003AA18, symSize: 0x14 }
  - { offsetInCU: 0x7BBC1, offset: 0x7BBC1, size: 0x8, addend: 0x0, symName: __ZN2pm6ensureINS_6SeriesIlLb0EEEJN8polymake5mlistIJNS_13end_sensitiveEEEEEEEDcOT_DpT0_, symObjAddr: 0x397C0, symBinAddr: 0x10003AB5C, symSize: 0x14 }
  - { offsetInCU: 0x7BC0E, offset: 0x7BC0E, size: 0x8, addend: 0x0, symName: __ZN2pm20prepare_iterator_argINS_14iterator_rangeINS_15series_iteratorIlLb1EEEEES4_EEDcRKT0_NSt3__19enable_ifIXsr19is_derived_from_anyIS6_N8polymake10mlist_wrapIJNSB_10mlist_foldINSB_5mlistIJT_NS_15iterator_traitsISF_E8iteratorEEEENSB_28mlist_remove_duplicates_implINS9_7is_sameEE4funcEvE4typeEEE4typeEEE5valueEPPvE4typeE, symObjAddr: 0x399B4, symBinAddr: 0x10003AD50, symSize: 0x18 }
  - { offsetInCU: 0x7BC78, offset: 0x7BC78, size: 0x8, addend: 0x0, symName: __ZN2pm8concreteIRKNS_12IndexedSliceINS_10masqueradeINS_10ConcatRowsERKNS_11Matrix_baseINS_8RationalEEEEEKNS_6SeriesIlLb1EEEN8polymake5mlistIJEEEEEEEDcOT_, symObjAddr: 0x39FA8, symBinAddr: 0x10003B344, symSize: 0x14 }
  - { offsetInCU: 0x7BCAF, offset: 0x7BCAF, size: 0x8, addend: 0x0, symName: __ZN2pm6entireIJNS_5denseEERKNS_12IndexedSliceINS_10masqueradeINS_10ConcatRowsERKNS_11Matrix_baseINS_8RationalEEEEEKNS_6SeriesIlLb1EEEN8polymake5mlistIJEEEEEEEDaOT0_NSt3__19enable_ifIXsr3std19is_lvalue_referenceISM_EE5valueEPPvE4typeE, symObjAddr: 0x3A198, symBinAddr: 0x10003B534, symSize: 0x3C }
  - { offsetInCU: 0x7BCF9, offset: 0x7BCF9, size: 0x8, addend: 0x0, symName: __ZN2pm6ensureIRKNS_12IndexedSliceINS_10masqueradeINS_10ConcatRowsERKNS_11Matrix_baseINS_8RationalEEEEEKNS_6SeriesIlLb1EEEN8polymake5mlistIJEEEEEJNSE_IJNS_5denseENS_13end_sensitiveEEEEEEEDcOT_DpT0_, symObjAddr: 0x3A1D4, symBinAddr: 0x10003B570, symSize: 0x14 }
  - { offsetInCU: 0x7BD77, offset: 0x7BD77, size: 0x8, addend: 0x0, symName: __ZN2pm6ensureIRKNS_12IndexedSliceINS_10masqueradeINS_10ConcatRowsERKNS_11Matrix_baseINS_8RationalEEEEEKNS_6SeriesIlLb1EEEN8polymake5mlistIJEEEEEJSF_EEEDcOT_DpT0_, symObjAddr: 0x3ACA0, symBinAddr: 0x10003C03C, symSize: 0x14 }
  - { offsetInCU: 0x7BDC4, offset: 0x7BDC4, size: 0x8, addend: 0x0, symName: __ZN2pm18index_within_rangeINS_12IndexedSliceINS_10masqueradeINS_10ConcatRowsERKNS_11Matrix_baseINS_8RationalEEEEEKNS_6SeriesIlLb1EEEN8polymake5mlistIJEEEEEEElRKT_l, symObjAddr: 0x3AFBC, symBinAddr: 0x10003C358, symSize: 0xDC }
  - { offsetInCU: 0x7BE19, offset: 0x7BE19, size: 0x8, addend: 0x0, symName: __ZN2pm7get_dimINS_12IndexedSliceINS_10masqueradeINS_10ConcatRowsERKNS_11Matrix_baseINS_8RationalEEEEEKNS_6SeriesIlLb1EEEN8polymake5mlistIJEEEEEEENSt3__19enable_ifIXntsr23check_container_featureIT_NS_17sparse_compatibleEEE5valueElE4typeERKSJ_, symObjAddr: 0x3B0F0, symBinAddr: 0x10003C48C, symSize: 0x24 }
  - { offsetInCU: 0x7BE50, offset: 0x7BE50, size: 0x8, addend: 0x0, symName: __ZN2pm6ensureIRKNS_12IndexedSliceINS_10masqueradeINS_10ConcatRowsERKNS_11Matrix_baseINS_8RationalEEEEEKNS_6SeriesIlLb1EEEN8polymake5mlistIJEEEEEJNS_5denseEEEEDcOT_DpT0_, symObjAddr: 0x3B2AC, symBinAddr: 0x10003C648, symSize: 0x14 }
  - { offsetInCU: 0x7C000, offset: 0x7C000, size: 0x8, addend: 0x0, symName: __ZN2pm12construct_atINS_5graph5TableINS1_10UndirectedEEEJEEEPT_S6_DpOT0_, symObjAddr: 0x3C128, symBinAddr: 0x10003D4C4, symSize: 0x2C }
  - { offsetInCU: 0x7C03C, offset: 0x7C03C, size: 0x8, addend: 0x0, symName: __ZN2pm12construct_atINS_5graph10edge_agentINS1_10UndirectedEEEJEEEPT_S6_DpOT0_, symObjAddr: 0x3C42C, symBinAddr: 0x10003D7C8, symSize: 0x2C }
  - { offsetInCU: 0x7C078, offset: 0x7C078, size: 0x8, addend: 0x0, symName: __ZN2pm12construct_atINS_5graph10node_entryINS1_10UndirectedELNS_8sparse2d16restriction_kindE0EEEJRlEEEPT_S9_DpOT0_, symObjAddr: 0x3C4D0, symBinAddr: 0x10003D86C, symSize: 0x38 }
  - { offsetInCU: 0x7C0FA, offset: 0x7C0FA, size: 0x8, addend: 0x0, symName: __ZN2pm8concreteIRKNS_5graph10UndirectedEEEDcOT_, symObjAddr: 0x3D5AC, symBinAddr: 0x10003E948, symSize: 0x14 }
  - { offsetInCU: 0x7C16F, offset: 0x7C16F, size: 0x8, addend: 0x0, symName: __ZN2pm8concreteIRNS_5graph5GraphINS1_10UndirectedEEEEEDcOT_, symObjAddr: 0x3DA98, symBinAddr: 0x10003EE34, symSize: 0x14 }
  - { offsetInCU: 0x7C1A6, offset: 0x7C1A6, size: 0x8, addend: 0x0, symName: __ZN2pm4rowsIRNS_15AdjacencyMatrixINS_5graph5GraphINS2_10UndirectedEEELb0EEEEENS_16inherit_ref_norvINS_4RowsIN8polymake7mselectIJNSt3__19enable_ifIXsr3std19is_rvalue_referenceIu11__remove_cvIu20__remove_reference_tIT_EEEE5valueEu22__add_rvalue_referenceINS_6UnwaryINS_8ConcreteIu11__remove_cvIu20__remove_reference_tISG_EEXsr16has_generic_typeINS_5derefISK_E4typeEEE5valueELb0EE4typeEE4typeEEEENSD_IXsr3std19is_lvalue_referenceISG_EE5valueEu22__add_lvalue_referenceINSC_11conditionalIXsr8is_constISG_EE5valueENSC_9add_constISR_E4typeESR_E4typeEEEESR_EE4typeEEERSE_E4typeEOSE_, symObjAddr: 0x3DC3C, symBinAddr: 0x10003EFD8, symSize: 0x28 }
  - { offsetInCU: 0x7C1DB, offset: 0x7C1DB, size: 0x8, addend: 0x0, symName: __ZN2pm6entireIJERNS_5graph14line_containerINS1_10UndirectedENSt3__117integral_constantIbLb1EEENS1_18incident_edge_listEEEEEDaOT0_NS4_9enable_ifIXsr3std19is_lvalue_referenceISC_EE5valueEPPvE4typeE, symObjAddr: 0x3E03C, symBinAddr: 0x10003F3D8, symSize: 0x38 }
  - { offsetInCU: 0x7C21F, offset: 0x7C21F, size: 0x8, addend: 0x0, symName: __ZN2pm14out_edge_listsINS_5graph5GraphINS1_10UndirectedEEEEEN8polymake7mselectIJNSt3__19enable_ifIXsr3std19is_rvalue_referenceIT_EE5valueEu22__add_rvalue_referenceINS_6UnwaryINS_8ConcreteIu11__remove_cvIu20__remove_reference_tIS9_EEXsr16has_generic_typeINS_5derefISD_E4typeEEE5valueELb0EE4typeEE4typeEEEENS8_IXsr3std19is_lvalue_referenceIS9_EE5valueEu22__add_lvalue_referenceINS7_11conditionalIXsr8is_constIS9_EE5valueENS7_9add_constISK_E4typeESK_E4typeEEEESK_EE4type27out_edge_list_container_refERNS_12GenericGraphIS9_NS9_3dirEEE, symObjAddr: 0x3E074, symBinAddr: 0x10003F410, symSize: 0x28 }
  - { offsetInCU: 0x7C256, offset: 0x7C256, size: 0x8, addend: 0x0, symName: __ZN2pm12construct_atINS_5graph5TableINS1_10UndirectedEEEJRKS4_EEEPT_S8_DpOT0_, symObjAddr: 0x3EC2C, symBinAddr: 0x10003FFC8, symSize: 0x34 }
  - { offsetInCU: 0x7C2A7, offset: 0x7C2A7, size: 0x8, addend: 0x0, symName: __ZN2pm12construct_atINS_5graph10node_entryINS1_10UndirectedELNS_8sparse2d16restriction_kindE0EEEJRKS6_EEEPT_SA_DpOT0_, symObjAddr: 0x3EF10, symBinAddr: 0x1000402AC, symSize: 0x34 }
  - { offsetInCU: 0x7C30B, offset: 0x7C30B, size: 0x8, addend: 0x0, symName: __ZN2pm8concreteIRNS_5graph18incident_edge_listINS_3AVL4treeINS_8sparse2d6traitsINS1_11traits_baseINS1_10UndirectedELb0ELNS5_16restriction_kindE0EEELb1ELS9_0EEEEEEEEEDcOT_, symObjAddr: 0x43030, symBinAddr: 0x1000443CC, symSize: 0x14 }
  - { offsetInCU: 0x7C342, offset: 0x7C342, size: 0x8, addend: 0x0, symName: __ZN2pm6ensureIRNS_3AVL4treeINS_8sparse2d6traitsINS_5graph11traits_baseINS5_10UndirectedELb0ELNS3_16restriction_kindE0EEELb1ELS8_0EEEEEJN8polymake5mlistIJEEEEEEDcOT_DpT0_, symObjAddr: 0x43538, symBinAddr: 0x1000448D4, symSize: 0x14 }
  - { offsetInCU: 0x7C38F, offset: 0x7C38F, size: 0x8, addend: 0x0, symName: __ZN2pm20prepare_iterator_argINS_3AVL13tree_iteratorINS_5graph9it_traitsINS3_10UndirectedELb0EEELNS1_10link_indexE1EEES8_EEDcRKT0_NSt3__19enable_ifIXsr19is_derived_from_anyISA_N8polymake10mlist_wrapIJNSF_10mlist_foldINSF_5mlistIJT_NS_15iterator_traitsISJ_E8iteratorEEEENSF_28mlist_remove_duplicates_implINSD_7is_sameEE4funcEvE4typeEEE4typeEEE5valueEPPvE4typeE, symObjAddr: 0x43750, symBinAddr: 0x100044AEC, symSize: 0x18 }
  - { offsetInCU: 0x7C4DF, offset: 0x7C4DF, size: 0x8, addend: 0x0, symName: __ZN2pm10destroy_atINS_5graph10node_entryINS1_10UndirectedELNS_8sparse2d16restriction_kindE0EEEEEvPT_, symObjAddr: 0x4542C, symBinAddr: 0x1000467C8, symSize: 0x24 }
  - { offsetInCU: 0x7C512, offset: 0x7C512, size: 0x8, addend: 0x0, symName: __ZN2pm6ensureIRNS_5graph14line_containerINS1_10UndirectedENSt3__117integral_constantIbLb1EEENS1_18incident_edge_listEEEJN8polymake5mlistIJNS_13end_sensitiveEEEEEEEDcOT_DpT0_, symObjAddr: 0x456A0, symBinAddr: 0x100046A3C, symSize: 0x14 }
  - { offsetInCU: 0x7C55F, offset: 0x7C55F, size: 0x8, addend: 0x0, symName: __ZN2pm6ensureIRNS_5graph20valid_node_containerINS1_10UndirectedEEEJN8polymake5mlistIJEEEEEEDcOT_DpT0_, symObjAddr: 0x45714, symBinAddr: 0x100046AB0, symSize: 0x14 }
  - { offsetInCU: 0x7C5AC, offset: 0x7C5AC, size: 0x8, addend: 0x0, symName: __ZN2pm6ensureIRNS_8sparse2d5rulerINS_5graph10node_entryINS3_10UndirectedELNS1_16restriction_kindE0EEENS3_10edge_agentIS5_EEEEJN8polymake5mlistIJNS_13end_sensitiveEEEEEEEDcOT_DpT0_, symObjAddr: 0x4580C, symBinAddr: 0x100046BA8, symSize: 0x14 }
  - { offsetInCU: 0x7C5F9, offset: 0x7C5F9, size: 0x8, addend: 0x0, symName: __ZN2pm20prepare_iterator_argINS_14iterator_rangeINS_11ptr_wrapperINS_5graph10node_entryINS3_10UndirectedELNS_8sparse2d16restriction_kindE0EEELb0EEEEESA_EEDcRKT0_NSt3__19enable_ifIXsr19is_derived_from_anyISC_N8polymake10mlist_wrapIJNSH_10mlist_foldINSH_5mlistIJT_NS_15iterator_traitsISL_E8iteratorEEEENSH_28mlist_remove_duplicates_implINSF_7is_sameEE4funcEvE4typeEEE4typeEEE5valueEPPvE4typeE, symObjAddr: 0x45BBC, symBinAddr: 0x100046F58, symSize: 0x18 }
  - { offsetInCU: 0x7C749, offset: 0x7C749, size: 0x8, addend: 0x0, symName: __ZN2pm20prepare_iterator_argINS_5graph19valid_node_iteratorINS_14iterator_rangeINS_11ptr_wrapperINS1_10node_entryINS1_10UndirectedELNS_8sparse2d16restriction_kindE0EEELb0EEEEENS_10BuildUnaryINS1_19valid_node_selectorEEEEESF_EEDcRKT0_NSt3__19enable_ifIXsr19is_derived_from_anyISH_N8polymake10mlist_wrapIJNSM_10mlist_foldINSM_5mlistIJT_NS_15iterator_traitsISQ_E8iteratorEEEENSM_28mlist_remove_duplicates_implINSK_7is_sameEE4funcEvE4typeEEE4typeEEE5valueEPPvE4typeE, symObjAddr: 0x45E38, symBinAddr: 0x1000471D4, symSize: 0x18 }
  - { offsetInCU: 0x7C899, offset: 0x7C899, size: 0x8, addend: 0x0, symName: __ZN2pm6unwaryIRNS_15AdjacencyMatrixINS_5graph5GraphINS2_10UndirectedEEELb0EEEEEDcOT_NSt3__19enable_ifIXntcl7is_waryIS9_EEEPPvE4typeE, symObjAddr: 0x46254, symBinAddr: 0x1000475F0, symSize: 0x28 }
  - { offsetInCU: 0x7C8D8, offset: 0x7C8D8, size: 0x8, addend: 0x0, symName: __ZN2pm8concreteIRNS_15AdjacencyMatrixINS_5graph5GraphINS2_10UndirectedEEELb0EEEEEDcOT_, symObjAddr: 0x4627C, symBinAddr: 0x100047618, symSize: 0x14 }
  - { offsetInCU: 0x7C90F, offset: 0x7C90F, size: 0x8, addend: 0x0, symName: __ZN2pm6entireIJERKNS_5graph18incident_edge_listINS_3AVL4treeINS_8sparse2d6traitsINS1_11traits_baseINS1_10UndirectedELb0ELNS5_16restriction_kindE0EEELb1ELS9_0EEEEEEEEEDaOT0_NSt3__19enable_ifIXsr3std19is_lvalue_referenceISI_EE5valueEPPvE4typeE, symObjAddr: 0x48214, symBinAddr: 0x1000495B0, symSize: 0x34 }
  - { offsetInCU: 0x7CA58, offset: 0x7CA58, size: 0x8, addend: 0x0, symName: __ZN2pm6ensureIRKNS_5graph18incident_edge_listINS_3AVL4treeINS_8sparse2d6traitsINS1_11traits_baseINS1_10UndirectedELb0ELNS5_16restriction_kindE0EEELb1ELS9_0EEEEEEEJN8polymake5mlistIJNS_13end_sensitiveEEEEEEEDcOT_DpT0_, symObjAddr: 0x488C8, symBinAddr: 0x100049C64, symSize: 0x14 }
  - { offsetInCU: 0x7CAA5, offset: 0x7CAA5, size: 0x8, addend: 0x0, symName: __ZN2pm6ensureIRKNS_3AVL4treeINS_8sparse2d6traitsINS_5graph11traits_baseINS5_10UndirectedELb0ELNS3_16restriction_kindE0EEELb1ELS8_0EEEEEJN8polymake5mlistIJEEEEEEDcOT_DpT0_, symObjAddr: 0x4894C, symBinAddr: 0x100049CE8, symSize: 0x14 }
  - { offsetInCU: 0x7CAF2, offset: 0x7CAF2, size: 0x8, addend: 0x0, symName: __ZN2pm20prepare_iterator_argINS_3AVL13tree_iteratorIKNS_5graph9it_traitsINS3_10UndirectedELb0EEELNS1_10link_indexE1EEES9_EEDcRKT0_NSt3__19enable_ifIXsr19is_derived_from_anyISB_N8polymake10mlist_wrapIJNSG_10mlist_foldINSG_5mlistIJT_NS_15iterator_traitsISK_E8iteratorEEEENSG_28mlist_remove_duplicates_implINSE_7is_sameEE4funcEvE4typeEEE4typeEEE5valueEPPvE4typeE, symObjAddr: 0x48AE4, symBinAddr: 0x100049E80, symSize: 0x18 }
  - { offsetInCU: 0x7CB6E, offset: 0x7CB6E, size: 0x8, addend: 0x0, symName: __ZN2pm8concreteIRKNS_5graph18incident_edge_listINS_3AVL4treeINS_8sparse2d6traitsINS1_11traits_baseINS1_10UndirectedELb0ELNS5_16restriction_kindE0EEELb1ELS9_0EEEEEEEEEDcOT_, symObjAddr: 0x494EC, symBinAddr: 0x10004A888, symSize: 0x14 }
  - { offsetInCU: 0x7CBA5, offset: 0x7CBA5, size: 0x8, addend: 0x0, symName: __ZN2pm6entireIJNS_5denseEERKNS_5graph18incident_edge_listINS_3AVL4treeINS_8sparse2d6traitsINS2_11traits_baseINS2_10UndirectedELb0ELNS6_16restriction_kindE0EEELb1ELSA_0EEEEEEEEEDaOT0_NSt3__19enable_ifIXsr3std19is_lvalue_referenceISJ_EE5valueEPPvE4typeE, symObjAddr: 0x496BC, symBinAddr: 0x10004AA58, symSize: 0x34 }
  - { offsetInCU: 0x7CBEF, offset: 0x7CBEF, size: 0x8, addend: 0x0, symName: __ZN2pm6ensureIRKNS_5graph18incident_edge_listINS_3AVL4treeINS_8sparse2d6traitsINS1_11traits_baseINS1_10UndirectedELb0ELNS5_16restriction_kindE0EEELb1ELS9_0EEEEEEEJN8polymake5mlistIJNS_5denseENS_13end_sensitiveEEEEEEEDcOT_DpT0_, symObjAddr: 0x49800, symBinAddr: 0x10004AB9C, symSize: 0x14 }
  - { offsetInCU: 0x7CD10, offset: 0x7CD10, size: 0x8, addend: 0x0, symName: __ZN2pm6ensureIRNS_5graph18incident_edge_listINS_3AVL4treeINS_8sparse2d6traitsINS1_11traits_baseINS1_10UndirectedELb0ELNS5_16restriction_kindE0EEELb1ELS9_0EEEEEEEJN8polymake5mlistIJEEEEEEDcOT_DpT0_, symObjAddr: 0x4A06C, symBinAddr: 0x10004B408, symSize: 0x14 }
  - { offsetInCU: 0x7CD5D, offset: 0x7CD5D, size: 0x8, addend: 0x0, symName: __ZN2pm6ensureIRKNS_5graph18incident_edge_listINS_3AVL4treeINS_8sparse2d6traitsINS1_11traits_baseINS1_10UndirectedELb0ELNS5_16restriction_kindE0EEELb1ELS9_0EEEEEEEJN8polymake5mlistIJEEEEEEDcOT_DpT0_, symObjAddr: 0x4A0C4, symBinAddr: 0x10004B460, symSize: 0x14 }
  - { offsetInCU: 0x7CE7E, offset: 0x7CE7E, size: 0x8, addend: 0x0, symName: __ZN2pm20prepare_iterator_argINS_3AVL13tree_iteratorINS_5graph9it_traitsINS3_10UndirectedELb0EEELNS1_10link_indexEn1EEES8_EEDcRKT0_NSt3__19enable_ifIXsr19is_derived_from_anyISA_N8polymake10mlist_wrapIJNSF_10mlist_foldINSF_5mlistIJT_NS_15iterator_traitsISJ_E8iteratorEEEENSF_28mlist_remove_duplicates_implINSD_7is_sameEE4funcEvE4typeEEE4typeEEE5valueEPPvE4typeE, symObjAddr: 0x4A4B8, symBinAddr: 0x10004B854, symSize: 0x18 }
  - { offsetInCU: 0x7CEC9, offset: 0x7CEC9, size: 0x8, addend: 0x0, symName: __ZN2pm20prepare_iterator_argINS_3AVL13tree_iteratorIKNS_5graph9it_traitsINS3_10UndirectedELb0EEELNS1_10link_indexEn1EEES9_EEDcRKT0_NSt3__19enable_ifIXsr19is_derived_from_anyISB_N8polymake10mlist_wrapIJNSG_10mlist_foldINSG_5mlistIJT_NS_15iterator_traitsISK_E8iteratorEEEENSG_28mlist_remove_duplicates_implINSE_7is_sameEE4funcEvE4typeEEE4typeEEE5valueEPPvE4typeE, symObjAddr: 0x4A7F0, symBinAddr: 0x10004BB8C, symSize: 0x18 }
  - { offsetInCU: 0x7D0FA, offset: 0x7D0FA, size: 0x8, addend: 0x0, symName: __ZN2pm4rowsIRKNS_22GenericIncidenceMatrixINS_15AdjacencyMatrixINS_5graph5GraphINS3_10UndirectedEEELb0EEEEEEENS_16inherit_ref_norvINS_4RowsIN8polymake7mselectIJNSt3__19enable_ifIXsr3std19is_rvalue_referenceIu11__remove_cvIu20__remove_reference_tIT_EEEE5valueEu22__add_rvalue_referenceINS_6UnwaryINS_8ConcreteIu11__remove_cvIu20__remove_reference_tISJ_EEXsr16has_generic_typeINS_5derefISN_E4typeEEE5valueELb0EE4typeEE4typeEEEENSG_IXsr3std19is_lvalue_referenceISJ_EE5valueEu22__add_lvalue_referenceINSF_11conditionalIXsr8is_constISJ_EE5valueENSF_9add_constISU_E4typeESU_E4typeEEEESU_EE4typeEEERSH_E4typeEOSH_, symObjAddr: 0x4C958, symBinAddr: 0x10004DCF4, symSize: 0x28 }
  - { offsetInCU: 0x7D12F, offset: 0x7D12F, size: 0x8, addend: 0x0, symName: __ZN2pm4rowsIRKNS_15AdjacencyMatrixINS_5graph5GraphINS2_10UndirectedEEELb0EEEEENS_16inherit_ref_norvINS_4RowsIN8polymake7mselectIJNSt3__19enable_ifIXsr3std19is_rvalue_referenceIu11__remove_cvIu20__remove_reference_tIT_EEEE5valueEu22__add_rvalue_referenceINS_6UnwaryINS_8ConcreteIu11__remove_cvIu20__remove_reference_tISH_EEXsr16has_generic_typeINS_5derefISL_E4typeEEE5valueELb0EE4typeEE4typeEEEENSE_IXsr3std19is_lvalue_referenceISH_EE5valueEu22__add_lvalue_referenceINSD_11conditionalIXsr8is_constISH_EE5valueENSD_9add_constISS_E4typeESS_E4typeEEEESS_EE4typeEEERSF_E4typeEOSF_, symObjAddr: 0x4C9B8, symBinAddr: 0x10004DD54, symSize: 0x28 }
  - { offsetInCU: 0x7D164, offset: 0x7D164, size: 0x8, addend: 0x0, symName: __ZN2pm6unwaryIRKNS_15AdjacencyMatrixINS_5graph5GraphINS2_10UndirectedEEELb0EEEEEDcOT_NSt3__19enable_ifIXntcl7is_waryISA_EEEPPvE4typeE, symObjAddr: 0x4CA0C, symBinAddr: 0x10004DDA8, symSize: 0x28 }
  - { offsetInCU: 0x7D1A3, offset: 0x7D1A3, size: 0x8, addend: 0x0, symName: __ZN2pm8concreteIRKNS_15AdjacencyMatrixINS_5graph5GraphINS2_10UndirectedEEELb0EEEEEDcOT_, symObjAddr: 0x4CA34, symBinAddr: 0x10004DDD0, symSize: 0x14 }
  - { offsetInCU: 0x7D1DA, offset: 0x7D1DA, size: 0x8, addend: 0x0, symName: __ZN2pm8count_itINS_5graph19valid_node_iteratorINS_14iterator_rangeINS_11ptr_wrapperIKNS1_10node_entryINS1_10UndirectedELNS_8sparse2d16restriction_kindE0EEELb0EEEEENS_10BuildUnaryINS1_19valid_node_selectorEEEEEEElT_, symObjAddr: 0x4CBA0, symBinAddr: 0x10004DF3C, symSize: 0x54 }
  - { offsetInCU: 0x7D326, offset: 0x7D326, size: 0x8, addend: 0x0, symName: __ZN2pm6ensureIRKNS_8sparse2d5rulerINS_5graph10node_entryINS3_10UndirectedELNS1_16restriction_kindE0EEENS3_10edge_agentIS5_EEEEJN8polymake5mlistIJNS_13end_sensitiveEEEEEEEDcOT_DpT0_, symObjAddr: 0x4CE44, symBinAddr: 0x10004E1E0, symSize: 0x14 }
  - { offsetInCU: 0x7D373, offset: 0x7D373, size: 0x8, addend: 0x0, symName: __ZN2pm20prepare_iterator_argINS_14iterator_rangeINS_11ptr_wrapperIKNS_5graph10node_entryINS3_10UndirectedELNS_8sparse2d16restriction_kindE0EEELb0EEEEESB_EEDcRKT0_NSt3__19enable_ifIXsr19is_derived_from_anyISD_N8polymake10mlist_wrapIJNSI_10mlist_foldINSI_5mlistIJT_NS_15iterator_traitsISM_E8iteratorEEEENSI_28mlist_remove_duplicates_implINSG_7is_sameEE4funcEvE4typeEEE4typeEEE5valueEPPvE4typeE, symObjAddr: 0x4D0E8, symBinAddr: 0x10004E484, symSize: 0x18 }
  - { offsetInCU: 0x7D3BE, offset: 0x7D3BE, size: 0x8, addend: 0x0, symName: __ZN2pm4colsIRKNS_15AdjacencyMatrixINS_5graph5GraphINS2_10UndirectedEEELb0EEEEENS_16inherit_ref_norvINS_4ColsIN8polymake7mselectIJNSt3__19enable_ifIXsr3std19is_rvalue_referenceIu11__remove_cvIu20__remove_reference_tIT_EEEE5valueEu22__add_rvalue_referenceINS_6UnwaryINS_8ConcreteIu11__remove_cvIu20__remove_reference_tISH_EEXsr16has_generic_typeINS_5derefISL_E4typeEEE5valueELb0EE4typeEE4typeEEEENSE_IXsr3std19is_lvalue_referenceISH_EE5valueEu22__add_lvalue_referenceINSD_11conditionalIXsr8is_constISH_EE5valueENSD_9add_constISS_E4typeESS_E4typeEEEESS_EE4typeEEERSF_E4typeEOSF_, symObjAddr: 0x4D110, symBinAddr: 0x10004E4AC, symSize: 0x28 }
  - { offsetInCU: 0x7D3F3, offset: 0x7D3F3, size: 0x8, addend: 0x0, symName: __ZN2pm12construct_atINS_8sparse2d5TableINS_7nothingELb0ELNS1_16restriction_kindE0EEEJRlS6_EEEPT_S8_DpOT0_, symObjAddr: 0x4D408, symBinAddr: 0x10004E7A4, symSize: 0x44 }
  - { offsetInCU: 0x7D458, offset: 0x7D458, size: 0x8, addend: 0x0, symName: __ZN2pm10copy_rangeINS_24unary_transform_iteratorINS_5graph19valid_node_iteratorINS_14iterator_rangeINS_11ptr_wrapperIKNS2_10node_entryINS2_10UndirectedELNS_8sparse2d16restriction_kindE0EEELb0EEEEENS_10BuildUnaryINS2_19valid_node_selectorEEEEENS2_12line_factoryINSt3__117integral_constantIbLb1EEENS_14incidence_lineEvEEEENS1_INS4_INS5_INS_3AVL4treeINS8_6traitsINS8_11traits_baseINS_7nothingELb1ELb0ELS9_0EEELb0ELS9_0EEEEELb0EEEEENSJ_4pairINS_10operations10masqueradeISM_EENS8_19line_index_accessorIvEEEEEEvEENSJ_11conditionalIXsr3std19is_rvalue_referenceIOT0_EE5valueES19_u11__remove_cvIu20__remove_reference_tIS18_EEE4typeEOT_S19_, symObjAddr: 0x4D498, symBinAddr: 0x10004E834, symSize: 0x40 }
  - { offsetInCU: 0x7D4B4, offset: 0x7D4B4, size: 0x8, addend: 0x0, symName: __ZN2pm6entireIJERNS_4RowsINS_20IncidenceMatrix_baseINS_12NonSymmetricEEEEEEEDaOT0_NSt3__19enable_ifIXsr3std19is_lvalue_referenceIS9_EE5valueEPPvE4typeE, symObjAddr: 0x4D4D8, symBinAddr: 0x10004E874, symSize: 0x38 }
  - { offsetInCU: 0x7D4F8, offset: 0x7D4F8, size: 0x8, addend: 0x0, symName: __ZN2pm4rowsIRNS_20IncidenceMatrix_baseINS_12NonSymmetricEEEEENS_16inherit_ref_norvINS_4RowsIN8polymake7mselectIJNSt3__19enable_ifIXsr3std19is_rvalue_referenceIu11__remove_cvIu20__remove_reference_tIT_EEEE5valueEu22__add_rvalue_referenceINS_6UnwaryINS_8ConcreteIu11__remove_cvIu20__remove_reference_tISD_EEXsr16has_generic_typeINS_5derefISH_E4typeEEE5valueELb0EE4typeEE4typeEEEENSA_IXsr3std19is_lvalue_referenceISD_EE5valueEu22__add_lvalue_referenceINS9_11conditionalIXsr8is_constISD_EE5valueENS9_9add_constISO_E4typeESO_E4typeEEEESO_EE4typeEEERSB_E4typeEOSB_, symObjAddr: 0x4D510, symBinAddr: 0x10004E8AC, symSize: 0x28 }
  - { offsetInCU: 0x7D52E, offset: 0x7D52E, size: 0x8, addend: 0x0, symName: __ZN2pm15copy_range_implINS_24unary_transform_iteratorINS_5graph19valid_node_iteratorINS_14iterator_rangeINS_11ptr_wrapperIKNS2_10node_entryINS2_10UndirectedELNS_8sparse2d16restriction_kindE0EEELb0EEEEENS_10BuildUnaryINS2_19valid_node_selectorEEEEENS2_12line_factoryINSt3__117integral_constantIbLb1EEENS_14incidence_lineEvEEEERNS1_INS4_INS5_INS_3AVL4treeINS8_6traitsINS8_11traits_baseINS_7nothingELb1ELb0ELS9_0EEELb0ELS9_0EEEEELb0EEEEENSJ_4pairINS_10operations10masqueradeISM_EENS8_19line_index_accessorIvEEEEEEEEvOT_OT0_SL_SL_, symObjAddr: 0x4D54C, symBinAddr: 0x10004E8E8, symSize: 0x90 }
  - { offsetInCU: 0x7D794, offset: 0x7D794, size: 0x8, addend: 0x0, symName: __ZN2pm6entireIJERNS_14incidence_lineINS_3AVL4treeINS_8sparse2d6traitsINS4_11traits_baseINS_7nothingELb1ELb0ELNS4_16restriction_kindE0EEELb0ELS8_0EEEEEEEEEDaOT0_NSt3__19enable_ifIXsr3std19is_lvalue_referenceISG_EE5valueEPPvE4typeE, symObjAddr: 0x4DBD0, symBinAddr: 0x10004EF6C, symSize: 0x38 }
  - { offsetInCU: 0x7D7D8, offset: 0x7D7D8, size: 0x8, addend: 0x0, symName: __ZN2pm6entireIJERKNS_14incidence_lineINS_3AVL4treeINS_8sparse2d6traitsINS_5graph11traits_baseINS6_10UndirectedELb0ELNS4_16restriction_kindE0EEELb1ELS9_0EEEEEEEEEDaOT0_NSt3__19enable_ifIXsr3std19is_lvalue_referenceISI_EE5valueEPPvE4typeE, symObjAddr: 0x4DC08, symBinAddr: 0x10004EFA4, symSize: 0x34 }
  - { offsetInCU: 0x7D81C, offset: 0x7D81C, size: 0x8, addend: 0x0, symName: __ZN2pm6ensureIRNS_14incidence_lineINS_3AVL4treeINS_8sparse2d6traitsINS4_11traits_baseINS_7nothingELb1ELb0ELNS4_16restriction_kindE0EEELb0ELS8_0EEEEEEEJN8polymake5mlistIJNS_13end_sensitiveEEEEEEEDcOT_DpT0_, symObjAddr: 0x4DD80, symBinAddr: 0x10004F11C, symSize: 0x14 }
  - { offsetInCU: 0x7D869, offset: 0x7D869, size: 0x8, addend: 0x0, symName: __ZN2pm6ensureIRKNS_14incidence_lineINS_3AVL4treeINS_8sparse2d6traitsINS_5graph11traits_baseINS6_10UndirectedELb0ELNS4_16restriction_kindE0EEELb1ELS9_0EEEEEEEJN8polymake5mlistIJNS_13end_sensitiveEEEEEEEDcOT_DpT0_, symObjAddr: 0x4DE3C, symBinAddr: 0x10004F1D8, symSize: 0x14 }
  - { offsetInCU: 0x7D8B6, offset: 0x7D8B6, size: 0x8, addend: 0x0, symName: __ZN2pm6ensureIRKNS_8sparse2d4lineINS_3AVL4treeINS1_6traitsINS_5graph11traits_baseINS6_10UndirectedELb0ELNS1_16restriction_kindE0EEELb1ELS9_0EEEEEEEJN8polymake5mlistIJEEEEEEDcOT_DpT0_, symObjAddr: 0x4DEAC, symBinAddr: 0x10004F248, symSize: 0x14 }
  - { offsetInCU: 0x7D903, offset: 0x7D903, size: 0x8, addend: 0x0, symName: __ZN2pm20prepare_iterator_argINS_24unary_transform_iteratorINS_3AVL13tree_iteratorIKNS_5graph9it_traitsINS4_10UndirectedELb0EEELNS2_10link_indexE1EEENSt3__14pairINS_10BuildUnaryINS_8sparse2d13cell_accessorEEENS_12BuildUnaryItINSE_19cell_index_accessorEEEEEEESL_EEDcRKT0_NSB_9enable_ifIXsr19is_derived_from_anyISN_N8polymake10mlist_wrapIJNSR_10mlist_foldINSR_5mlistIJT_NS_15iterator_traitsISV_E8iteratorEEEENSR_28mlist_remove_duplicates_implINSB_7is_sameEE4funcEvE4typeEEE4typeEEE5valueEPPvE4typeE, symObjAddr: 0x4E184, symBinAddr: 0x10004F520, symSize: 0x18 }
  - { offsetInCU: 0x7DA53, offset: 0x7DA53, size: 0x8, addend: 0x0, symName: __ZN2pm6ensureIRNS_4RowsINS_20IncidenceMatrix_baseINS_12NonSymmetricEEEEEJN8polymake5mlistIJNS_13end_sensitiveEEEEEEEDcOT_DpT0_, symObjAddr: 0x4E308, symBinAddr: 0x10004F6A4, symSize: 0x14 }
  - { offsetInCU: 0x7DAA0, offset: 0x7DAA0, size: 0x8, addend: 0x0, symName: __ZN2pm20prepare_iterator_argINS_14iterator_rangeINS_11ptr_wrapperINS_3AVL4treeINS_8sparse2d6traitsINS5_11traits_baseINS_7nothingELb1ELb0ELNS5_16restriction_kindE0EEELb0ELS9_0EEEEELb0EEEEESE_EEDcRKT0_NSt3__19enable_ifIXsr19is_derived_from_anyISG_N8polymake10mlist_wrapIJNSL_10mlist_foldINSL_5mlistIJT_NS_15iterator_traitsISP_E8iteratorEEEENSL_28mlist_remove_duplicates_implINSJ_7is_sameEE4funcEvE4typeEEE4typeEEE5valueEPPvE4typeE, symObjAddr: 0x4E4AC, symBinAddr: 0x10004F848, symSize: 0x18 }
  - { offsetInCU: 0x7DAEB, offset: 0x7DAEB, size: 0x8, addend: 0x0, symName: __ZN2pm6unwaryIRNS_20IncidenceMatrix_baseINS_12NonSymmetricEEEEEDcOT_NSt3__19enable_ifIXntcl7is_waryIS6_EEEPPvE4typeE, symObjAddr: 0x4E5B4, symBinAddr: 0x10004F950, symSize: 0x28 }
  - { offsetInCU: 0x7DB2A, offset: 0x7DB2A, size: 0x8, addend: 0x0, symName: __ZN2pm8concreteIRNS_20IncidenceMatrix_baseINS_12NonSymmetricEEEEEDcOT_, symObjAddr: 0x4E5DC, symBinAddr: 0x10004F978, symSize: 0x14 }
  - { offsetInCU: 0x7DB61, offset: 0x7DB61, size: 0x8, addend: 0x0, symName: __ZN2pm6unwaryIRKNS_22GenericIncidenceMatrixINS_15AdjacencyMatrixINS_5graph5GraphINS3_10UndirectedEEELb0EEEEEEEDcOT_NSt3__19enable_ifIXntcl7is_waryISC_EEEPPvE4typeE, symObjAddr: 0x4E5F0, symBinAddr: 0x10004F98C, symSize: 0x28 }
  - { offsetInCU: 0x7DBA0, offset: 0x7DBA0, size: 0x8, addend: 0x0, symName: __ZN2pm8concreteIRKNS_22GenericIncidenceMatrixINS_15AdjacencyMatrixINS_5graph5GraphINS3_10UndirectedEEELb0EEEEEEEDcOT_, symObjAddr: 0x4E618, symBinAddr: 0x10004F9B4, symSize: 0x14 }
  - { offsetInCU: 0x7DBD7, offset: 0x7DBD7, size: 0x8, addend: 0x0, symName: __ZN2pm6ensureIRKNS_5graph14line_containerINS1_10UndirectedENSt3__117integral_constantIbLb1EEENS_14incidence_lineEEEJN8polymake5mlistIJEEEEEEDcOT_DpT0_, symObjAddr: 0x4E62C, symBinAddr: 0x10004F9C8, symSize: 0x14 }
  - { offsetInCU: 0x7DC24, offset: 0x7DC24, size: 0x8, addend: 0x0, symName: __ZN2pm6ensureIRKNS_5graph20valid_node_containerINS1_10UndirectedEEEJN8polymake5mlistIJEEEEEEDcOT_DpT0_, symObjAddr: 0x4E69C, symBinAddr: 0x10004FA38, symSize: 0x14 }
  - { offsetInCU: 0x7DC71, offset: 0x7DC71, size: 0x8, addend: 0x0, symName: __ZN2pm20prepare_iterator_argINS_5graph19valid_node_iteratorINS_14iterator_rangeINS_11ptr_wrapperIKNS1_10node_entryINS1_10UndirectedELNS_8sparse2d16restriction_kindE0EEELb0EEEEENS_10BuildUnaryINS1_19valid_node_selectorEEEEESG_EEDcRKT0_NSt3__19enable_ifIXsr19is_derived_from_anyISI_N8polymake10mlist_wrapIJNSN_10mlist_foldINSN_5mlistIJT_NS_15iterator_traitsISR_E8iteratorEEEENSN_28mlist_remove_duplicates_implINSL_7is_sameEE4funcEvE4typeEEE4typeEEE5valueEPPvE4typeE, symObjAddr: 0x4E748, symBinAddr: 0x10004FAE4, symSize: 0x18 }
  - { offsetInCU: 0x7DCBC, offset: 0x7DCBC, size: 0x8, addend: 0x0, symName: __ZN2pm8concreteIRKNS_15IncidenceMatrixINS_12NonSymmetricEEEEEDcOT_, symObjAddr: 0x4E854, symBinAddr: 0x10004FBF0, symSize: 0x14 }
  - { offsetInCU: 0x7DCF3, offset: 0x7DCF3, size: 0x8, addend: 0x0, symName: __ZN2pm4rowsIRKNS_15IncidenceMatrixINS_12NonSymmetricEEEEENS_16inherit_ref_norvINS_4RowsIN8polymake7mselectIJNSt3__19enable_ifIXsr3std19is_rvalue_referenceIu11__remove_cvIu20__remove_reference_tIT_EEEE5valueEu22__add_rvalue_referenceINS_6UnwaryINS_8ConcreteIu11__remove_cvIu20__remove_reference_tISE_EEXsr16has_generic_typeINS_5derefISI_E4typeEEE5valueELb0EE4typeEE4typeEEEENSB_IXsr3std19is_lvalue_referenceISE_EE5valueEu22__add_lvalue_referenceINSA_11conditionalIXsr8is_constISE_EE5valueENSA_9add_constISP_E4typeESP_E4typeEEEESP_EE4typeEEERSC_E4typeEOSC_, symObjAddr: 0x4E928, symBinAddr: 0x10004FCC4, symSize: 0x28 }
  - { offsetInCU: 0x7DD28, offset: 0x7DD28, size: 0x8, addend: 0x0, symName: __ZN2pm6entireIJNS_5denseEERKNS_4RowsINS_15IncidenceMatrixINS_12NonSymmetricEEEEEEEDaOT0_NSt3__19enable_ifIXsr3std19is_lvalue_referenceISB_EE5valueEPPvE4typeE, symObjAddr: 0x4EB18, symBinAddr: 0x10004FEB4, symSize: 0x38 }
  - { offsetInCU: 0x7DD72, offset: 0x7DD72, size: 0x8, addend: 0x0, symName: __ZN2pm6ensureIRKNS_4RowsINS_15IncidenceMatrixINS_12NonSymmetricEEEEEJN8polymake5mlistIJNS_5denseENS_13end_sensitiveEEEEEEEDcOT_DpT0_, symObjAddr: 0x4ED18, symBinAddr: 0x1000500B4, symSize: 0x14 }
  - { offsetInCU: 0x7DDBF, offset: 0x7DDBF, size: 0x8, addend: 0x0, symName: __ZN2pm6ensureINS_20same_value_containerIRKNS_20IncidenceMatrix_baseINS_12NonSymmetricEEEEEJN8polymake5mlistIJEEEEEEDcOT_DpT0_, symObjAddr: 0x4EE54, symBinAddr: 0x1000501F0, symSize: 0x14 }
  - { offsetInCU: 0x7DE0D, offset: 0x7DE0D, size: 0x8, addend: 0x0, symName: __ZN2pm18make_mutable_aliasINS_20IncidenceMatrix_baseINS_12NonSymmetricEEEEEvRKT_S6_, symObjAddr: 0x4F08C, symBinAddr: 0x100050428, symSize: 0x14 }
  - { offsetInCU: 0x7DE44, offset: 0x7DE44, size: 0x8, addend: 0x0, symName: __ZN2pm20prepare_iterator_argINS_19same_value_iteratorIRKNS_20IncidenceMatrix_baseINS_12NonSymmetricEEEEES7_EEDcRKT0_NSt3__19enable_ifIXsr19is_derived_from_anyIS9_N8polymake10mlist_wrapIJNSE_10mlist_foldINSE_5mlistIJT_NS_15iterator_traitsISI_E8iteratorEEEENSE_28mlist_remove_duplicates_implINSC_7is_sameEE4funcEvE4typeEEE4typeEEE5valueEPPvE4typeE, symObjAddr: 0x4F1D8, symBinAddr: 0x100050574, symSize: 0x18 }
  - { offsetInCU: 0x7DE8F, offset: 0x7DE8F, size: 0x8, addend: 0x0, symName: __ZN2pm8concreteIRKNS_14incidence_lineIRKNS_3AVL4treeINS_8sparse2d6traitsINS4_11traits_baseINS_7nothingELb1ELb0ELNS4_16restriction_kindE0EEELb0ELS8_0EEEEEEEEEDcOT_, symObjAddr: 0x4F560, symBinAddr: 0x1000508FC, symSize: 0x14 }
  - { offsetInCU: 0x7DEC6, offset: 0x7DEC6, size: 0x8, addend: 0x0, symName: __ZN2pm6entireIJNS_5denseEERKNS_14incidence_lineIRKNS_3AVL4treeINS_8sparse2d6traitsINS5_11traits_baseINS_7nothingELb1ELb0ELNS5_16restriction_kindE0EEELb0ELS9_0EEEEEEEEEDaOT0_NSt3__19enable_ifIXsr3std19is_lvalue_referenceISK_EE5valueEPPvE4typeE, symObjAddr: 0x4F730, symBinAddr: 0x100050ACC, symSize: 0x34 }
  - { offsetInCU: 0x7DF10, offset: 0x7DF10, size: 0x8, addend: 0x0, symName: __ZN2pm6ensureIRKNS_14incidence_lineIRKNS_3AVL4treeINS_8sparse2d6traitsINS4_11traits_baseINS_7nothingELb1ELb0ELNS4_16restriction_kindE0EEELb0ELS8_0EEEEEEEJN8polymake5mlistIJNS_5denseENS_13end_sensitiveEEEEEEEDcOT_DpT0_, symObjAddr: 0x4F764, symBinAddr: 0x100050B00, symSize: 0x14 }
  - { offsetInCU: 0x7E0C0, offset: 0x7E0C0, size: 0x8, addend: 0x0, symName: __ZN2pm6unwaryIRKNS_15IncidenceMatrixINS_12NonSymmetricEEEEEDcOT_NSt3__19enable_ifIXntcl7is_waryIS7_EEEPPvE4typeE, symObjAddr: 0x4FAD4, symBinAddr: 0x100050E70, symSize: 0x28 }
  - { offsetInCU: 0x7E0FF, offset: 0x7E0FF, size: 0x8, addend: 0x0, symName: __ZN2pm4colsIRKNS_15IncidenceMatrixINS_12NonSymmetricEEEEENS_16inherit_ref_norvINS_4ColsIN8polymake7mselectIJNSt3__19enable_ifIXsr3std19is_rvalue_referenceIu11__remove_cvIu20__remove_reference_tIT_EEEE5valueEu22__add_rvalue_referenceINS_6UnwaryINS_8ConcreteIu11__remove_cvIu20__remove_reference_tISE_EEXsr16has_generic_typeINS_5derefISI_E4typeEEE5valueELb0EE4typeEE4typeEEEENSB_IXsr3std19is_lvalue_referenceISE_EE5valueEu22__add_lvalue_referenceINSA_11conditionalIXsr8is_constISE_EE5valueENSA_9add_constISP_E4typeESP_E4typeEEEESP_EE4typeEEERSC_E4typeEOSC_, symObjAddr: 0x4FCE0, symBinAddr: 0x10005107C, symSize: 0x28 }
  - { offsetInCU: 0x7E134, offset: 0x7E134, size: 0x8, addend: 0x0, symName: __ZN2pm8concreteIRKNS_17sparse_elem_proxyINS_20incidence_proxy_baseINS_14incidence_lineINS_3AVL4treeINS_8sparse2d6traitsINS6_11traits_baseINS_7nothingELb1ELb0ELNS6_16restriction_kindE0EEELb0ELSA_0EEEEEEEEEbJEEEEEDcOT_, symObjAddr: 0x4FF44, symBinAddr: 0x1000512E0, symSize: 0x14 }
  - { offsetInCU: 0x7E16B, offset: 0x7E16B, size: 0x8, addend: 0x0, symName: __ZN2pmlsINSt3__111char_traitsIcEEEERNS1_13basic_ostreamIcT_EES7_RKNS_17sparse_elem_proxyINS_20incidence_proxy_baseINS_14incidence_lineINS_3AVL4treeINS_8sparse2d6traitsINSD_11traits_baseINS_7nothingELb1ELb0ELNSD_16restriction_kindE0EEELb0ELSH_0EEEEEEEEEbJEEE, symObjAddr: 0x4FFE4, symBinAddr: 0x100051380, symSize: 0x40 }
  - { offsetInCU: 0x7EE4C, offset: 0x7EE4C, size: 0x8, addend: 0x0, symName: __ZN8polymake12reverse_castIKN2pm8ptr_pairINS1_5graph11NodeMapBaseEEES5_S4_EEDaPT_MT1_T0_, symObjAddr: 0x5A90, symBinAddr: 0x100006E2C, symSize: 0x40 }
  - { offsetInCU: 0x7EEE4, offset: 0x7EEE4, size: 0x8, addend: 0x0, symName: __ZN8polymake12reverse_castIKN2pm8ptr_pairINS1_5graph11EdgeMapBaseEEES5_S4_EEDaPT_MT1_T0_, symObjAddr: 0x5F08, symBinAddr: 0x1000072A4, symSize: 0x40 }
  - { offsetInCU: 0x7EFD6, offset: 0x7EFD6, size: 0x8, addend: 0x0, symName: __ZN8polymake12reverse_castIKN2pm5aliasINS1_17SameElementVectorIRKNS1_8RationalEEELNS1_10alias_kindE0EEES9_NS1_20same_value_containerIS7_EEEEDaPT_MT1_T0_, symObjAddr: 0xA1F0, symBinAddr: 0x10000B58C, symSize: 0x40 }
  - { offsetInCU: 0x7F2F9, offset: 0x7F2F9, size: 0x8, addend: 0x0, symName: __ZN8polymake12reverse_castIKN2pm5aliasIRKNS1_8RationalELNS1_10alias_kindE1EEES7_NS1_20same_value_containerIS5_EEEEDaPT_MT1_T0_, symObjAddr: 0xB8C0, symBinAddr: 0x10000CC5C, symSize: 0x40 }
  - { offsetInCU: 0x7F474, offset: 0x7F474, size: 0x8, addend: 0x0, symName: __ZN8polymake12reverse_castIllN2pm13shared_objectINS1_8sparse2d5TableINS1_7nothingELb0ELNS3_16restriction_kindE0EEEJNS1_15AliasHandlerTagINS1_20shared_alias_handlerEEEEE3repEEEDaPT_MT1_T0_, symObjAddr: 0x1B838, symBinAddr: 0x10001CBD4, symSize: 0x3C }
  - { offsetInCU: 0x7F5D9, offset: 0x7F5D9, size: 0x8, addend: 0x0, symName: __ZN8polymake12reverse_castIN2pm20shared_alias_handler8AliasSetES3_S2_EEDaPT_MT1_T0_, symObjAddr: 0x22524, symBinAddr: 0x1000238C0, symSize: 0x3C }
  - { offsetInCU: 0x7F671, offset: 0x7F671, size: 0x8, addend: 0x0, symName: __ZN8polymake12reverse_castIN2pm3AVL4treeINS1_8sparse2d6traitsINS4_11traits_baseINS1_7nothingELb1ELb0ELNS4_16restriction_kindE0EEELb0ELS8_0EEEEESB_NS4_5rulerISB_NS4_12ruler_prefixEEELm1EEEDaPT0_lMT1_AT2__T_, symObjAddr: 0x22B14, symBinAddr: 0x100023EB0, symSize: 0x50 }
  - { offsetInCU: 0x7F74A, offset: 0x7F74A, size: 0x8, addend: 0x0, symName: __ZN8polymake12reverse_castIN2pm3AVL4treeINS1_8sparse2d6traitsINS4_11traits_baseINS1_7nothingELb1ELb0ELNS4_16restriction_kindE2EEELb0ELS8_2EEEEESB_NS4_5rulerISB_NS4_12ruler_prefixEEELm1EEEDaPT0_lMT1_AT2__T_, symObjAddr: 0x26F88, symBinAddr: 0x100028324, symSize: 0x50 }
  - { offsetInCU: 0x7F8E2, offset: 0x7F8E2, size: 0x8, addend: 0x0, symName: __ZN8polymake12reverse_castIN2pm3AVL4treeINS1_8sparse2d6traitsINS4_11traits_baseINS1_7nothingELb1ELb0ELNS4_16restriction_kindE0EEELb0ELS8_0EEEEEKSB_NS4_5rulerISB_NS4_12ruler_prefixEEELm1EEEDaPT0_lMT1_AT2__T_, symObjAddr: 0x3016C, symBinAddr: 0x100031508, symSize: 0x54 }
  - { offsetInCU: 0x7F992, offset: 0x7F992, size: 0x8, addend: 0x0, symName: __ZN8polymake12reverse_castIN2pm3AVL4treeINS1_8sparse2d6traitsINS4_11traits_baseINS1_7nothingELb1ELb0ELNS4_16restriction_kindE2EEELb0ELS8_2EEEEEKSB_NS4_5rulerISB_NS4_12ruler_prefixEEELm1EEEDaPT0_lMT1_AT2__T_, symObjAddr: 0x34F70, symBinAddr: 0x10003630C, symSize: 0x54 }
  - { offsetInCU: 0x7FA74, offset: 0x7FA74, size: 0x8, addend: 0x0, symName: __ZN8polymake12reverse_castIllN2pm13shared_objectINS1_5graph5TableINS3_10UndirectedEEEJNS1_15AliasHandlerTagINS1_20shared_alias_handlerEEENS1_17DivorceHandlerTagINS3_5GraphIS5_E12divorce_mapsEEEEE3repEEEDaPT_MT1_T0_, symObjAddr: 0x3CB5C, symBinAddr: 0x10003DEF8, symSize: 0x3C }
  - { offsetInCU: 0x7FB0C, offset: 0x7FB0C, size: 0x8, addend: 0x0, symName: __ZN8polymake12reverse_castIN2pm3AVL4treeINS1_8sparse2d6traitsINS1_5graph11traits_baseINS6_10UndirectedELb0ELNS4_16restriction_kindE0EEELb1ELS9_0EEEEESC_NS6_16node_entry_treesIS8_LS9_0ELb1EEEEEDaPT_MT1_T0_, symObjAddr: 0x40BCC, symBinAddr: 0x100041F68, symSize: 0x3C }
  - { offsetInCU: 0x7FBA4, offset: 0x7FBA4, size: 0x8, addend: 0x0, symName: __ZN8polymake12reverse_castIN2pm5graph10node_entryINS2_10UndirectedELNS1_8sparse2d16restriction_kindE0EEES7_NS5_5rulerIS7_NS2_10edge_agentIS4_EEEELm1EEEDaPT0_lMT1_AT2__T_, symObjAddr: 0x40C60, symBinAddr: 0x100041FFC, symSize: 0x50 }
  - { offsetInCU: 0x7FCFE, offset: 0x7FCFE, size: 0x8, addend: 0x0, symName: __ZN8polymake12reverse_castIKN2pm3AVL4treeINS1_8sparse2d6traitsINS1_5graph11traits_baseINS6_10UndirectedELb0ELNS4_16restriction_kindE0EEELb1ELS9_0EEEEESC_NS6_16node_entry_treesIS8_LS9_0ELb1EEEEEDaPT_MT1_T0_, symObjAddr: 0x49DA4, symBinAddr: 0x10004B140, symSize: 0x40 }
  - { offsetInCU: 0x7FD96, offset: 0x7FD96, size: 0x8, addend: 0x0, symName: __ZN8polymake12reverse_castIN2pm5graph10node_entryINS2_10UndirectedELNS1_8sparse2d16restriction_kindE0EEEKS7_NS5_5rulerIS7_NS2_10edge_agentIS4_EEEELm1EEEDaPT0_lMT1_AT2__T_, symObjAddr: 0x49E14, symBinAddr: 0x10004B1B0, symSize: 0x54 }
  - { offsetInCU: 0x80035, offset: 0x80035, size: 0x8, addend: 0x0, symName: __ZN8polymake16foreach_in_tupleIRNSt3__15tupleIJN2pm5aliasIKNS3_11RepeatedColINS3_17SameElementVectorIRKNS3_8RationalEEEEELNS3_10alias_kindE0EEENS4_IRKNS3_6MatrixIS7_EELSD_2EEEEEEZNS3_11BlockMatrixINS_5mlistIJSC_SI_EEENS1_17integral_constantIbLb0EEEEC1IJSB_RSG_EvEEDpOT_EUlOT_E_EEvSY_OT0_, symObjAddr: 0x96D8, symBinAddr: 0x10000AA74, symSize: 0x44 }
  - { offsetInCU: 0x80080, offset: 0x80080, size: 0x8, addend: 0x0, symName: __ZN8polymake16foreach_in_tupleIRNSt3__15tupleIJN2pm5aliasIKNS3_11RepeatedColINS3_17SameElementVectorIRKNS3_8RationalEEEEELNS3_10alias_kindE0EEENS4_IRKNS3_6MatrixIS7_EELSD_2EEEEEEZNS3_11BlockMatrixINS_5mlistIJSC_SI_EEENS1_17integral_constantIbLb0EEEEC1IJSB_RSG_EvEEDpOT_EUlOT_E0_EEvSY_OT0_, symObjAddr: 0x971C, symBinAddr: 0x10000AAB8, symSize: 0x44 }
  - { offsetInCU: 0x800E5, offset: 0x800E5, size: 0x8, addend: 0x0, symName: __ZN8polymake16foreach_in_tupleINSt3__15tupleIJN2pm5aliasIKNS3_11RepeatedColINS3_17SameElementVectorIRKNS3_8RationalEEEEELNS3_10alias_kindE0EEENS4_IRKNS3_6MatrixIS7_EELSD_2EEEEEEZNS3_11BlockMatrixINS_5mlistIJSC_SI_EEENS1_17integral_constantIbLb0EEEEC1IJSB_RSG_EvEEDpOT_EUlOT_E_JLm0ELm1EEEEvRSW_RT0_NS1_16integer_sequenceImJXspT1_EEEE, symObjAddr: 0x9C7C, symBinAddr: 0x10000B018, symSize: 0x78 }
  - { offsetInCU: 0x8014D, offset: 0x8014D, size: 0x8, addend: 0x0, symName: __ZN8polymake23make_index_sequence_forINSt3__15tupleIJN2pm5aliasIKNS3_11RepeatedColINS3_17SameElementVectorIRKNS3_8RationalEEEEELNS3_10alias_kindE0EEENS4_IRKNS3_6MatrixIS7_EELSD_2EEEEEEEEDaRKT_, symObjAddr: 0x9CF4, symBinAddr: 0x10000B090, symSize: 0x10 }
  - { offsetInCU: 0x80180, offset: 0x80180, size: 0x8, addend: 0x0, symName: __ZN8polymake16foreach_in_tupleINSt3__15tupleIJN2pm5aliasIKNS3_11RepeatedColINS3_17SameElementVectorIRKNS3_8RationalEEEEELNS3_10alias_kindE0EEENS4_IRKNS3_6MatrixIS7_EELSD_2EEEEEEZNS3_11BlockMatrixINS_5mlistIJSC_SI_EEENS1_17integral_constantIbLb0EEEEC1IJSB_RSG_EvEEDpOT_EUlOT_E0_JLm0ELm1EEEEvRSW_RT0_NS1_16integer_sequenceImJXspT1_EEEE, symObjAddr: 0xA280, symBinAddr: 0x10000B61C, symSize: 0x78 }
  - { offsetInCU: 0x8023E, offset: 0x8023E, size: 0x8, addend: 0x0, symName: __ZN8polymake13perl_bindings9recognizeIN2pm8RationalEEEDcRNS2_4perl10type_infosENS0_4baitEPT_PS3_, symObjAddr: 0xF830, symBinAddr: 0x100010BCC, symSize: 0x78 }
  - { offsetInCU: 0x802B6, offset: 0x802B6, size: 0x8, addend: 0x0, symName: __ZN8polymake13perl_bindings9recognizeIN2pm6VectorINS2_8RationalEEES4_EEDcRNS2_4perl10type_infosENS0_4baitEPT_PNS3_IT0_EE, symObjAddr: 0x10414, symBinAddr: 0x1000117B0, symSize: 0x78 }
  - { offsetInCU: 0x80337, offset: 0x80337, size: 0x8, addend: 0x0, symName: __ZN8polymake13perl_bindings9recognizeIN2pm6MatrixINS2_8RationalEEES4_EEDcRNS2_4perl10type_infosENS0_4baitEPT_PNS3_IT0_EE, symObjAddr: 0x15098, symBinAddr: 0x100016434, symSize: 0x78 }
  - { offsetInCU: 0x803B8, offset: 0x803B8, size: 0x8, addend: 0x0, symName: __ZN8polymake13perl_bindings9recognizeIN2pm15IncidenceMatrixINS2_12NonSymmetricEEES4_EEDcRNS2_4perl10type_infosENS0_4baitEPT_PNS3_IT0_EE, symObjAddr: 0x1BA9C, symBinAddr: 0x10001CE38, symSize: 0x78 }
  - { offsetInCU: 0x80439, offset: 0x80439, size: 0x8, addend: 0x0, symName: __ZN8polymake13perl_bindings9recognizeIN2pm3SetIlNS2_10operations3cmpEEElEEDcRNS2_4perl10type_infosENS0_4baitEPT_PNS3_IT0_S5_EE, symObjAddr: 0x2E56C, symBinAddr: 0x10002F908, symSize: 0x78 }
  - { offsetInCU: 0x804BA, offset: 0x804BA, size: 0x8, addend: 0x0, symName: __ZN8polymake13perl_bindings9recognizeIN2pm5graph5GraphINS3_10UndirectedEEES5_EEDcRNS2_4perl10type_infosENS0_4baitEPT_PNS4_IT0_EE, symObjAddr: 0x3CEA8, symBinAddr: 0x10003E244, symSize: 0x78 }
  - { offsetInCU: 0x805B5, offset: 0x805B5, size: 0x8, addend: 0x0, symName: __ZN8polymake16foreach_in_tupleIRNSt3__15tupleIJN2pm24unary_transform_iteratorINS3_25binary_transform_iteratorINS3_13iterator_pairINS3_19same_value_iteratorIRKNS3_8RationalEEENS3_14iterator_rangeINS3_17sequence_iteratorIlLb1EEEEENS_5mlistIJNS3_20FeaturesViaSecondTagINSG_IJNS3_13end_sensitiveEEEEEEEEEEENS1_4pairINS3_7nothingENS3_10operations6apply2INS3_12BuildUnaryItINSP_11dereferenceEEEvEEEELb0EEENSP_24construct_unary_with_argINS3_17SameElementVectorElvEEEENS5_INS6_INS7_IRKNS3_11Matrix_baseIS8_EEEENS3_15series_iteratorIlLb1EEENSG_IJEEEEENS3_19matrix_line_factoryILb1EvEELb0EEEEEEZNS3_24tuple_transform_iteratorINSG_IJS10_S1C_EEENS_10operations12concat_tupleINS3_11VectorChainEEEEppEvEUlRT_E_EEvOS1M_OT0_, symObjAddr: 0x14804, symBinAddr: 0x100015BA0, symSize: 0x44 }
  - { offsetInCU: 0x80600, offset: 0x80600, size: 0x8, addend: 0x0, symName: __ZN8polymake16foreach_in_tupleINSt3__15tupleIJN2pm24unary_transform_iteratorINS3_25binary_transform_iteratorINS3_13iterator_pairINS3_19same_value_iteratorIRKNS3_8RationalEEENS3_14iterator_rangeINS3_17sequence_iteratorIlLb1EEEEENS_5mlistIJNS3_20FeaturesViaSecondTagINSG_IJNS3_13end_sensitiveEEEEEEEEEEENS1_4pairINS3_7nothingENS3_10operations6apply2INS3_12BuildUnaryItINSP_11dereferenceEEEvEEEELb0EEENSP_24construct_unary_with_argINS3_17SameElementVectorElvEEEENS5_INS6_INS7_IRKNS3_11Matrix_baseIS8_EEEENS3_15series_iteratorIlLb1EEENSG_IJEEEEENS3_19matrix_line_factoryILb1EvEELb0EEEEEEZNS3_24tuple_transform_iteratorINSG_IJS10_S1C_EEENS_10operations12concat_tupleINS3_11VectorChainEEEEppEvEUlRT_E_JLm0ELm1EEEEvS1M_RT0_NS1_16integer_sequenceImJXspT1_EEEE, symObjAddr: 0x14848, symBinAddr: 0x100015BE4, symSize: 0x78 }
  - { offsetInCU: 0x80668, offset: 0x80668, size: 0x8, addend: 0x0, symName: __ZN8polymake23make_index_sequence_forINSt3__15tupleIJN2pm24unary_transform_iteratorINS3_25binary_transform_iteratorINS3_13iterator_pairINS3_19same_value_iteratorIRKNS3_8RationalEEENS3_14iterator_rangeINS3_17sequence_iteratorIlLb1EEEEENS_5mlistIJNS3_20FeaturesViaSecondTagINSG_IJNS3_13end_sensitiveEEEEEEEEEEENS1_4pairINS3_7nothingENS3_10operations6apply2INS3_12BuildUnaryItINSP_11dereferenceEEEvEEEELb0EEENSP_24construct_unary_with_argINS3_17SameElementVectorElvEEEENS5_INS6_INS7_IRKNS3_11Matrix_baseIS8_EEEENS3_15series_iteratorIlLb1EEENSG_IJEEEEENS3_19matrix_line_factoryILb1EvEELb0EEEEEEEEDaRKT_, symObjAddr: 0x148C0, symBinAddr: 0x100015C5C, symSize: 0x10 }
  - { offsetInCU: 0x806B5, offset: 0x806B5, size: 0x8, addend: 0x0, symName: __ZN8polymake16foreach_in_tupleIRNSt3__15tupleIJN2pm24unary_transform_iteratorINS3_25binary_transform_iteratorINS3_13iterator_pairINS3_19same_value_iteratorIRKNS3_8RationalEEENS3_17sequence_iteratorIlLb1EEENS_5mlistIJEEEEENS1_4pairINS3_7nothingENS3_10operations6apply2INS3_12BuildUnaryItINSJ_11dereferenceEEEvEEEELb0EEENSJ_24construct_unary_with_argINS3_17SameElementVectorElvEEEENS5_INS6_INS7_IRKNS3_11Matrix_baseIS8_EEEENS3_15series_iteratorIlLb1EEESF_EENS3_19matrix_line_factoryILb1EvEELb0EEEEEEZNS3_24tuple_transform_iteratorINSE_IJSU_S15_EEENS_10operations12concat_tupleINS3_11VectorChainEEEEppEvEUlRT_E_EEvOS1F_OT0_, symObjAddr: 0x16BFC, symBinAddr: 0x100017F98, symSize: 0x44 }
  - { offsetInCU: 0x80700, offset: 0x80700, size: 0x8, addend: 0x0, symName: __ZN8polymake16foreach_in_tupleINSt3__15tupleIJN2pm24unary_transform_iteratorINS3_25binary_transform_iteratorINS3_13iterator_pairINS3_19same_value_iteratorIRKNS3_8RationalEEENS3_17sequence_iteratorIlLb1EEENS_5mlistIJEEEEENS1_4pairINS3_7nothingENS3_10operations6apply2INS3_12BuildUnaryItINSJ_11dereferenceEEEvEEEELb0EEENSJ_24construct_unary_with_argINS3_17SameElementVectorElvEEEENS5_INS6_INS7_IRKNS3_11Matrix_baseIS8_EEEENS3_15series_iteratorIlLb1EEESF_EENS3_19matrix_line_factoryILb1EvEELb0EEEEEEZNS3_24tuple_transform_iteratorINSE_IJSU_S15_EEENS_10operations12concat_tupleINS3_11VectorChainEEEEppEvEUlRT_E_JLm0ELm1EEEEvS1F_RT0_NS1_16integer_sequenceImJXspT1_EEEE, symObjAddr: 0x16C40, symBinAddr: 0x100017FDC, symSize: 0x78 }
  - { offsetInCU: 0x80768, offset: 0x80768, size: 0x8, addend: 0x0, symName: __ZN8polymake23make_index_sequence_forINSt3__15tupleIJN2pm24unary_transform_iteratorINS3_25binary_transform_iteratorINS3_13iterator_pairINS3_19same_value_iteratorIRKNS3_8RationalEEENS3_17sequence_iteratorIlLb1EEENS_5mlistIJEEEEENS1_4pairINS3_7nothingENS3_10operations6apply2INS3_12BuildUnaryItINSJ_11dereferenceEEEvEEEELb0EEENSJ_24construct_unary_with_argINS3_17SameElementVectorElvEEEENS5_INS6_INS7_IRKNS3_11Matrix_baseIS8_EEEENS3_15series_iteratorIlLb1EEESF_EENS3_19matrix_line_factoryILb1EvEELb0EEEEEEEEDaRKT_, symObjAddr: 0x16CB8, symBinAddr: 0x100018054, symSize: 0x10 }
  - { offsetInCU: 0x8079B, offset: 0x8079B, size: 0x8, addend: 0x0, symName: __ZN8polymake16foreach_in_tupleIRNSt3__15tupleIJN2pm24unary_transform_iteratorINS3_25binary_transform_iteratorINS3_13iterator_pairINS3_19same_value_iteratorIRKNS3_8RationalEEENS3_17sequence_iteratorIlLb0EEENS_5mlistIJEEEEENS1_4pairINS3_7nothingENS3_10operations6apply2INS3_12BuildUnaryItINSJ_11dereferenceEEEvEEEELb0EEENSJ_24construct_unary_with_argINS3_17SameElementVectorElvEEEENS5_INS6_INS7_IRKNS3_11Matrix_baseIS8_EEEENS3_15series_iteratorIlLb0EEESF_EENS3_19matrix_line_factoryILb1EvEELb0EEEEEEZNS3_24tuple_transform_iteratorINSE_IJSU_S15_EEENS_10operations12concat_tupleINS3_11VectorChainEEEEppEvEUlRT_E_EEvOS1F_OT0_, symObjAddr: 0x182AC, symBinAddr: 0x100019648, symSize: 0x44 }
  - { offsetInCU: 0x807E6, offset: 0x807E6, size: 0x8, addend: 0x0, symName: __ZN8polymake16foreach_in_tupleINSt3__15tupleIJN2pm24unary_transform_iteratorINS3_25binary_transform_iteratorINS3_13iterator_pairINS3_19same_value_iteratorIRKNS3_8RationalEEENS3_17sequence_iteratorIlLb0EEENS_5mlistIJEEEEENS1_4pairINS3_7nothingENS3_10operations6apply2INS3_12BuildUnaryItINSJ_11dereferenceEEEvEEEELb0EEENSJ_24construct_unary_with_argINS3_17SameElementVectorElvEEEENS5_INS6_INS7_IRKNS3_11Matrix_baseIS8_EEEENS3_15series_iteratorIlLb0EEESF_EENS3_19matrix_line_factoryILb1EvEELb0EEEEEEZNS3_24tuple_transform_iteratorINSE_IJSU_S15_EEENS_10operations12concat_tupleINS3_11VectorChainEEEEppEvEUlRT_E_JLm0ELm1EEEEvS1F_RT0_NS1_16integer_sequenceImJXspT1_EEEE, symObjAddr: 0x182F0, symBinAddr: 0x10001968C, symSize: 0x78 }
  - { offsetInCU: 0x8084E, offset: 0x8084E, size: 0x8, addend: 0x0, symName: __ZN8polymake23make_index_sequence_forINSt3__15tupleIJN2pm24unary_transform_iteratorINS3_25binary_transform_iteratorINS3_13iterator_pairINS3_19same_value_iteratorIRKNS3_8RationalEEENS3_17sequence_iteratorIlLb0EEENS_5mlistIJEEEEENS1_4pairINS3_7nothingENS3_10operations6apply2INS3_12BuildUnaryItINSJ_11dereferenceEEEvEEEELb0EEENSJ_24construct_unary_with_argINS3_17SameElementVectorElvEEEENS5_INS6_INS7_IRKNS3_11Matrix_baseIS8_EEEENS3_15series_iteratorIlLb0EEESF_EENS3_19matrix_line_factoryILb1EvEELb0EEEEEEEEDaRKT_, symObjAddr: 0x18368, symBinAddr: 0x100019704, symSize: 0x10 }
  - { offsetInCU: 0x80881, offset: 0x80881, size: 0x8, addend: 0x0, symName: __ZN8polymake16legible_typenameIN2pm15IncidenceMatrixINS1_12NonSymmetricEEEEENSt3__112basic_stringIcNS5_11char_traitsIcEENS5_9allocatorIcEEEEv, symObjAddr: 0x1ABF0, symBinAddr: 0x10001BF8C, symSize: 0x2C }
  - { offsetInCU: 0x808EC, offset: 0x808EC, size: 0x8, addend: 0x0, symName: __ZN8polymake16legible_typenameIN2pm14incidence_lineIRNS1_3AVL4treeINS1_8sparse2d6traitsINS5_11traits_baseINS1_7nothingELb1ELb0ELNS5_16restriction_kindE0EEELb0ELS9_0EEEEEEEEENSt3__112basic_stringIcNSF_11char_traitsIcEENSF_9allocatorIcEEEEv, symObjAddr: 0x2C0D0, symBinAddr: 0x10002D46C, symSize: 0x2C }
  - { offsetInCU: 0x80935, offset: 0x80935, size: 0x8, addend: 0x0, symName: __ZN8polymake16legible_typenameIN2pm14incidence_lineINS1_3AVL4treeINS1_8sparse2d6traitsINS5_11traits_baseINS1_7nothingELb1ELb0ELNS5_16restriction_kindE2EEELb0ELS9_2EEEEEEEEENSt3__112basic_stringIcNSE_11char_traitsIcEENSE_9allocatorIcEEEEv, symObjAddr: 0x3292C, symBinAddr: 0x100033CC8, symSize: 0x2C }
  - { offsetInCU: 0x80969, offset: 0x80969, size: 0x8, addend: 0x0, symName: __ZN8polymake22ensure_private_mutableIN2pm14iterator_rangeINS1_11ptr_wrapperINS1_8RationalELb0EEEEEEENSt3__111conditionalIXsr3std19is_rvalue_referenceIOT_EE5valueESA_u11__remove_cvIu20__remove_reference_tIS9_EEE4typeESA_, symObjAddr: 0x37988, symBinAddr: 0x100038D24, symSize: 0x14 }
  - { offsetInCU: 0x8099E, offset: 0x8099E, size: 0x8, addend: 0x0, symName: __ZN8polymake22ensure_private_mutableIN2pm25binary_transform_iteratorINS1_13iterator_pairINS1_11ptr_wrapperIKNS1_8RationalELb0EEES7_NS_5mlistIJEEEEENS1_11BuildBinaryINS1_10operations3subEEELb0EEEEENSt3__111conditionalIXsr3std19is_rvalue_referenceIOT_EE5valueESJ_u11__remove_cvIu20__remove_reference_tISI_EEE4typeESJ_, symObjAddr: 0x37A3C, symBinAddr: 0x100038DD8, symSize: 0x14 }
  - { offsetInCU: 0x809D3, offset: 0x809D3, size: 0x8, addend: 0x0, symName: __ZN8polymake16legible_typenameIN2pm5graph5GraphINS2_10UndirectedEEEEENSt3__112basic_stringIcNS6_11char_traitsIcEENS6_9allocatorIcEEEEv, symObjAddr: 0x3BE80, symBinAddr: 0x10003D21C, symSize: 0x2C }
  - { offsetInCU: 0x80A33, offset: 0x80A33, size: 0x8, addend: 0x0, symName: __ZN8polymake16legible_typenameIN2pm5graph18incident_edge_listINS1_3AVL4treeINS1_8sparse2d6traitsINS2_11traits_baseINS2_10UndirectedELb0ELNS6_16restriction_kindE0EEELb1ELSA_0EEEEEEEEENSt3__112basic_stringIcNSF_11char_traitsIcEENSF_9allocatorIcEEEEv, symObjAddr: 0x48028, symBinAddr: 0x1000493C4, symSize: 0x2C }
  - { offsetInCU: 0x80A67, offset: 0x80A67, size: 0x8, addend: 0x0, symName: __ZN8polymake22ensure_private_mutableIN2pm24unary_transform_iteratorINS1_14iterator_rangeINS1_11ptr_wrapperINS1_3AVL4treeINS1_8sparse2d6traitsINS7_11traits_baseINS1_7nothingELb1ELb0ELNS7_16restriction_kindE0EEELb0ELSB_0EEEEELb0EEEEENSt3__14pairINS1_10operations10masqueradeINS1_14incidence_lineEEENS7_19line_index_accessorIvEEEEEEEENSH_11conditionalIXsr3std19is_rvalue_referenceIOT_EE5valueEST_u11__remove_cvIu20__remove_reference_tISS_EEE4typeEST_, symObjAddr: 0x4D538, symBinAddr: 0x10004E8D4, symSize: 0x14 }
  - { offsetInCU: 0x80A9C, offset: 0x80A9C, size: 0x8, addend: 0x0, symName: __ZN8polymake22ensure_private_mutableIN2pm24unary_transform_iteratorINS1_5graph19valid_node_iteratorINS1_14iterator_rangeINS1_11ptr_wrapperIKNS3_10node_entryINS3_10UndirectedELNS1_8sparse2d16restriction_kindE0EEELb0EEEEENS1_10BuildUnaryINS3_19valid_node_selectorEEEEENS3_12line_factoryINSt3__117integral_constantIbLb1EEENS1_14incidence_lineEvEEEEEENSK_11conditionalIXsr3std19is_rvalue_referenceIOT_EE5valueESS_u11__remove_cvIu20__remove_reference_tISR_EEE4typeESS_, symObjAddr: 0x4D5DC, symBinAddr: 0x10004E978, symSize: 0x14 }
  - { offsetInCU: 0x8C7B4, offset: 0x8C7B4, size: 0x8, addend: 0x0, symName: __ZNSt3__17advanceB8ue170006IN2pm11ptr_wrapperIKNS1_8RationalELb0EEEllvEEvRT_T0_, symObjAddr: 0xE644, symBinAddr: 0x10000F9E0, symSize: 0x38 }
  - { offsetInCU: 0x8C846, offset: 0x8C846, size: 0x8, addend: 0x0, symName: __ZNSt3__124__put_character_sequenceB8ue170006IcNS_11char_traitsIcEEEERNS_13basic_ostreamIT_T0_EES7_PKS4_m, symObjAddr: 0x111F0, symBinAddr: 0x10001258C, symSize: 0x1E0 }
  - { offsetInCU: 0x8CA05, offset: 0x8CA05, size: 0x8, addend: 0x0, symName: __ZNSt3__17advanceB8ue170006IN2pm11ptr_wrapperIKNS1_8RationalELb1EEEllvEEvRT_T0_, symObjAddr: 0x124CC, symBinAddr: 0x100013868, symSize: 0x38 }
  - { offsetInCU: 0x8D455, offset: 0x8D455, size: 0x8, addend: 0x0, symName: __ZNSt3__17advanceB8ue170006IN2pm11ptr_wrapperINS1_8RationalELb0EEEllvEEvRT_T0_, symObjAddr: 0x38EBC, symBinAddr: 0x10003A258, symSize: 0x38 }
  - { offsetInCU: 0x8F271, offset: 0x8F271, size: 0x8, addend: 0x0, symName: __ZNSt3__15flushB8ue170006IcNS_11char_traitsIcEEEERNS_13basic_ostreamIT_T0_EES7_, symObjAddr: 0x124, symBinAddr: 0x1000014C0, symSize: 0x28 }
  - { offsetInCU: 0x8F2B1, offset: 0x8F2B1, size: 0x8, addend: 0x0, symName: __ZNSt3__14endlB8ue170006IcNS_11char_traitsIcEEEERNS_13basic_ostreamIT_T0_EES7_, symObjAddr: 0x14AC, symBinAddr: 0x100002848, symSize: 0x58 }
  - { offsetInCU: 0x8F2F1, offset: 0x8F2F1, size: 0x8, addend: 0x0, symName: __ZNSt3__13maxB8ue170006IlEERKT_S3_S3_, symObjAddr: 0x2288, symBinAddr: 0x100003624, symSize: 0x2C }
  - { offsetInCU: 0x8F334, offset: 0x8F334, size: 0x8, addend: 0x0, symName: __ZNSt3__13maxB8ue170006IlNS_6__lessIvvEEEERKT_S5_S5_T0_, symObjAddr: 0x22F8, symBinAddr: 0x100003694, symSize: 0x54 }
  - { offsetInCU: 0x8F404, offset: 0x8F404, size: 0x8, addend: 0x0, symName: __ZNSt3__117__libcpp_allocateB8ue170006Emm, symObjAddr: 0x3104, symBinAddr: 0x1000044A0, symSize: 0x28 }
  - { offsetInCU: 0x8F441, offset: 0x8F441, size: 0x8, addend: 0x0, symName: __ZNSt3__121__libcpp_operator_newB8ue170006IJmEEEPvDpT_, symObjAddr: 0x3140, symBinAddr: 0x1000044DC, symSize: 0x24 }
  - { offsetInCU: 0x8F47A, offset: 0x8F47A, size: 0x8, addend: 0x0, symName: __ZNSt3__119__libcpp_deallocateB8ue170006EPvmm, symObjAddr: 0x3220, symBinAddr: 0x1000045BC, symSize: 0x30 }
  - { offsetInCU: 0x8F4C2, offset: 0x8F4C2, size: 0x8, addend: 0x0, symName: __ZNSt3__127__do_deallocate_handle_sizeB8ue170006IJEEEvPvmDpT_, symObjAddr: 0x3250, symBinAddr: 0x1000045EC, symSize: 0x28 }
  - { offsetInCU: 0x8F500, offset: 0x8F500, size: 0x8, addend: 0x0, symName: __ZNSt3__124__libcpp_operator_deleteB8ue170006IJPvEEEvDpT_, symObjAddr: 0x3278, symBinAddr: 0x100004614, symSize: 0x24 }
  - { offsetInCU: 0x8F56F, offset: 0x8F56F, size: 0x8, addend: 0x0, symName: __ZNSt3__112__to_addressB8ue170006IlEEPT_S2_, symObjAddr: 0x636C, symBinAddr: 0x100007708, symSize: 0x14 }
  - { offsetInCU: 0x8F5AF, offset: 0x8F5AF, size: 0x8, addend: 0x0, symName: __ZNSt3__118__constexpr_strlenB8ue170006EPKc, symObjAddr: 0x72EC, symBinAddr: 0x100008688, symSize: 0x24 }
  - { offsetInCU: 0x8F6CD, offset: 0x8F6CD, size: 0x8, addend: 0x0, symName: __ZNSt3__13getB8ue170006ILm0EJN2pm5aliasIKNS1_11RepeatedColINS1_17SameElementVectorIRKNS1_8RationalEEEEELNS1_10alias_kindE0EEENS2_IRKNS1_6MatrixIS5_EELSB_2EEEEEERNS_13tuple_elementIXT_ENS_5tupleIJDpT0_EEEE4typeERSM_, symObjAddr: 0x9E14, symBinAddr: 0x10000B1B0, symSize: 0x24 }
  - { offsetInCU: 0x8F715, offset: 0x8F715, size: 0x8, addend: 0x0, symName: __ZNSt3__13getB8ue170006ILm1EJN2pm5aliasIKNS1_11RepeatedColINS1_17SameElementVectorIRKNS1_8RationalEEEEELNS1_10alias_kindE0EEENS2_IRKNS1_6MatrixIS5_EELSB_2EEEEEERNS_13tuple_elementIXT_ENS_5tupleIJDpT0_EEEE4typeERSM_, symObjAddr: 0x9F48, symBinAddr: 0x10000B2E4, symSize: 0x28 }
  - { offsetInCU: 0x8F78C, offset: 0x8F78C, size: 0x8, addend: 0x0, symName: __ZNSt3__13getB8ue170006ILm0EJN2pm5aliasIKNS1_11RepeatedColINS1_17SameElementVectorIRKNS1_8RationalEEEEELNS1_10alias_kindE0EEENS2_IRKNS1_6MatrixIS5_EELSB_2EEEEEERKNS_13tuple_elementIXT_ENS_5tupleIJDpT0_EEEE4typeERKSM_, symObjAddr: 0xB1E0, symBinAddr: 0x10000C57C, symSize: 0x24 }
  - { offsetInCU: 0x8F7F5, offset: 0x8F7F5, size: 0x8, addend: 0x0, symName: __ZNSt3__13getB8ue170006ILm1EJN2pm5aliasIKNS1_11RepeatedColINS1_17SameElementVectorIRKNS1_8RationalEEEEELNS1_10alias_kindE0EEENS2_IRKNS1_6MatrixIS5_EELSB_2EEEEEERKNS_13tuple_elementIXT_ENS_5tupleIJDpT0_EEEE4typeERKSM_, symObjAddr: 0xC0D0, symBinAddr: 0x10000D46C, symSize: 0x28 }
  - { offsetInCU: 0x8F857, offset: 0x8F857, size: 0x8, addend: 0x0, symName: __ZNSt3__13getB8ue170006ILm0EJN2pm24unary_transform_iteratorINS1_25binary_transform_iteratorINS1_13iterator_pairINS1_19same_value_iteratorIRKNS1_8RationalEEENS1_14iterator_rangeINS1_17sequence_iteratorIlLb1EEEEEN8polymake5mlistIJNS1_20FeaturesViaSecondTagINSF_IJNS1_13end_sensitiveEEEEEEEEEEENS_4pairINS1_7nothingENS1_10operations6apply2INS1_12BuildUnaryItINSO_11dereferenceEEEvEEEELb0EEENSO_24construct_unary_with_argINS1_17SameElementVectorElvEEEENS3_INS4_INS5_IRKNS1_11Matrix_baseIS6_EEEENS1_15series_iteratorIlLb1EEENSF_IJEEEEENS1_19matrix_line_factoryILb1EvEELb0EEEEEERKNS_13tuple_elementIXT_ENS_5tupleIJDpT0_EEEE4typeERKS1G_, symObjAddr: 0xCCE4, symBinAddr: 0x10000E080, symSize: 0x24 }
  - { offsetInCU: 0x8F908, offset: 0x8F908, size: 0x8, addend: 0x0, symName: __ZNSt3__13getB8ue170006ILm1EJN2pm5aliasIKNS1_17SameElementVectorIRKNS1_8RationalEEELNS1_10alias_kindE0EEENS2_IKNS1_12IndexedSliceINS1_10masqueradeINS1_10ConcatRowsERKNS1_11Matrix_baseIS4_EEEEKNS1_6SeriesIlLb1EEEN8polymake5mlistIJEEEEELS9_0EEEEEERKNS_13tuple_elementIXT_ENS_5tupleIJDpT0_EEEE4typeERKSW_, symObjAddr: 0xDE58, symBinAddr: 0x10000F1F4, symSize: 0x28 }
  - { offsetInCU: 0x8F950, offset: 0x8F950, size: 0x8, addend: 0x0, symName: __ZNSt3__13getB8ue170006ILm0EJN2pm5aliasIKNS1_17SameElementVectorIRKNS1_8RationalEEELNS1_10alias_kindE0EEENS2_IKNS1_12IndexedSliceINS1_10masqueradeINS1_10ConcatRowsERKNS1_11Matrix_baseIS4_EEEEKNS1_6SeriesIlLb1EEEN8polymake5mlistIJEEEEELS9_0EEEEEERKNS_13tuple_elementIXT_ENS_5tupleIJDpT0_EEEE4typeERKSW_, symObjAddr: 0xDF6C, symBinAddr: 0x10000F308, symSize: 0x24 }
  - { offsetInCU: 0x8F9A3, offset: 0x8F9A3, size: 0x8, addend: 0x0, symName: __ZNSt3__121__convert_to_integralB8ue170006El, symObjAddr: 0xE67C, symBinAddr: 0x10000FA18, symSize: 0x14 }
  - { offsetInCU: 0x8F9D0, offset: 0x8F9D0, size: 0x8, addend: 0x0, symName: __ZNSt3__19__advanceB8ue170006IN2pm11ptr_wrapperIKNS1_8RationalELb0EEEEEvRT_NS_15iterator_traitsIS6_E15difference_typeENS_26random_access_iterator_tagE, symObjAddr: 0xE690, symBinAddr: 0x10000FA2C, symSize: 0x2C }
  - { offsetInCU: 0x8FA33, offset: 0x8FA33, size: 0x8, addend: 0x0, symName: __ZNSt3__13getB8ue170006ILm0EJN2pm25binary_transform_iteratorINS1_13iterator_pairINS1_19same_value_iteratorIRKNS1_8RationalEEENS1_14iterator_rangeINS1_17sequence_iteratorIlLb1EEEEEN8polymake5mlistIJNS1_20FeaturesViaSecondTagINSE_IJNS1_13end_sensitiveEEEEEEEEEEENS_4pairINS1_7nothingENS1_10operations6apply2INS1_12BuildUnaryItINSN_11dereferenceEEEvEEEELb0EEENS9_INS1_11ptr_wrapperIS6_Lb0EEEEEEEERKNS_13tuple_elementIXT_ENS_5tupleIJDpT0_EEEE4typeERKS12_, symObjAddr: 0xEA44, symBinAddr: 0x10000FDE0, symSize: 0x24 }
  - { offsetInCU: 0x8FA7B, offset: 0x8FA7B, size: 0x8, addend: 0x0, symName: __ZNSt3__13getB8ue170006ILm1EJN2pm25binary_transform_iteratorINS1_13iterator_pairINS1_19same_value_iteratorIRKNS1_8RationalEEENS1_14iterator_rangeINS1_17sequence_iteratorIlLb1EEEEEN8polymake5mlistIJNS1_20FeaturesViaSecondTagINSE_IJNS1_13end_sensitiveEEEEEEEEEEENS_4pairINS1_7nothingENS1_10operations6apply2INS1_12BuildUnaryItINSN_11dereferenceEEEvEEEELb0EEENS9_INS1_11ptr_wrapperIS6_Lb0EEEEEEEERKNS_13tuple_elementIXT_ENS_5tupleIJDpT0_EEEE4typeERKS12_, symObjAddr: 0xEA7C, symBinAddr: 0x10000FE18, symSize: 0x28 }
  - { offsetInCU: 0x8FAD9, offset: 0x8FAD9, size: 0x8, addend: 0x0, symName: __ZNSt3__13getB8ue170006ILm0EJN2pm25binary_transform_iteratorINS1_13iterator_pairINS1_19same_value_iteratorIRKNS1_8RationalEEENS1_14iterator_rangeINS1_17sequence_iteratorIlLb1EEEEEN8polymake5mlistIJNS1_20FeaturesViaSecondTagINSE_IJNS1_13end_sensitiveEEEEEEEEEEENS_4pairINS1_7nothingENS1_10operations6apply2INS1_12BuildUnaryItINSN_11dereferenceEEEvEEEELb0EEENS9_INS1_11ptr_wrapperIS6_Lb0EEEEEEEERNS_13tuple_elementIXT_ENS_5tupleIJDpT0_EEEE4typeERS12_, symObjAddr: 0xFDB4, symBinAddr: 0x100011150, symSize: 0x24 }
  - { offsetInCU: 0x8FB21, offset: 0x8FB21, size: 0x8, addend: 0x0, symName: __ZNSt3__13getB8ue170006ILm1EJN2pm25binary_transform_iteratorINS1_13iterator_pairINS1_19same_value_iteratorIRKNS1_8RationalEEENS1_14iterator_rangeINS1_17sequence_iteratorIlLb1EEEEEN8polymake5mlistIJNS1_20FeaturesViaSecondTagINSE_IJNS1_13end_sensitiveEEEEEEEEEEENS_4pairINS1_7nothingENS1_10operations6apply2INS1_12BuildUnaryItINSN_11dereferenceEEEvEEEELb0EEENS9_INS1_11ptr_wrapperIS6_Lb0EEEEEEEERNS_13tuple_elementIXT_ENS_5tupleIJDpT0_EEEE4typeERS12_, symObjAddr: 0xFEB0, symBinAddr: 0x10001124C, symSize: 0x28 }
  - { offsetInCU: 0x8FB69, offset: 0x8FB69, size: 0x8, addend: 0x0, symName: __ZNSt3__1lsB8ue170006INS_11char_traitsIcEEEERNS_13basic_ostreamIcT_EES6_c, symObjAddr: 0x1110C, symBinAddr: 0x1000124A8, symSize: 0x34 }
  - { offsetInCU: 0x8FBAF, offset: 0x8FBAF, size: 0x8, addend: 0x0, symName: __ZNSt3__1lsB8ue170006IcNS_11char_traitsIcEEEERNS_13basic_ostreamIT_T0_EES7_RKNS_8__iom_t6E, symObjAddr: 0x11140, symBinAddr: 0x1000124DC, symSize: 0x40 }
  - { offsetInCU: 0x8FBFE, offset: 0x8FBFE, size: 0x8, addend: 0x0, symName: __ZNSt3__14setwB8ue170006Ei, symObjAddr: 0x11180, symBinAddr: 0x10001251C, symSize: 0x2C }
  - { offsetInCU: 0x8FC2C, offset: 0x8FC2C, size: 0x8, addend: 0x0, symName: __ZNSt3__116__pad_and_outputB8ue170006IcNS_11char_traitsIcEEEENS_19ostreambuf_iteratorIT_T0_EES6_PKS4_S8_S8_RNS_8ios_baseES4_, symObjAddr: 0x113EC, symBinAddr: 0x100012788, symSize: 0x240 }
  - { offsetInCU: 0x8FCFC, offset: 0x8FCFC, size: 0x8, addend: 0x0, symName: __ZNSt3__112__to_addressB8ue170006IKcEEPT_S3_, symObjAddr: 0x11800, symBinAddr: 0x100012B9C, symSize: 0x14 }
  - { offsetInCU: 0x8FD64, offset: 0x8FD64, size: 0x8, addend: 0x0, symName: __ZNSt3__19use_facetB8ue170006INS_5ctypeIcEEEERKT_RKNS_6localeE, symObjAddr: 0x11A3C, symBinAddr: 0x100012DD8, symSize: 0x2C }
  - { offsetInCU: 0x902B3, offset: 0x902B3, size: 0x8, addend: 0x0, symName: __ZNSt3__19__advanceB8ue170006IN2pm11ptr_wrapperIKNS1_8RationalELb1EEEEEvRT_NS_15iterator_traitsIS6_E15difference_typeENS_26random_access_iterator_tagE, symObjAddr: 0x12504, symBinAddr: 0x1000138A0, symSize: 0x2C }
  - { offsetInCU: 0x90316, offset: 0x90316, size: 0x8, addend: 0x0, symName: __ZNSt3__13getB8ue170006ILm0EJN2pm14iterator_rangeINS1_11ptr_wrapperIKNS1_8RationalELb1EEEEENS1_25binary_transform_iteratorINS1_13iterator_pairINS1_19same_value_iteratorIRS5_EENS2_INS1_17sequence_iteratorIlLb0EEEEEN8polymake5mlistIJNS1_20FeaturesViaSecondTagINSH_IJNS1_13end_sensitiveEEEEEEEEEEENS_4pairINS1_7nothingENS1_10operations6apply2INS1_12BuildUnaryItINSQ_11dereferenceEEEvEEEELb0EEEEEERKNS_13tuple_elementIXT_ENS_5tupleIJDpT0_EEEE4typeERKS12_, symObjAddr: 0x12EC4, symBinAddr: 0x100014260, symSize: 0x24 }
  - { offsetInCU: 0x90369, offset: 0x90369, size: 0x8, addend: 0x0, symName: __ZNSt3__13getB8ue170006ILm1EJN2pm14iterator_rangeINS1_11ptr_wrapperIKNS1_8RationalELb1EEEEENS1_25binary_transform_iteratorINS1_13iterator_pairINS1_19same_value_iteratorIRS5_EENS2_INS1_17sequence_iteratorIlLb0EEEEEN8polymake5mlistIJNS1_20FeaturesViaSecondTagINSH_IJNS1_13end_sensitiveEEEEEEEEEEENS_4pairINS1_7nothingENS1_10operations6apply2INS1_12BuildUnaryItINSQ_11dereferenceEEEvEEEELb0EEEEEERKNS_13tuple_elementIXT_ENS_5tupleIJDpT0_EEEE4typeERKS12_, symObjAddr: 0x12F64, symBinAddr: 0x100014300, symSize: 0x28 }
  - { offsetInCU: 0x903B1, offset: 0x903B1, size: 0x8, addend: 0x0, symName: __ZNSt3__13getB8ue170006ILm0EJN2pm14iterator_rangeINS1_11ptr_wrapperIKNS1_8RationalELb1EEEEENS1_25binary_transform_iteratorINS1_13iterator_pairINS1_19same_value_iteratorIRS5_EENS2_INS1_17sequence_iteratorIlLb0EEEEEN8polymake5mlistIJNS1_20FeaturesViaSecondTagINSH_IJNS1_13end_sensitiveEEEEEEEEEEENS_4pairINS1_7nothingENS1_10operations6apply2INS1_12BuildUnaryItINSQ_11dereferenceEEEvEEEELb0EEEEEERNS_13tuple_elementIXT_ENS_5tupleIJDpT0_EEEE4typeERS12_, symObjAddr: 0x132E4, symBinAddr: 0x100014680, symSize: 0x24 }
  - { offsetInCU: 0x903F9, offset: 0x903F9, size: 0x8, addend: 0x0, symName: __ZNSt3__13getB8ue170006ILm1EJN2pm14iterator_rangeINS1_11ptr_wrapperIKNS1_8RationalELb1EEEEENS1_25binary_transform_iteratorINS1_13iterator_pairINS1_19same_value_iteratorIRS5_EENS2_INS1_17sequence_iteratorIlLb0EEEEEN8polymake5mlistIJNS1_20FeaturesViaSecondTagINSH_IJNS1_13end_sensitiveEEEEEEEEEEENS_4pairINS1_7nothingENS1_10operations6apply2INS1_12BuildUnaryItINSQ_11dereferenceEEEvEEEELb0EEEEEERNS_13tuple_elementIXT_ENS_5tupleIJDpT0_EEEE4typeERS12_, symObjAddr: 0x13368, symBinAddr: 0x100014704, symSize: 0x28 }
  - { offsetInCU: 0x90491, offset: 0x90491, size: 0x8, addend: 0x0, symName: __ZNSt3__13getB8ue170006ILm1EJN2pm24unary_transform_iteratorINS1_25binary_transform_iteratorINS1_13iterator_pairINS1_19same_value_iteratorIRKNS1_8RationalEEENS1_14iterator_rangeINS1_17sequence_iteratorIlLb1EEEEEN8polymake5mlistIJNS1_20FeaturesViaSecondTagINSF_IJNS1_13end_sensitiveEEEEEEEEEEENS_4pairINS1_7nothingENS1_10operations6apply2INS1_12BuildUnaryItINSO_11dereferenceEEEvEEEELb0EEENSO_24construct_unary_with_argINS1_17SameElementVectorElvEEEENS3_INS4_INS5_IRKNS1_11Matrix_baseIS6_EEEENS1_15series_iteratorIlLb1EEENSF_IJEEEEENS1_19matrix_line_factoryILb1EvEELb0EEEEEERKNS_13tuple_elementIXT_ENS_5tupleIJDpT0_EEEE4typeERKS1G_, symObjAddr: 0x13FF8, symBinAddr: 0x100015394, symSize: 0x28 }
  - { offsetInCU: 0x904F3, offset: 0x904F3, size: 0x8, addend: 0x0, symName: __ZNSt3__13getB8ue170006ILm0EJN2pm24unary_transform_iteratorINS1_25binary_transform_iteratorINS1_13iterator_pairINS1_19same_value_iteratorIRKNS1_8RationalEEENS1_14iterator_rangeINS1_17sequence_iteratorIlLb1EEEEEN8polymake5mlistIJNS1_20FeaturesViaSecondTagINSF_IJNS1_13end_sensitiveEEEEEEEEEEENS_4pairINS1_7nothingENS1_10operations6apply2INS1_12BuildUnaryItINSO_11dereferenceEEEvEEEELb0EEENSO_24construct_unary_with_argINS1_17SameElementVectorElvEEEENS3_INS4_INS5_IRKNS1_11Matrix_baseIS6_EEEENS1_15series_iteratorIlLb1EEENSF_IJEEEEENS1_19matrix_line_factoryILb1EvEELb0EEEEEERNS_13tuple_elementIXT_ENS_5tupleIJDpT0_EEEE4typeERS1G_, symObjAddr: 0x148F8, symBinAddr: 0x100015C94, symSize: 0x24 }
  - { offsetInCU: 0x9053B, offset: 0x9053B, size: 0x8, addend: 0x0, symName: __ZNSt3__13getB8ue170006ILm1EJN2pm24unary_transform_iteratorINS1_25binary_transform_iteratorINS1_13iterator_pairINS1_19same_value_iteratorIRKNS1_8RationalEEENS1_14iterator_rangeINS1_17sequence_iteratorIlLb1EEEEEN8polymake5mlistIJNS1_20FeaturesViaSecondTagINSF_IJNS1_13end_sensitiveEEEEEEEEEEENS_4pairINS1_7nothingENS1_10operations6apply2INS1_12BuildUnaryItINSO_11dereferenceEEEvEEEELb0EEENSO_24construct_unary_with_argINS1_17SameElementVectorElvEEEENS3_INS4_INS5_IRKNS1_11Matrix_baseIS6_EEEENS1_15series_iteratorIlLb1EEENSF_IJEEEEENS1_19matrix_line_factoryILb1EvEELb0EEEEEERNS_13tuple_elementIXT_ENS_5tupleIJDpT0_EEEE4typeERS1G_, symObjAddr: 0x14944, symBinAddr: 0x100015CE0, symSize: 0x28 }
  - { offsetInCU: 0x905A8, offset: 0x905A8, size: 0x8, addend: 0x0, symName: __ZNSt3__13getB8ue170006ILm0EJN2pm24unary_transform_iteratorINS1_25binary_transform_iteratorINS1_13iterator_pairINS1_19same_value_iteratorIRKNS1_8RationalEEENS1_17sequence_iteratorIlLb1EEEN8polymake5mlistIJEEEEENS_4pairINS1_7nothingENS1_10operations6apply2INS1_12BuildUnaryItINSI_11dereferenceEEEvEEEELb0EEENSI_24construct_unary_with_argINS1_17SameElementVectorElvEEEENS3_INS4_INS5_IRKNS1_11Matrix_baseIS6_EEEENS1_15series_iteratorIlLb1EEESE_EENS1_19matrix_line_factoryILb1EvEELb0EEEEEERKNS_13tuple_elementIXT_ENS_5tupleIJDpT0_EEEE4typeERKS19_, symObjAddr: 0x16B1C, symBinAddr: 0x100017EB8, symSize: 0x24 }
  - { offsetInCU: 0x905F0, offset: 0x905F0, size: 0x8, addend: 0x0, symName: __ZNSt3__13getB8ue170006ILm1EJN2pm24unary_transform_iteratorINS1_25binary_transform_iteratorINS1_13iterator_pairINS1_19same_value_iteratorIRKNS1_8RationalEEENS1_17sequence_iteratorIlLb1EEEN8polymake5mlistIJEEEEENS_4pairINS1_7nothingENS1_10operations6apply2INS1_12BuildUnaryItINSI_11dereferenceEEEvEEEELb0EEENSI_24construct_unary_with_argINS1_17SameElementVectorElvEEEENS3_INS4_INS5_IRKNS1_11Matrix_baseIS6_EEEENS1_15series_iteratorIlLb1EEESE_EENS1_19matrix_line_factoryILb1EvEELb0EEEEEERKNS_13tuple_elementIXT_ENS_5tupleIJDpT0_EEEE4typeERKS19_, symObjAddr: 0x16B88, symBinAddr: 0x100017F24, symSize: 0x28 }
  - { offsetInCU: 0x90638, offset: 0x90638, size: 0x8, addend: 0x0, symName: __ZNSt3__13getB8ue170006ILm0EJN2pm24unary_transform_iteratorINS1_25binary_transform_iteratorINS1_13iterator_pairINS1_19same_value_iteratorIRKNS1_8RationalEEENS1_17sequence_iteratorIlLb1EEEN8polymake5mlistIJEEEEENS_4pairINS1_7nothingENS1_10operations6apply2INS1_12BuildUnaryItINSI_11dereferenceEEEvEEEELb0EEENSI_24construct_unary_with_argINS1_17SameElementVectorElvEEEENS3_INS4_INS5_IRKNS1_11Matrix_baseIS6_EEEENS1_15series_iteratorIlLb1EEESE_EENS1_19matrix_line_factoryILb1EvEELb0EEEEEERNS_13tuple_elementIXT_ENS_5tupleIJDpT0_EEEE4typeERS19_, symObjAddr: 0x16CF0, symBinAddr: 0x10001808C, symSize: 0x24 }
  - { offsetInCU: 0x90680, offset: 0x90680, size: 0x8, addend: 0x0, symName: __ZNSt3__13getB8ue170006ILm1EJN2pm24unary_transform_iteratorINS1_25binary_transform_iteratorINS1_13iterator_pairINS1_19same_value_iteratorIRKNS1_8RationalEEENS1_17sequence_iteratorIlLb1EEEN8polymake5mlistIJEEEEENS_4pairINS1_7nothingENS1_10operations6apply2INS1_12BuildUnaryItINSI_11dereferenceEEEvEEEELb0EEENSI_24construct_unary_with_argINS1_17SameElementVectorElvEEEENS3_INS4_INS5_IRKNS1_11Matrix_baseIS6_EEEENS1_15series_iteratorIlLb1EEESE_EENS1_19matrix_line_factoryILb1EvEELb0EEEEEERNS_13tuple_elementIXT_ENS_5tupleIJDpT0_EEEE4typeERS19_, symObjAddr: 0x16D3C, symBinAddr: 0x1000180D8, symSize: 0x28 }
  - { offsetInCU: 0x906E2, offset: 0x906E2, size: 0x8, addend: 0x0, symName: __ZNSt3__13getB8ue170006ILm0EJN2pm24unary_transform_iteratorINS1_25binary_transform_iteratorINS1_13iterator_pairINS1_19same_value_iteratorIRKNS1_8RationalEEENS1_17sequence_iteratorIlLb0EEEN8polymake5mlistIJEEEEENS_4pairINS1_7nothingENS1_10operations6apply2INS1_12BuildUnaryItINSI_11dereferenceEEEvEEEELb0EEENSI_24construct_unary_with_argINS1_17SameElementVectorElvEEEENS3_INS4_INS5_IRKNS1_11Matrix_baseIS6_EEEENS1_15series_iteratorIlLb0EEESE_EENS1_19matrix_line_factoryILb1EvEELb0EEEEEERKNS_13tuple_elementIXT_ENS_5tupleIJDpT0_EEEE4typeERKS19_, symObjAddr: 0x180E4, symBinAddr: 0x100019480, symSize: 0x24 }
  - { offsetInCU: 0x9072A, offset: 0x9072A, size: 0x8, addend: 0x0, symName: __ZNSt3__13getB8ue170006ILm1EJN2pm24unary_transform_iteratorINS1_25binary_transform_iteratorINS1_13iterator_pairINS1_19same_value_iteratorIRKNS1_8RationalEEENS1_17sequence_iteratorIlLb0EEEN8polymake5mlistIJEEEEENS_4pairINS1_7nothingENS1_10operations6apply2INS1_12BuildUnaryItINSI_11dereferenceEEEvEEEELb0EEENSI_24construct_unary_with_argINS1_17SameElementVectorElvEEEENS3_INS4_INS5_IRKNS1_11Matrix_baseIS6_EEEENS1_15series_iteratorIlLb0EEESE_EENS1_19matrix_line_factoryILb1EvEELb0EEEEEERKNS_13tuple_elementIXT_ENS_5tupleIJDpT0_EEEE4typeERKS19_, symObjAddr: 0x18150, symBinAddr: 0x1000194EC, symSize: 0x28 }
  - { offsetInCU: 0x90772, offset: 0x90772, size: 0x8, addend: 0x0, symName: __ZNSt3__13getB8ue170006ILm0EJN2pm24unary_transform_iteratorINS1_25binary_transform_iteratorINS1_13iterator_pairINS1_19same_value_iteratorIRKNS1_8RationalEEENS1_17sequence_iteratorIlLb0EEEN8polymake5mlistIJEEEEENS_4pairINS1_7nothingENS1_10operations6apply2INS1_12BuildUnaryItINSI_11dereferenceEEEvEEEELb0EEENSI_24construct_unary_with_argINS1_17SameElementVectorElvEEEENS3_INS4_INS5_IRKNS1_11Matrix_baseIS6_EEEENS1_15series_iteratorIlLb0EEESE_EENS1_19matrix_line_factoryILb1EvEELb0EEEEEERNS_13tuple_elementIXT_ENS_5tupleIJDpT0_EEEE4typeERS19_, symObjAddr: 0x183A0, symBinAddr: 0x10001973C, symSize: 0x24 }
  - { offsetInCU: 0x907BA, offset: 0x907BA, size: 0x8, addend: 0x0, symName: __ZNSt3__13getB8ue170006ILm1EJN2pm24unary_transform_iteratorINS1_25binary_transform_iteratorINS1_13iterator_pairINS1_19same_value_iteratorIRKNS1_8RationalEEENS1_17sequence_iteratorIlLb0EEEN8polymake5mlistIJEEEEENS_4pairINS1_7nothingENS1_10operations6apply2INS1_12BuildUnaryItINSI_11dereferenceEEEvEEEELb0EEENSI_24construct_unary_with_argINS1_17SameElementVectorElvEEEENS3_INS4_INS5_IRKNS1_11Matrix_baseIS6_EEEENS1_15series_iteratorIlLb0EEESE_EENS1_19matrix_line_factoryILb1EvEELb0EEEEEERNS_13tuple_elementIXT_ENS_5tupleIJDpT0_EEEE4typeERS19_, symObjAddr: 0x183EC, symBinAddr: 0x100019788, symSize: 0x28 }
  - { offsetInCU: 0x90831, offset: 0x90831, size: 0x8, addend: 0x0, symName: __ZNSt3__124__memberwise_copy_assignB8ue170006INS_5tupleIJN2pm25binary_transform_iteratorINS2_13iterator_pairINS2_19same_value_iteratorIRKNS2_8RationalEEENS2_14iterator_rangeINS2_17sequence_iteratorIlLb1EEEEEN8polymake5mlistIJNS2_20FeaturesViaSecondTagINSF_IJNS2_13end_sensitiveEEEEEEEEEEENS_4pairINS2_7nothingENS2_10operations6apply2INS2_12BuildUnaryItINSO_11dereferenceEEEvEEEELb0EEENSA_INS2_11ptr_wrapperIS7_Lb0EEEEEEEESZ_JLm0ELm1EEEEvRT_RKT0_NS_15__tuple_indicesIJXspT1_EEEE, symObjAddr: 0x19C88, symBinAddr: 0x10001B024, symSize: 0x7C }
  - { offsetInCU: 0x9089A, offset: 0x9089A, size: 0x8, addend: 0x0, symName: __ZNSt3__19__swallowB8ue170006IJiiEEEvDpOT_, symObjAddr: 0x19D04, symBinAddr: 0x10001B0A0, symSize: 0x14 }
  - { offsetInCU: 0x908FC, offset: 0x908FC, size: 0x8, addend: 0x0, symName: __ZNSt3__1plB8ue170006IcNS_11char_traitsIcEENS_9allocatorIcEEEENS_12basic_stringIT_T0_T1_EEOS9_SA_, symObjAddr: 0x1AB2C, symBinAddr: 0x10001BEC8, symSize: 0x40 }
  - { offsetInCU: 0x90954, offset: 0x90954, size: 0x8, addend: 0x0, symName: __ZNSt3__1plB8ue170006IcNS_11char_traitsIcEENS_9allocatorIcEEEENS_12basic_stringIT_T0_T1_EEOS9_PKS6_, symObjAddr: 0x1AB6C, symBinAddr: 0x10001BF08, symSize: 0x40 }
  - { offsetInCU: 0x909AC, offset: 0x909AC, size: 0x8, addend: 0x0, symName: __ZNSt3__1plB8ue170006IcNS_11char_traitsIcEENS_9allocatorIcEEEENS_12basic_stringIT_T0_T1_EEPKS6_OS9_, symObjAddr: 0x1ABAC, symBinAddr: 0x10001BF48, symSize: 0x44 }
  - { offsetInCU: 0x90BF2, offset: 0x90BF2, size: 0x8, addend: 0x0, symName: __ZNSt3__19__advanceB8ue170006IN2pm11ptr_wrapperINS1_8RationalELb0EEEEEvRT_NS_15iterator_traitsIS5_E15difference_typeENS_26random_access_iterator_tagE, symObjAddr: 0x38EF4, symBinAddr: 0x10003A290, symSize: 0x2C }
  - { offsetInCU: 0x90C7D, offset: 0x90C7D, size: 0x8, addend: 0x0, symName: __ZNSt3__13maxB8ue170006ImEERKT_S3_S3_, symObjAddr: 0x41FE8, symBinAddr: 0x100043384, symSize: 0x2C }
  - { offsetInCU: 0x90CC0, offset: 0x90CC0, size: 0x8, addend: 0x0, symName: __ZNSt3__13minB8ue170006ImEERKT_S3_S3_, symObjAddr: 0x42014, symBinAddr: 0x1000433B0, symSize: 0x2C }
  - { offsetInCU: 0x90D03, offset: 0x90D03, size: 0x8, addend: 0x0, symName: __ZNSt3__13minB8ue170006ImNS_6__lessIvvEEEERKT_S5_S5_T0_, symObjAddr: 0x4208C, symBinAddr: 0x100043428, symSize: 0x54 }
  - { offsetInCU: 0x90D5E, offset: 0x90D5E, size: 0x8, addend: 0x0, symName: __ZNSt3__120__throw_length_errorB8ue170006EPKc, symObjAddr: 0x42160, symBinAddr: 0x1000434FC, symSize: 0x64 }
  - { offsetInCU: 0x90D88, offset: 0x90D88, size: 0x8, addend: 0x0, symName: __ZNSt3__13maxB8ue170006ImNS_6__lessIvvEEEERKT_S5_S5_T0_, symObjAddr: 0x42244, symBinAddr: 0x1000435E0, symSize: 0x54 }
  - { offsetInCU: 0x90DE2, offset: 0x90DE2, size: 0x8, addend: 0x0, symName: __ZNSt3__119__allocate_at_leastB8ue170006INS_9allocatorIlEEEENS_19__allocation_resultINS_16allocator_traitsIT_E7pointerEEERS5_m, symObjAddr: 0x423A8, symBinAddr: 0x100043744, symSize: 0x40 }
  - { offsetInCU: 0x90E25, offset: 0x90E25, size: 0x8, addend: 0x0, symName: __ZNSt3__142__uninitialized_allocator_move_if_noexceptB8ue170006INS_9allocatorIlEENS_16reverse_iteratorIPlEES5_lvEET1_RT_T0_S9_S6_, symObjAddr: 0x4255C, symBinAddr: 0x1000438F8, symSize: 0x78 }
  - { offsetInCU: 0x90EA2, offset: 0x90EA2, size: 0x8, addend: 0x0, symName: __ZNSt3__14swapB8ue170006IPlEENS_9enable_ifIXaasr21is_move_constructibleIT_EE5valuesr18is_move_assignableIS3_EE5valueEvE4typeERS3_S6_, symObjAddr: 0x42620, symBinAddr: 0x1000439BC, symSize: 0x3C }
  - { offsetInCU: 0x90EF4, offset: 0x90EF4, size: 0x8, addend: 0x0, symName: __ZNSt3__14moveB8ue170006INS_16reverse_iteratorIPlEES3_EET0_T_S5_S4_, symObjAddr: 0x42708, symBinAddr: 0x100043AA4, symSize: 0x78 }
  - { offsetInCU: 0x90F4E, offset: 0x90F4E, size: 0x8, addend: 0x0, symName: __ZNSt3__16__moveB8ue170006INS_17_ClassicAlgPolicyENS_16reverse_iteratorIPlEES4_S4_EENS_4pairIT0_T2_EES6_T1_S7_, symObjAddr: 0x42780, symBinAddr: 0x100043B1C, symSize: 0x64 }
  - { offsetInCU: 0x90FBA, offset: 0x90FBA, size: 0x8, addend: 0x0, symName: __ZNSt3__123__dispatch_copy_or_moveB8ue170006INS_17_ClassicAlgPolicyENS_11__move_loopIS1_EENS_14__move_trivialENS_16reverse_iteratorIPlEES7_S7_EENS_4pairIT2_T4_EES9_T3_SA_, symObjAddr: 0x427E4, symBinAddr: 0x100043B80, symSize: 0x64 }
  - { offsetInCU: 0x91038, offset: 0x91038, size: 0x8, addend: 0x0, symName: __ZNSt3__121__unwrap_and_dispatchB8ue170006INS_10__overloadINS_11__move_loopINS_17_ClassicAlgPolicyEEENS_14__move_trivialEEENS_16reverse_iteratorIPlEES9_S9_Li0EEENS_4pairIT0_T2_EESB_T1_SC_, symObjAddr: 0x42848, symBinAddr: 0x100043BE4, symSize: 0x12C }
  - { offsetInCU: 0x910CB, offset: 0x910CB, size: 0x8, addend: 0x0, symName: __ZNSt3__114__unwrap_rangeB8ue170006INS_16reverse_iteratorIPlEES3_EENS_4pairIT0_S5_EET_S7_, symObjAddr: 0x42974, symBinAddr: 0x100043D10, symSize: 0x84 }
  - { offsetInCU: 0x91246, offset: 0x91246, size: 0x8, addend: 0x0, symName: __ZNSt3__113__unwrap_iterB8ue170006INS_16reverse_iteratorIPlEENS_18__unwrap_iter_implIS3_Lb0EEELi0EEEDTclsrT0_8__unwrapclsr3stdE7declvalIT_EEEES7_, symObjAddr: 0x42A98, symBinAddr: 0x100043E34, symSize: 0x44 }
  - { offsetInCU: 0x9128B, offset: 0x9128B, size: 0x8, addend: 0x0, symName: __ZNSt3__19make_pairB8ue170006INS_16reverse_iteratorIPlEES3_EENS_4pairINS_18__unwrap_ref_decayIT_E4typeENS5_IT0_E4typeEEEOS6_OS9_, symObjAddr: 0x42ADC, symBinAddr: 0x100043E78, symSize: 0x38 }
  - { offsetInCU: 0x912DA, offset: 0x912DA, size: 0x8, addend: 0x0, symName: __ZNSt3__114__rewrap_rangeB8ue170006INS_16reverse_iteratorIPlEES3_EET_S4_T0_, symObjAddr: 0x42B14, symBinAddr: 0x100043EB0, symSize: 0x5C }
  - { offsetInCU: 0x91326, offset: 0x91326, size: 0x8, addend: 0x0, symName: __ZNSt3__113__rewrap_iterB8ue170006INS_16reverse_iteratorIPlEES3_NS_18__unwrap_iter_implIS3_Lb0EEEEET_S6_T0_, symObjAddr: 0x42B70, symBinAddr: 0x100043F0C, symSize: 0x74 }
  - { offsetInCU: 0x9137B, offset: 0x9137B, size: 0x8, addend: 0x0, symName: __ZNSt3__1neB8ue170006IPlS1_EEbRKNS_16reverse_iteratorIT_EERKNS2_IT0_EE, symObjAddr: 0x42BE4, symBinAddr: 0x100043F80, symSize: 0x48 }
  - { offsetInCU: 0x92714, offset: 0x92714, size: 0x8, addend: 0x0, symName: __ZSt28__throw_bad_array_new_lengthB8ue170006v, symObjAddr: 0x30D0, symBinAddr: 0x10000446C, symSize: 0x34 }
  - { offsetInCU: 0x92E56, offset: 0x92E56, size: 0x8, addend: 0x0, symName: __ZN2pm12shared_arrayINS_8RationalEJNS_13PrefixDataTagINS_11Matrix_baseIS1_E5dim_tEEENS_15AliasHandlerTagINS_20shared_alias_handlerEEEEE3rep15construct_emptyENSt3__117integral_constantIbLb0EEE, symObjAddr: 0x8C94, symBinAddr: 0x10000A030, symSize: 0x9C }
  - { offsetInCU: 0x92E77, offset: 0x92E77, size: 0x8, addend: 0x0, symName: __ZZN2pm12shared_arrayINS_8RationalEJNS_13PrefixDataTagINS_11Matrix_baseIS1_E5dim_tEEENS_15AliasHandlerTagINS_20shared_alias_handlerEEEEE3rep15construct_emptyENSt3__117integral_constantIbLb0EEEE5empty, symObjAddr: 0x58398, symBinAddr: 0x10006C000, symSize: 0x0 }
  - { offsetInCU: 0x93229, offset: 0x93229, size: 0x8, addend: 0x0, symName: __ZN2pm4perl10type_cacheINS_8RationalEE4dataEP2svS5_S5_S5_, symObjAddr: 0xF664, symBinAddr: 0x100010A00, symSize: 0xEC }
  - { offsetInCU: 0x93249, offset: 0x93249, size: 0x8, addend: 0x0, symName: __ZZN2pm4perl10type_cacheINS_8RationalEE4dataEP2svS5_S5_S5_E5infos, symObjAddr: 0x583C0, symBinAddr: 0x10006C028, symSize: 0x0 }
  - { offsetInCU: 0x940BE, offset: 0x940BE, size: 0x8, addend: 0x0, symName: __ZN2pm4perl10type_cacheINS_11VectorChainIN8polymake5mlistIJKNS_17SameElementVectorIRKNS_8RationalEEEKNS_12IndexedSliceINS_10masqueradeINS_10ConcatRowsERKNS_11Matrix_baseIS6_EEEEKNS_6SeriesIlLb1EEENS4_IJEEEEEEEEEEE4dataEP2svST_ST_ST_, symObjAddr: 0xFF38, symBinAddr: 0x1000112D4, symSize: 0xEC }
  - { offsetInCU: 0x940DE, offset: 0x940DE, size: 0x8, addend: 0x0, symName: __ZZN2pm4perl10type_cacheINS_11VectorChainIN8polymake5mlistIJKNS_17SameElementVectorIRKNS_8RationalEEEKNS_12IndexedSliceINS_10masqueradeINS_10ConcatRowsERKNS_11Matrix_baseIS6_EEEEKNS_6SeriesIlLb1EEENS4_IJEEEEEEEEEEE4dataEP2svST_ST_ST_E5infos, symObjAddr: 0x583E0, symBinAddr: 0x10006C048, symSize: 0x0 }
  - { offsetInCU: 0x94121, offset: 0x94121, size: 0x8, addend: 0x0, symName: __ZN2pm4perl10type_cacheINS_6VectorINS_8RationalEEEE4dataEP2svS7_S7_S7_, symObjAddr: 0x10274, symBinAddr: 0x100011610, symSize: 0xEC }
  - { offsetInCU: 0x94141, offset: 0x94141, size: 0x8, addend: 0x0, symName: __ZZN2pm4perl10type_cacheINS_6VectorINS_8RationalEEEE4dataEP2svS7_S7_S7_E5infos, symObjAddr: 0x58400, symBinAddr: 0x10006C068, symSize: 0x0 }
  - { offsetInCU: 0x9462C, offset: 0x9462C, size: 0x8, addend: 0x0, symName: __ZN2pm4perl10type_cacheINS_11BlockMatrixIN8polymake5mlistIJKNS_11RepeatedColINS_17SameElementVectorIRKNS_8RationalEEEEERKNS_6MatrixIS7_EEEEENSt3__117integral_constantIbLb0EEEEEE4dataEP2svSO_SO_SO_, symObjAddr: 0x14BBC, symBinAddr: 0x100015F58, symSize: 0xEC }
  - { offsetInCU: 0x9464C, offset: 0x9464C, size: 0x8, addend: 0x0, symName: __ZZN2pm4perl10type_cacheINS_11BlockMatrixIN8polymake5mlistIJKNS_11RepeatedColINS_17SameElementVectorIRKNS_8RationalEEEEERKNS_6MatrixIS7_EEEEENSt3__117integral_constantIbLb0EEEEEE4dataEP2svSO_SO_SO_E5infos, symObjAddr: 0x58420, symBinAddr: 0x10006C088, symSize: 0x0 }
  - { offsetInCU: 0x9468F, offset: 0x9468F, size: 0x8, addend: 0x0, symName: __ZN2pm4perl10type_cacheINS_6MatrixINS_8RationalEEEE4dataEP2svS7_S7_S7_, symObjAddr: 0x14EF8, symBinAddr: 0x100016294, symSize: 0xEC }
  - { offsetInCU: 0x946AF, offset: 0x946AF, size: 0x8, addend: 0x0, symName: __ZZN2pm4perl10type_cacheINS_6MatrixINS_8RationalEEEE4dataEP2svS7_S7_S7_E5infos, symObjAddr: 0x58440, symBinAddr: 0x10006C0A8, symSize: 0x0 }
  - { offsetInCU: 0x95A2F, offset: 0x95A2F, size: 0x8, addend: 0x0, symName: __ZN2pm4perl10type_cacheINS_15IncidenceMatrixINS_12NonSymmetricEEEE4dataEP2svS7_S7_S7_, symObjAddr: 0x1B8FC, symBinAddr: 0x10001CC98, symSize: 0xEC }
  - { offsetInCU: 0x95A4F, offset: 0x95A4F, size: 0x8, addend: 0x0, symName: __ZZN2pm4perl10type_cacheINS_15IncidenceMatrixINS_12NonSymmetricEEEE4dataEP2svS7_S7_S7_E5infos, symObjAddr: 0x58460, symBinAddr: 0x10006C0C8, symSize: 0x0 }
  - { offsetInCU: 0x95A9E, offset: 0x95A9E, size: 0x8, addend: 0x0, symName: __ZN2pm4perl10type_cacheINS_12NonSymmetricEE4dataEP2svS5_S5_S5_, symObjAddr: 0x1BCD0, symBinAddr: 0x10001D06C, symSize: 0xEC }
  - { offsetInCU: 0x95ABE, offset: 0x95ABE, size: 0x8, addend: 0x0, symName: __ZZN2pm4perl10type_cacheINS_12NonSymmetricEE4dataEP2svS5_S5_S5_E5infos, symObjAddr: 0x58480, symBinAddr: 0x10006C0E8, symSize: 0x0 }
  - { offsetInCU: 0x96041, offset: 0x96041, size: 0x8, addend: 0x0, symName: __ZN2pm4perl10type_cacheINS_14incidence_lineIRNS_3AVL4treeINS_8sparse2d6traitsINS5_11traits_baseINS_7nothingELb1ELb0ELNS5_16restriction_kindE0EEELb0ELS9_0EEEEEEEE4dataEP2svSH_SH_SH_, symObjAddr: 0x2E090, symBinAddr: 0x10002F42C, symSize: 0xEC }
  - { offsetInCU: 0x96061, offset: 0x96061, size: 0x8, addend: 0x0, symName: __ZZN2pm4perl10type_cacheINS_14incidence_lineIRNS_3AVL4treeINS_8sparse2d6traitsINS5_11traits_baseINS_7nothingELb1ELb0ELNS5_16restriction_kindE0EEELb0ELS9_0EEEEEEEE4dataEP2svSH_SH_SH_E5infos, symObjAddr: 0x584A0, symBinAddr: 0x10006C108, symSize: 0x0 }
  - { offsetInCU: 0x960A4, offset: 0x960A4, size: 0x8, addend: 0x0, symName: __ZN2pm4perl10type_cacheINS_3SetIlNS_10operations3cmpEEEE4dataEP2svS8_S8_S8_, symObjAddr: 0x2E3CC, symBinAddr: 0x10002F768, symSize: 0xEC }
  - { offsetInCU: 0x960C4, offset: 0x960C4, size: 0x8, addend: 0x0, symName: __ZZN2pm4perl10type_cacheINS_3SetIlNS_10operations3cmpEEEE4dataEP2svS8_S8_S8_E5infos, symObjAddr: 0x584C0, symBinAddr: 0x10006C128, symSize: 0x0 }
  - { offsetInCU: 0x96113, offset: 0x96113, size: 0x8, addend: 0x0, symName: __ZN2pm4perl10type_cacheIlE4dataEP2svS4_S4_S4_, symObjAddr: 0x2E7A0, symBinAddr: 0x10002FB3C, symSize: 0xEC }
  - { offsetInCU: 0x96133, offset: 0x96133, size: 0x8, addend: 0x0, symName: __ZZN2pm4perl10type_cacheIlE4dataEP2svS4_S4_S4_E5infos, symObjAddr: 0x584E0, symBinAddr: 0x10006C148, symSize: 0x0 }
  - { offsetInCU: 0x962AA, offset: 0x962AA, size: 0x8, addend: 0x0, symName: __ZN2pm4perl10type_cacheINS_14incidence_lineINS_3AVL4treeINS_8sparse2d6traitsINS5_11traits_baseINS_7nothingELb1ELb0ELNS5_16restriction_kindE2EEELb0ELS9_2EEEEEEEE4dataEP2svSG_SG_SG_, symObjAddr: 0x34038, symBinAddr: 0x1000353D4, symSize: 0xEC }
  - { offsetInCU: 0x962CA, offset: 0x962CA, size: 0x8, addend: 0x0, symName: __ZZN2pm4perl10type_cacheINS_14incidence_lineINS_3AVL4treeINS_8sparse2d6traitsINS5_11traits_baseINS_7nothingELb1ELb0ELNS5_16restriction_kindE2EEELb0ELS9_2EEEEEEEE4dataEP2svSG_SG_SG_E5infos, symObjAddr: 0x58500, symBinAddr: 0x10006C168, symSize: 0x0 }
  - { offsetInCU: 0x9630D, offset: 0x9630D, size: 0x8, addend: 0x0, symName: __ZN2pm4perl10type_cacheINS_12IndexedSliceINS_10masqueradeINS_10ConcatRowsERKNS_11Matrix_baseINS_8RationalEEEEEKNS_6SeriesIlLb1EEEN8polymake5mlistIJEEEEEE4dataEP2svSK_SK_SK_, symObjAddr: 0x3A1E8, symBinAddr: 0x10003B584, symSize: 0xEC }
  - { offsetInCU: 0x9632D, offset: 0x9632D, size: 0x8, addend: 0x0, symName: __ZZN2pm4perl10type_cacheINS_12IndexedSliceINS_10masqueradeINS_10ConcatRowsERKNS_11Matrix_baseINS_8RationalEEEEEKNS_6SeriesIlLb1EEEN8polymake5mlistIJEEEEEE4dataEP2svSK_SK_SK_E5infos, symObjAddr: 0x58520, symBinAddr: 0x10006C188, symSize: 0x0 }
  - { offsetInCU: 0x97B95, offset: 0x97B95, size: 0x8, addend: 0x0, symName: __ZN2pm4perl10type_cacheINS_5graph5GraphINS2_10UndirectedEEEE4dataEP2svS8_S8_S8_, symObjAddr: 0x3CD08, symBinAddr: 0x10003E0A4, symSize: 0xEC }
  - { offsetInCU: 0x97BB5, offset: 0x97BB5, size: 0x8, addend: 0x0, symName: __ZZN2pm4perl10type_cacheINS_5graph5GraphINS2_10UndirectedEEEE4dataEP2svS8_S8_S8_E5infos, symObjAddr: 0x58540, symBinAddr: 0x10006C1A8, symSize: 0x0 }
  - { offsetInCU: 0x97C04, offset: 0x97C04, size: 0x8, addend: 0x0, symName: __ZN2pm4perl10type_cacheINS_5graph10UndirectedEE4dataEP2svS6_S6_S6_, symObjAddr: 0x3D0DC, symBinAddr: 0x10003E478, symSize: 0xEC }
  - { offsetInCU: 0x97C24, offset: 0x97C24, size: 0x8, addend: 0x0, symName: __ZZN2pm4perl10type_cacheINS_5graph10UndirectedEE4dataEP2svS6_S6_S6_E5infos, symObjAddr: 0x58560, symBinAddr: 0x10006C1C8, symSize: 0x0 }
  - { offsetInCU: 0x97C67, offset: 0x97C67, size: 0x8, addend: 0x0, symName: __ZN2pm4perl10type_cacheINS_5graph18incident_edge_listINS_3AVL4treeINS_8sparse2d6traitsINS2_11traits_baseINS2_10UndirectedELb0ELNS6_16restriction_kindE0EEELb1ELSA_0EEEEEEEE4dataEP2svSH_SH_SH_, symObjAddr: 0x48C20, symBinAddr: 0x100049FBC, symSize: 0xEC }
  - { offsetInCU: 0x97C87, offset: 0x97C87, size: 0x8, addend: 0x0, symName: __ZZN2pm4perl10type_cacheINS_5graph18incident_edge_listINS_3AVL4treeINS_8sparse2d6traitsINS2_11traits_baseINS2_10UndirectedELb0ELNS6_16restriction_kindE0EEELb1ELSA_0EEEEEEEE4dataEP2svSH_SH_SH_E5infos, symObjAddr: 0x58580, symBinAddr: 0x10006C1E8, symSize: 0x0 }
  - { offsetInCU: 0x98EA2, offset: 0x98EA2, size: 0x8, addend: 0x0, symName: __ZN2pm5graph5TableINS0_10UndirectedEED2Ev, symObjAddr: 0x564C, symBinAddr: 0x1000069E8, symSize: 0x5C }
  - { offsetInCU: 0x9AD42, offset: 0x9AD42, size: 0x8, addend: 0x0, symName: __ZNK2pm4perl5Value13retrieve_copyINS_15IncidenceMatrixINS_12NonSymmetricEEEEET_NSt3__19enable_ifIXaaaasr3std21is_copy_constructibleIS6_EE5valuentsr14mlist_containsIN8polymake5mlistIJNS0_9UndefinedENS9_9AnyStringENS7_12basic_stringIcNS7_11char_traitsIcEENS7_9allocatorIcEEEENS0_9BigObjectENS0_13BigObjectTypeENS0_13PropertyValueENS0_6ScalarENS0_10ArrayOwnerIS1_EENS0_4HashENS0_10ListReturnENS_5ArrayISJ_JEEEEEES6_EE5valuesr23check_for_magic_storageIS6_EE5valueEDnE4typeE, symObjAddr: 0x1A5D0, symBinAddr: 0x10001B96C, symSize: 0x3BC }
  - { offsetInCU: 0x9BBE4, offset: 0x9BBE4, size: 0x8, addend: 0x0, symName: __ZNK2pm4perl5Value8retrieveINS_14incidence_lineIRNS_3AVL4treeINS_8sparse2d6traitsINS6_11traits_baseINS_7nothingELb1ELb0ELNS6_16restriction_kindE0EEELb0ELSA_0EEEEEEEEENSt3__19enable_ifIXaasr3std18is_copy_assignableIT_EE5valuentoosr20represents_BigObjectISI_EE5valuesr3std7is_enumISI_EE5valueEPNSG_17integral_constantIbLb1EEEE4typeERSI_, symObjAddr: 0x2BCBC, symBinAddr: 0x10002D058, symSize: 0x308 }
  - { offsetInCU: 0x9BE0F, offset: 0x9BE0F, size: 0x8, addend: 0x0, symName: __ZNK2pm4perl5Value8retrieveINS_14incidence_lineINS_3AVL4treeINS_8sparse2d6traitsINS6_11traits_baseINS_7nothingELb1ELb0ELNS6_16restriction_kindE2EEELb0ELSA_2EEEEEEEEENSt3__19enable_ifIXaasr3std18is_copy_assignableIT_EE5valuentoosr20represents_BigObjectISH_EE5valuesr3std7is_enumISH_EE5valueEPNSF_17integral_constantIbLb1EEEE4typeERSH_, symObjAddr: 0x32518, symBinAddr: 0x1000338B4, symSize: 0x308 }
  - { offsetInCU: 0x9C549, offset: 0x9C549, size: 0x8, addend: 0x0, symName: __ZNK2pm4perl5Value13retrieve_copyINS_5graph5GraphINS3_10UndirectedEEEEET_NSt3__19enable_ifIXaaaasr3std21is_copy_constructibleIS7_EE5valuentsr14mlist_containsIN8polymake5mlistIJNS0_9UndefinedENSA_9AnyStringENS8_12basic_stringIcNS8_11char_traitsIcEENS8_9allocatorIcEEEENS0_9BigObjectENS0_13BigObjectTypeENS0_13PropertyValueENS0_6ScalarENS0_10ArrayOwnerIS1_EENS0_4HashENS0_10ListReturnENS_5ArrayISK_JEEEEEES7_EE5valuesr23check_for_magic_storageIS7_EE5valueEDnE4typeE, symObjAddr: 0x3BA00, symBinAddr: 0x10003CD9C, symSize: 0x3BC }
  - { offsetInCU: 0x9C670, offset: 0x9C670, size: 0x8, addend: 0x0, symName: __ZNSt3__16vectorIlNS_9allocatorIlEEE26__swap_out_circular_bufferERNS_14__split_bufferIlRS2_EE, symObjAddr: 0x41E30, symBinAddr: 0x1000431CC, symSize: 0x110 }
  - { offsetInCU: 0x9CC5D, offset: 0x9CC5D, size: 0x8, addend: 0x0, symName: __ZNK2pm4perl5Value8retrieveINS_5graph18incident_edge_listINS_3AVL4treeINS_8sparse2d6traitsINS3_11traits_baseINS3_10UndirectedELb0ELNS7_16restriction_kindE0EEELb1ELSB_0EEEEEEEEENSt3__19enable_ifIXaasr3std18is_copy_assignableIT_EE5valuentoosr20represents_BigObjectISI_EE5valuesr3std7is_enumISI_EE5valueEPNSG_17integral_constantIbLb1EEEE4typeERSI_, symObjAddr: 0x47C98, symBinAddr: 0x100049034, symSize: 0x2C4 }
  - { offsetInCU: 0x9DAE6, offset: 0x9DAE6, size: 0x8, addend: 0x0, symName: __Z7isspacei, symObjAddr: 0x28640, symBinAddr: 0x1000299DC, symSize: 0x28 }
  - { offsetInCU: 0x9F922, offset: 0x9F922, size: 0x8, addend: 0x0, symName: __ZNK2pm7Integer4dumpEv, symObjAddr: 0x0, symBinAddr: 0x10000139C, symSize: 0x38 }
  - { offsetInCU: 0x9F948, offset: 0x9F948, size: 0x8, addend: 0x0, symName: __ZNSt3__113basic_ostreamIcNS_11char_traitsIcEEElsB8ue170006EPFRS3_S4_E, symObjAddr: 0xF8, symBinAddr: 0x100001494, symSize: 0x2C }
  - { offsetInCU: 0x9F97C, offset: 0x9F97C, size: 0x8, addend: 0x0, symName: __ZNK2pm8Rational4dumpEv, symObjAddr: 0x14C, symBinAddr: 0x1000014E8, symSize: 0x38 }
  - { offsetInCU: 0x9F9A2, offset: 0x9F9A2, size: 0x8, addend: 0x0, symName: _main, symObjAddr: 0x1B4, symBinAddr: 0x100001550, symSize: 0x960 }
  - { offsetInCU: 0x9FAD6, offset: 0x9FAD6, size: 0x8, addend: 0x0, symName: __ZNSt3__112basic_stringIcNS_11char_traitsIcEENS_9allocatorIcEEEC1B8ue170006ILi0EEEPKc, symObjAddr: 0xB14, symBinAddr: 0x100001EB0, symSize: 0x34 }
  - { offsetInCU: 0x9FB1C, offset: 0x9FB1C, size: 0x8, addend: 0x0, symName: __ZN8polymake9AnyStringC1ILm4EEERAT__Kc, symObjAddr: 0xB48, symBinAddr: 0x100001EE4, symSize: 0x34 }
  - { offsetInCU: 0x9FB64, offset: 0x9FB64, size: 0x8, addend: 0x0, symName: __ZN8polymake9AnyStringC1ILm19EEERAT__Kc, symObjAddr: 0xB7C, symBinAddr: 0x100001F18, symSize: 0x34 }
  - { offsetInCU: 0x9FBA6, offset: 0x9FBA6, size: 0x8, addend: 0x0, symName: __ZN2pm4perl9BigObjectC1IJELDn0EEERKN8polymake9AnyStringEDpOT_, symObjAddr: 0xBB0, symBinAddr: 0x100001F4C, symSize: 0x80 }
  - { offsetInCU: 0x9FC00, offset: 0x9FC00, size: 0x8, addend: 0x0, symName: __ZN2pm6MatrixINS_8RationalEEC1IivEESt16initializer_listIS4_IT_EE, symObjAddr: 0xC30, symBinAddr: 0x100001FCC, symSize: 0x3C }
  - { offsetInCU: 0x9FC42, offset: 0x9FC42, size: 0x8, addend: 0x0, symName: __ZN2pm4perl9BigObject4takeERKN8polymake9AnyStringENS0_13property_kindE, symObjAddr: 0xC6C, symBinAddr: 0x100002008, symSize: 0x5C }
  - { offsetInCU: 0x9FC8C, offset: 0x9FC8C, size: 0x8, addend: 0x0, symName: __ZN8polymake9AnyStringC1ILm9EEERAT__Kc, symObjAddr: 0xCC8, symBinAddr: 0x100002064, symSize: 0x34 }
  - { offsetInCU: 0x9FCCE, offset: 0x9FCCE, size: 0x8, addend: 0x0, symName: __ZN2pm4perl11PropertyOutlsINS_11BlockMatrixIN8polymake5mlistIJKNS_11RepeatedColINS_17SameElementVectorIRKNS_8RationalEEEEERKNS_6MatrixIS8_EEEEENSt3__117integral_constantIbLb0EEEEEEEvOT_, symObjAddr: 0xCFC, symBinAddr: 0x100002098, symSize: 0x38 }
  - { offsetInCU: 0x9FD0B, offset: 0x9FD0B, size: 0x8, addend: 0x0, symName: __ZN2pm11BlockMatrixIN8polymake5mlistIJKNS_11RepeatedColINS_17SameElementVectorIRKNS_8RationalEEEEERKNS_6MatrixIS5_EEEEENSt3__117integral_constantIbLb0EEEED1Ev, symObjAddr: 0xD9C, symBinAddr: 0x100002138, symSize: 0x2C }
  - { offsetInCU: 0x9FD38, offset: 0x9FD38, size: 0x8, addend: 0x0, symName: __ZN2pm4perl11PropertyOutD1Ev, symObjAddr: 0xDC8, symBinAddr: 0x100002164, symSize: 0x2C }
  - { offsetInCU: 0x9FD62, offset: 0x9FD62, size: 0x8, addend: 0x0, symName: __ZNK2pm4perl9BigObject4giveIJEEENS0_13PropertyValueERKN8polymake9AnyStringEDpRKT_, symObjAddr: 0xDF4, symBinAddr: 0x100002190, symSize: 0x40 }
  - { offsetInCU: 0x9FD9C, offset: 0x9FD9C, size: 0x8, addend: 0x0, symName: __ZNK2pm4perl5ValuecvT_INS_15IncidenceMatrixINS_12NonSymmetricEEEEEv, symObjAddr: 0xE34, symBinAddr: 0x1000021D0, symSize: 0x30 }
  - { offsetInCU: 0x9FDCB, offset: 0x9FDCB, size: 0x8, addend: 0x0, symName: __ZN2pm6VectorINS_8RationalEEC1IivEESt16initializer_listIT_E, symObjAddr: 0xE64, symBinAddr: 0x100002200, symSize: 0x3C }
  - { offsetInCU: 0x9FE0D, offset: 0x9FE0D, size: 0x8, addend: 0x0, symName: __ZNK2pm6MatrixINS_8RationalEE4rowsEv, symObjAddr: 0xEA0, symBinAddr: 0x10000223C, symSize: 0x28 }
  - { offsetInCU: 0x9FE33, offset: 0x9FE33, size: 0x8, addend: 0x0, symName: __ZNK2pm6MatrixINS_8RationalEE4colsEv, symObjAddr: 0xEC8, symBinAddr: 0x100002264, symSize: 0x28 }
  - { offsetInCU: 0x9FE59, offset: 0x9FE59, size: 0x8, addend: 0x0, symName: __ZN2pm6MatrixINS_8RationalEEC1Ell, symObjAddr: 0xEF0, symBinAddr: 0x10000228C, symSize: 0x3C }
  - { offsetInCU: 0x9FEA5, offset: 0x9FEA5, size: 0x8, addend: 0x0, symName: __ZN2pm18matrix_row_methodsINS_6MatrixINS_8RationalEEENSt3__126random_access_iterator_tagEE3rowEl, symObjAddr: 0x100C, symBinAddr: 0x1000023A8, symSize: 0xD4 }
  - { offsetInCU: 0x9FED9, offset: 0x9FED9, size: 0x8, addend: 0x0, symName: __ZN2pm18matrix_row_methodsINS_6MatrixINS_8RationalEEENSt3__126random_access_iterator_tagEEixEl, symObjAddr: 0x10E0, symBinAddr: 0x10000247C, symSize: 0xD4 }
  - { offsetInCU: 0x9FF0D, offset: 0x9FF0D, size: 0x8, addend: 0x0, symName: __ZN2pm13GenericVectorINS_12IndexedSliceINS_10masqueradeINS_10ConcatRowsERNS_11Matrix_baseINS_8RationalEEEEEKNS_6SeriesIlLb1EEEN8polymake5mlistIJEEEEES5_EaSINS_11LazyVector2IKSF_RKNS_6VectorIS5_EENS_11BuildBinaryINS_10operations3subEEEEES5_vEERSF_RKNS0_IT_T0_EE, symObjAddr: 0x11B4, symBinAddr: 0x100002550, symSize: 0xD0 }
  - { offsetInCU: 0x9FF54, offset: 0x9FF54, size: 0x8, addend: 0x0, symName: __ZN2pm12IndexedSliceINS_10masqueradeINS_10ConcatRowsERNS_11Matrix_baseINS_8RationalEEEEEKNS_6SeriesIlLb1EEEN8polymake5mlistIJEEEED1Ev, symObjAddr: 0x1284, symBinAddr: 0x100002620, symSize: 0x2C }
  - { offsetInCU: 0x9FF87, offset: 0x9FF87, size: 0x8, addend: 0x0, symName: __ZN2pm11LazyVector2IKNS_12IndexedSliceINS_10masqueradeINS_10ConcatRowsERNS_11Matrix_baseINS_8RationalEEEEEKNS_6SeriesIlLb1EEEN8polymake5mlistIJEEEEERKNS_6VectorIS5_EENS_11BuildBinaryINS_10operations3subEEEED1Ev, symObjAddr: 0x12B0, symBinAddr: 0x10000264C, symSize: 0x2C }
  - { offsetInCU: 0x9FFBA, offset: 0x9FFBA, size: 0x8, addend: 0x0, symName: __ZN8polymake9AnyStringC1ILm32EEERAT__Kc, symObjAddr: 0x12DC, symBinAddr: 0x100002678, symSize: 0x34 }
  - { offsetInCU: 0xA0002, offset: 0xA0002, size: 0x8, addend: 0x0, symName: __ZN8polymake9AnyStringC1ILm12EEERAT__Kc, symObjAddr: 0x1310, symBinAddr: 0x1000026AC, symSize: 0x34 }
  - { offsetInCU: 0xA0044, offset: 0xA0044, size: 0x8, addend: 0x0, symName: __ZN2pm4perl11PropertyOutlsIRNS_6MatrixINS_8RationalEEEEEvOT_, symObjAddr: 0x1344, symBinAddr: 0x1000026E0, symSize: 0x38 }
  - { offsetInCU: 0xA0087, offset: 0xA0087, size: 0x8, addend: 0x0, symName: __ZN8polymake9AnyStringC1ILm16EEERAT__Kc, symObjAddr: 0x137C, symBinAddr: 0x100002718, symSize: 0x34 }
  - { offsetInCU: 0xA00C9, offset: 0xA00C9, size: 0x8, addend: 0x0, symName: __ZNK2pm4perl5ValuecvT_INS_5graph5GraphINS4_10UndirectedEEEEEv, symObjAddr: 0x13B0, symBinAddr: 0x10000274C, symSize: 0x30 }
  - { offsetInCU: 0xA00F8, offset: 0xA00F8, size: 0x8, addend: 0x0, symName: __ZN2pm15IncidenceMatrixINS_12NonSymmetricEEC1INS_15AdjacencyMatrixINS_5graph5GraphINS5_10UndirectedEEELb0EEEvEERKNS_22GenericIncidenceMatrixIT_EE, symObjAddr: 0x1404, symBinAddr: 0x1000027A0, symSize: 0x34 }
  - { offsetInCU: 0xA0147, offset: 0xA0147, size: 0x8, addend: 0x0, symName: __ZN2pm17GenericOutputImplINS_12PlainPrinterIN8polymake5mlistIJEEENSt3__111char_traitsIcEEEEElsILm7EEERS8_RAT__Kc, symObjAddr: 0x146C, symBinAddr: 0x100002808, symSize: 0x40 }
  - { offsetInCU: 0xA0186, offset: 0xA0186, size: 0x8, addend: 0x0, symName: __ZN2pm17GenericOutputImplINS_12PlainPrinterIN8polymake5mlistIJEEENSt3__111char_traitsIcEEEEElsINS_15IncidenceMatrixINS_12NonSymmetricEEEEERS8_RKT_, symObjAddr: 0x1504, symBinAddr: 0x1000028A0, symSize: 0x44 }
  - { offsetInCU: 0xA01C4, offset: 0xA01C4, size: 0x8, addend: 0x0, symName: __ZN2pm17GenericOutputImplINS_12PlainPrinterIN8polymake5mlistIJEEENSt3__111char_traitsIcEEEEElsILm4EEERS8_RAT__Kc, symObjAddr: 0x1548, symBinAddr: 0x1000028E4, symSize: 0x40 }
  - { offsetInCU: 0xA0203, offset: 0xA0203, size: 0x8, addend: 0x0, symName: __ZNK2pm18matrix_row_methodsINS_15IncidenceMatrixINS_12NonSymmetricEEENSt3__120forward_iterator_tagEE4rowsEv, symObjAddr: 0x1588, symBinAddr: 0x100002924, symSize: 0x28 }
  - { offsetInCU: 0xA022F, offset: 0xA022F, size: 0x8, addend: 0x0, symName: __ZN2pm18matrix_row_methodsINS_15IncidenceMatrixINS_12NonSymmetricEEENSt3__126random_access_iterator_tagEE3rowEl, symObjAddr: 0x15B0, symBinAddr: 0x10000294C, symSize: 0xD4 }
  - { offsetInCU: 0xA0263, offset: 0xA0263, size: 0x8, addend: 0x0, symName: __ZNK2pm30modified_container_elem_accessINS_14incidence_lineIRNS_3AVL4treeINS_8sparse2d6traitsINS4_11traits_baseINS_7nothingELb1ELb0ELNS4_16restriction_kindE0EEELb0ELS8_0EEEEEEEN8polymake5mlistIJNS_12ContainerTagINS4_4lineISB_EEEENS_12OperationTagINS_12BuildUnaryItINS_10operations13index2elementEEEEEEEENSt3__118input_iterator_tagELb1ELb0EE4sizeEv, symObjAddr: 0x1684, symBinAddr: 0x100002A20, symSize: 0x2C }
  - { offsetInCU: 0xA0289, offset: 0xA0289, size: 0x8, addend: 0x0, symName: __ZN2pm14incidence_lineIRNS_3AVL4treeINS_8sparse2d6traitsINS3_11traits_baseINS_7nothingELb1ELb0ELNS3_16restriction_kindE0EEELb0ELS7_0EEEEEED1Ev, symObjAddr: 0x16B0, symBinAddr: 0x100002A4C, symSize: 0x2C }
  - { offsetInCU: 0xA02B5, offset: 0xA02B5, size: 0x8, addend: 0x0, symName: __ZN2pm17GenericOutputImplINS_12PlainPrinterIN8polymake5mlistIJEEENSt3__111char_traitsIcEEEEElsINS_17sparse_elem_proxyINS_20incidence_proxy_baseINS_14incidence_lineINS_3AVL4treeINS_8sparse2d6traitsINSG_11traits_baseINS_7nothingELb1ELb0ELNSG_16restriction_kindE0EEELb0ELSK_0EEEEEEEEEbJEEEEERS8_RKT_, symObjAddr: 0x16DC, symBinAddr: 0x100002A78, symSize: 0x44 }
  - { offsetInCU: 0xA02F3, offset: 0xA02F3, size: 0x8, addend: 0x0, symName: __ZN2pm15IncidenceMatrixINS_12NonSymmetricEEclEll, symObjAddr: 0x1720, symBinAddr: 0x100002ABC, symSize: 0x12C }
  - { offsetInCU: 0xA0337, offset: 0xA0337, size: 0x8, addend: 0x0, symName: __ZN2pm15IncidenceMatrixINS_12NonSymmetricEED1Ev, symObjAddr: 0x184C, symBinAddr: 0x100002BE8, symSize: 0x2C }
  - { offsetInCU: 0xA0364, offset: 0xA0364, size: 0x8, addend: 0x0, symName: __ZN2pm5graph5GraphINS0_10UndirectedEED1Ev, symObjAddr: 0x1878, symBinAddr: 0x100002C14, symSize: 0x2C }
  - { offsetInCU: 0xA0391, offset: 0xA0391, size: 0x8, addend: 0x0, symName: __ZN2pm6MatrixINS_8RationalEED1Ev, symObjAddr: 0x18A4, symBinAddr: 0x100002C40, symSize: 0x2C }
  - { offsetInCU: 0xA03BD, offset: 0xA03BD, size: 0x8, addend: 0x0, symName: __ZN2pm6VectorINS_8RationalEED1Ev, symObjAddr: 0x18D0, symBinAddr: 0x100002C6C, symSize: 0x2C }
  - { offsetInCU: 0xA03E9, offset: 0xA03E9, size: 0x8, addend: 0x0, symName: __ZNKSt3__18ios_base5flagsB8ue170006Ev, symObjAddr: 0x18FC, symBinAddr: 0x100002C98, symSize: 0x18 }
  - { offsetInCU: 0xA0428, offset: 0xA0428, size: 0x8, addend: 0x0, symName: __ZN2pm13OutCharBuffer7reserveINSt3__111char_traitsIcEEEENS0_4SlotERNS2_13basic_ostreamIcT_EEl, symObjAddr: 0x1914, symBinAddr: 0x100002CB0, symSize: 0x98 }
  - { offsetInCU: 0xA0471, offset: 0xA0471, size: 0x8, addend: 0x0, symName: __ZNK2pm13OutCharBuffer4SlotcvPcEv, symObjAddr: 0x19AC, symBinAddr: 0x100002D48, symSize: 0x18 }
  - { offsetInCU: 0xA0497, offset: 0xA0497, size: 0x8, addend: 0x0, symName: __ZNKSt3__18ios_base5widthB8ue170006Ev, symObjAddr: 0x19C4, symBinAddr: 0x100002D60, symSize: 0x18 }
  - { offsetInCU: 0xA04BF, offset: 0xA04BF, size: 0x8, addend: 0x0, symName: __ZNSt3__18ios_base5widthB8ue170006El, symObjAddr: 0x19DC, symBinAddr: 0x100002D78, symSize: 0x2C }
  - { offsetInCU: 0xA0505, offset: 0xA0505, size: 0x8, addend: 0x0, symName: __ZNKSt3__19basic_iosIcNS_11char_traitsIcEEE5rdbufB8ue170006Ev, symObjAddr: 0x1A08, symBinAddr: 0x100002DA4, symSize: 0x24 }
  - { offsetInCU: 0xA052D, offset: 0xA052D, size: 0x8, addend: 0x0, symName: __ZNKSt3__18ios_base5rdbufB8ue170006Ev, symObjAddr: 0x1A2C, symBinAddr: 0x100002DC8, symSize: 0x18 }
  - { offsetInCU: 0xA0553, offset: 0xA0553, size: 0x8, addend: 0x0, symName: __ZN8polymake9AnyStringC1Ev, symObjAddr: 0x1A44, symBinAddr: 0x100002DE0, symSize: 0x30 }
  - { offsetInCU: 0xA057D, offset: 0xA057D, size: 0x8, addend: 0x0, symName: __ZN2pm4perl11PropertyOutC1ENS0_13property_kindERKN8polymake9AnyStringE, symObjAddr: 0x1A74, symBinAddr: 0x100002E10, symSize: 0x3C }
  - { offsetInCU: 0xA05C3, offset: 0xA05C3, size: 0x8, addend: 0x0, symName: __ZN8polymake9AnyStringC1EDn, symObjAddr: 0x1AB0, symBinAddr: 0x100002E4C, symSize: 0x34 }
  - { offsetInCU: 0xA05F7, offset: 0xA05F7, size: 0x8, addend: 0x0, symName: __ZN8polymake9AnyStringC2EDn, symObjAddr: 0x1AE4, symBinAddr: 0x100002E80, symSize: 0x20 }
  - { offsetInCU: 0xA062B, offset: 0xA062B, size: 0x8, addend: 0x0, symName: __ZN2pm4perl11PropertyOutC2ENS0_13property_kindERKN8polymake9AnyStringE, symObjAddr: 0x1B04, symBinAddr: 0x100002EA0, symSize: 0xB0 }
  - { offsetInCU: 0xA0671, offset: 0xA0671, size: 0x8, addend: 0x0, symName: __ZN2pm4perl5ValueC1ENS0_10ValueFlagsE, symObjAddr: 0x1BD4, symBinAddr: 0x100002F70, symSize: 0x34 }
  - { offsetInCU: 0xA06AA, offset: 0xA06AA, size: 0x8, addend: 0x0, symName: __ZN2pm4perl5ValueC2ENS0_10ValueFlagsE, symObjAddr: 0x1C08, symBinAddr: 0x100002FA4, symSize: 0x38 }
  - { offsetInCU: 0xA06E9, offset: 0xA06E9, size: 0x8, addend: 0x0, symName: __ZN2pm17SameElementVectorIRKNS_8RationalEECI1NS_24repeated_value_containerIS3_EEIS3_vEEOT_l, symObjAddr: 0x1C94, symBinAddr: 0x100003030, symSize: 0x3C }
  - { offsetInCU: 0xA0728, offset: 0xA0728, size: 0x8, addend: 0x0, symName: __ZN2pm17SameElementVectorIRKNS_8RationalEECI2NS_24repeated_value_containerIS3_EEIS3_vEEOT_l, symObjAddr: 0x1CD0, symBinAddr: 0x10000306C, symSize: 0x44 }
  - { offsetInCU: 0xA0767, offset: 0xA0767, size: 0x8, addend: 0x0, symName: __ZN2pm24repeated_value_containerIRKNS_8RationalEEC2IS3_vEEOT_l, symObjAddr: 0x1D14, symBinAddr: 0x1000030B0, symSize: 0xB0 }
  - { offsetInCU: 0xA07B9, offset: 0xA07B9, size: 0x8, addend: 0x0, symName: __ZN2pm13GenericVectorINS_17SameElementVectorIRKNS_8RationalEEES2_EC2Ev, symObjAddr: 0x1DC4, symBinAddr: 0x100003160, symSize: 0x14 }
  - { offsetInCU: 0xA07E3, offset: 0xA07E3, size: 0x8, addend: 0x0, symName: __ZN2pm5aliasIRKNS_8RationalELNS_10alias_kindE1EEC1ES3_, symObjAddr: 0x1DD8, symBinAddr: 0x100003174, symSize: 0x34 }
  - { offsetInCU: 0xA081B, offset: 0xA081B, size: 0x8, addend: 0x0, symName: __ZN2pm5aliasIRKNS_8RationalELNS_10alias_kindE1EEC2ES3_, symObjAddr: 0x1E0C, symBinAddr: 0x1000031A8, symSize: 0x20 }
  - { offsetInCU: 0xA0853, offset: 0xA0853, size: 0x8, addend: 0x0, symName: __ZN2pm11BlockMatrixIN8polymake5mlistIJKNS_11RepeatedColINS_17SameElementVectorIRKNS_8RationalEEEEERKNS_6MatrixIS5_EEEEENSt3__117integral_constantIbLb0EEEED2Ev, symObjAddr: 0x1E2C, symBinAddr: 0x1000031C8, symSize: 0x2C }
  - { offsetInCU: 0xA0880, offset: 0xA0880, size: 0x8, addend: 0x0, symName: __ZN2pm11alias_tupleIN8polymake5mlistIJKNS_11RepeatedColINS_17SameElementVectorIRKNS_8RationalEEEEERKNS_6MatrixIS5_EEEEEED2Ev, symObjAddr: 0x1E58, symBinAddr: 0x1000031F4, symSize: 0x2C }
  - { offsetInCU: 0xA08AD, offset: 0xA08AD, size: 0x8, addend: 0x0, symName: __ZNSt3__15tupleIJN2pm5aliasIKNS1_11RepeatedColINS1_17SameElementVectorIRKNS1_8RationalEEEEELNS1_10alias_kindE0EEENS2_IRKNS1_6MatrixIS5_EELSB_2EEEEED1Ev, symObjAddr: 0x1E84, symBinAddr: 0x100003220, symSize: 0x2C }
  - { offsetInCU: 0xA08DA, offset: 0xA08DA, size: 0x8, addend: 0x0, symName: __ZNSt3__15tupleIJN2pm5aliasIKNS1_11RepeatedColINS1_17SameElementVectorIRKNS1_8RationalEEEEELNS1_10alias_kindE0EEENS2_IRKNS1_6MatrixIS5_EELSB_2EEEEED2Ev, symObjAddr: 0x1EB0, symBinAddr: 0x10000324C, symSize: 0x2C }
  - { offsetInCU: 0xA0907, offset: 0xA0907, size: 0x8, addend: 0x0, symName: __ZNSt3__112__tuple_implINS_15__tuple_indicesIJLm0ELm1EEEEJN2pm5aliasIKNS3_11RepeatedColINS3_17SameElementVectorIRKNS3_8RationalEEEEELNS3_10alias_kindE0EEENS4_IRKNS3_6MatrixIS7_EELSD_2EEEEED1Ev, symObjAddr: 0x1EDC, symBinAddr: 0x100003278, symSize: 0x2C }
  - { offsetInCU: 0xA0934, offset: 0xA0934, size: 0x8, addend: 0x0, symName: __ZNSt3__112__tuple_implINS_15__tuple_indicesIJLm0ELm1EEEEJN2pm5aliasIKNS3_11RepeatedColINS3_17SameElementVectorIRKNS3_8RationalEEEEELNS3_10alias_kindE0EEENS4_IRKNS3_6MatrixIS7_EELSD_2EEEEED2Ev, symObjAddr: 0x1F08, symBinAddr: 0x1000032A4, symSize: 0x30 }
  - { offsetInCU: 0xA0961, offset: 0xA0961, size: 0x8, addend: 0x0, symName: __ZNSt3__112__tuple_leafILm1EN2pm5aliasIRKNS1_6MatrixINS1_8RationalEEELNS1_10alias_kindE2EEELb0EED2Ev, symObjAddr: 0x1F38, symBinAddr: 0x1000032D4, symSize: 0x2C }
  - { offsetInCU: 0xA098E, offset: 0xA098E, size: 0x8, addend: 0x0, symName: __ZN2pm5aliasIRKNS_6MatrixINS_8RationalEEELNS_10alias_kindE2EED1Ev, symObjAddr: 0x1F64, symBinAddr: 0x100003300, symSize: 0x2C }
  - { offsetInCU: 0xA09BA, offset: 0xA09BA, size: 0x8, addend: 0x0, symName: __ZN2pm5aliasIRKNS_6MatrixINS_8RationalEEELNS_10alias_kindE2EED2Ev, symObjAddr: 0x1F90, symBinAddr: 0x10000332C, symSize: 0x2C }
  - { offsetInCU: 0xA09E6, offset: 0xA09E6, size: 0x8, addend: 0x0, symName: __ZN2pm4perl11PropertyOutD2Ev, symObjAddr: 0x1FBC, symBinAddr: 0x100003358, symSize: 0x58 }
  - { offsetInCU: 0xA0A10, offset: 0xA0A10, size: 0x8, addend: 0x0, symName: __ZNK2pm18matrix_row_methodsINS_6MatrixINS_8RationalEEENSt3__120forward_iterator_tagEE4rowsEv, symObjAddr: 0x2020, symBinAddr: 0x1000033BC, symSize: 0x28 }
  - { offsetInCU: 0xA0A3C, offset: 0xA0A3C, size: 0x8, addend: 0x0, symName: __ZN2pm35modified_container_pair_elem_accessINS_4RowsINS_6MatrixINS_8RationalEEEEEN8polymake5mlistIJNS_13Container1TagINS_20same_value_containerIRNS_11Matrix_baseIS3_EEEEEENS_13Container2TagINS_6SeriesIlLb0EEEEENS_12OperationTagINS_19matrix_line_factoryILb1EvEEEENS_9HiddenTagINSt3__117integral_constantIbLb1EEEEEEEENSO_26random_access_iterator_tagELb1ELb0EEixEl, symObjAddr: 0x2070, symBinAddr: 0x10000340C, symSize: 0x68 }
  - { offsetInCU: 0xA0A8F, offset: 0xA0A8F, size: 0x8, addend: 0x0, symName: __ZNK2pm35modified_container_pair_elem_accessINS_4RowsINS_6MatrixINS_8RationalEEEEEN8polymake5mlistIJNS_13Container1TagINS_20same_value_containerIRNS_11Matrix_baseIS3_EEEEEENS_13Container2TagINS_6SeriesIlLb0EEEEENS_12OperationTagINS_19matrix_line_factoryILb1EvEEEENS_9HiddenTagINSt3__117integral_constantIbLb1EEEEEEEENSO_18input_iterator_tagELb1ELb0EE4sizeEv, symObjAddr: 0x2100, symBinAddr: 0x10000349C, symSize: 0x24 }
  - { offsetInCU: 0xA0AB5, offset: 0xA0AB5, size: 0x8, addend: 0x0, symName: __ZNK2pm35modified_container_pair_elem_accessINS_4RowsINS_6MatrixINS_8RationalEEEEEN8polymake5mlistIJNS_13Container1TagINS_20same_value_containerIRNS_11Matrix_baseIS3_EEEEEENS_13Container2TagINS_6SeriesIlLb0EEEEENS_12OperationTagINS_19matrix_line_factoryILb1EvEEEENS_9HiddenTagINSt3__117integral_constantIbLb1EEEEEEEENSO_18input_iterator_tagELb1ELb0EE9size_implESQ_, symObjAddr: 0x2160, symBinAddr: 0x1000034FC, symSize: 0x38 }
  - { offsetInCU: 0xA0AE6, offset: 0xA0AE6, size: 0x8, addend: 0x0, symName: __ZNK2pm35modified_container_pair_elem_accessINS_4RowsINS_6MatrixINS_8RationalEEEEEN8polymake5mlistIJNS_13Container1TagINS_20same_value_containerIRNS_11Matrix_baseIS3_EEEEEENS_13Container2TagINS_6SeriesIlLb0EEEEENS_12OperationTagINS_19matrix_line_factoryILb1EvEEEENS_9HiddenTagINSt3__117integral_constantIbLb1EEEEEEEENSO_18input_iterator_tagELb1ELb0EE4_topEv, symObjAddr: 0x2198, symBinAddr: 0x100003534, symSize: 0x24 }
  - { offsetInCU: 0xA0B0C, offset: 0xA0B0C, size: 0x8, addend: 0x0, symName: __ZNK2pm4RowsINS_6MatrixINS_8RationalEEEE14get_container2Ev, symObjAddr: 0x21BC, symBinAddr: 0x100003558, symSize: 0x7C }
  - { offsetInCU: 0xA0B41, offset: 0xA0B41, size: 0x8, addend: 0x0, symName: __ZNK2pm9SeriesRawIlLb0EE4sizeEv, symObjAddr: 0x2238, symBinAddr: 0x1000035D4, symSize: 0x18 }
  - { offsetInCU: 0xA0B67, offset: 0xA0B67, size: 0x8, addend: 0x0, symName: __ZNK2pm19manip_container_topINS_4RowsINS_6MatrixINS_8RationalEEEEEN8polymake5mlistIJNS_13Container1TagINS_20same_value_containerIRNS_11Matrix_baseIS3_EEEEEENS_13Container2TagINS_6SeriesIlLb0EEEEENS_12OperationTagINS_19matrix_line_factoryILb1EvEEEENS_9HiddenTagINSt3__117integral_constantIbLb1EEEEEEEELb0EE9manip_topEv, symObjAddr: 0x2250, symBinAddr: 0x1000035EC, symSize: 0x14 }
  - { offsetInCU: 0xA0B8D, offset: 0xA0B8D, size: 0x8, addend: 0x0, symName: __ZNK2pm19manip_container_topINS_4RowsINS_6MatrixINS_8RationalEEEEEN8polymake5mlistIJNS_13Container1TagINS_20same_value_containerIRNS_11Matrix_baseIS3_EEEEEENS_13Container2TagINS_6SeriesIlLb0EEEEENS_12OperationTagINS_19matrix_line_factoryILb1EvEEEENS_9HiddenTagINSt3__117integral_constantIbLb1EEEEEEEELb1EE6hiddenEv, symObjAddr: 0x2264, symBinAddr: 0x100003600, symSize: 0x24 }
  - { offsetInCU: 0xA0BB9, offset: 0xA0BB9, size: 0x8, addend: 0x0, symName: __ZN2pm6SeriesIlLb0EECI1NS_9SeriesRawIlLb0EEEERKllS4_, symObjAddr: 0x22B4, symBinAddr: 0x100003650, symSize: 0x44 }
  - { offsetInCU: 0xA0C0C, offset: 0xA0C0C, size: 0x8, addend: 0x0, symName: __ZNKSt3__16__lessIvvEclB8ue170006IllEEbRKT_RKT0_, symObjAddr: 0x234C, symBinAddr: 0x1000036E8, symSize: 0x34 }
  - { offsetInCU: 0xA0C60, offset: 0xA0C60, size: 0x8, addend: 0x0, symName: __ZN2pm6SeriesIlLb0EECI2NS_9SeriesRawIlLb0EEEERKllS4_, symObjAddr: 0x2380, symBinAddr: 0x10000371C, symSize: 0x44 }
  - { offsetInCU: 0xA0CA8, offset: 0xA0CA8, size: 0x8, addend: 0x0, symName: __ZN2pm9SeriesRawIlLb0EEC2ERKllS3_, symObjAddr: 0x23C4, symBinAddr: 0x100003760, symSize: 0xC0 }
  - { offsetInCU: 0xA0D07, offset: 0xA0D07, size: 0x8, addend: 0x0, symName: __ZN2pm35modified_container_pair_elem_accessINS_4RowsINS_6MatrixINS_8RationalEEEEEN8polymake5mlistIJNS_13Container1TagINS_20same_value_containerIRNS_11Matrix_baseIS3_EEEEEENS_13Container2TagINS_6SeriesIlLb0EEEEENS_12OperationTagINS_19matrix_line_factoryILb1EvEEEENS_9HiddenTagINSt3__117integral_constantIbLb1EEEEEEEENSO_26random_access_iterator_tagELb1ELb0EE13elem_by_indexElRKNSK_ILb1ESC_EESQ_SQ_, symObjAddr: 0x24C0, symBinAddr: 0x10000385C, symSize: 0xD4 }
  - { offsetInCU: 0xA0D6C, offset: 0xA0D6C, size: 0x8, addend: 0x0, symName: __ZN2pm16empty_op_builderINS_19matrix_line_factoryILb1ERNS_11Matrix_baseINS_8RationalEEEEEE6createINS1_ILb1EvEEEES6_RKT_, symObjAddr: 0x2594, symBinAddr: 0x100003930, symSize: 0x10 }
  - { offsetInCU: 0xA0D95, offset: 0xA0D95, size: 0x8, addend: 0x0, symName: __ZN2pm35modified_container_pair_elem_accessINS_4RowsINS_6MatrixINS_8RationalEEEEEN8polymake5mlistIJNS_13Container1TagINS_20same_value_containerIRNS_11Matrix_baseIS3_EEEEEENS_13Container2TagINS_6SeriesIlLb0EEEEENS_12OperationTagINS_19matrix_line_factoryILb1EvEEEENS_9HiddenTagINSt3__117integral_constantIbLb1EEEEEEEENSO_18input_iterator_tagELb1ELb0EE4_topEv, symObjAddr: 0x25A4, symBinAddr: 0x100003940, symSize: 0x24 }
  - { offsetInCU: 0xA0DBB, offset: 0xA0DBB, size: 0x8, addend: 0x0, symName: __ZNK2pm28modified_container_pair_implINS_4RowsINS_6MatrixINS_8RationalEEEEEN8polymake5mlistIJNS_13Container1TagINS_20same_value_containerIRNS_11Matrix_baseIS3_EEEEEENS_13Container2TagINS_6SeriesIlLb0EEEEENS_12OperationTagINS_19matrix_line_factoryILb1EvEEEENS_9HiddenTagINSt3__117integral_constantIbLb1EEEEEEEELb0EE13get_operationEv, symObjAddr: 0x25C8, symBinAddr: 0x100003964, symSize: 0x10 }
  - { offsetInCU: 0xA0DE1, offset: 0xA0DE1, size: 0x8, addend: 0x0, symName: __ZNK2pm19matrix_line_factoryILb1ERNS_11Matrix_baseINS_8RationalEEEEclES4_l, symObjAddr: 0x25D8, symBinAddr: 0x100003974, symSize: 0x74 }
  - { offsetInCU: 0xA0E34, offset: 0xA0E34, size: 0x8, addend: 0x0, symName: __ZN2pm4RowsINS_6MatrixINS_8RationalEEEE14get_container1Ev, symObjAddr: 0x264C, symBinAddr: 0x1000039E8, symSize: 0x38 }
  - { offsetInCU: 0xA0E5A, offset: 0xA0E5A, size: 0x8, addend: 0x0, symName: __ZN2pm20same_value_containerIRNS_11Matrix_baseINS_8RationalEEEEixEl, symObjAddr: 0x2684, symBinAddr: 0x100003A20, symSize: 0x28 }
  - { offsetInCU: 0xA0E8A, offset: 0xA0E8A, size: 0x8, addend: 0x0, symName: __ZNK2pm9SeriesRawIlLb0EEixEl, symObjAddr: 0x26AC, symBinAddr: 0x100003A48, symSize: 0xC8 }
  - { offsetInCU: 0xA0EBE, offset: 0xA0EBE, size: 0x8, addend: 0x0, symName: __ZN2pm20same_value_containerIRNS_11Matrix_baseINS_8RationalEEEED1Ev, symObjAddr: 0x2774, symBinAddr: 0x100003B10, symSize: 0x2C }
  - { offsetInCU: 0xA0EEA, offset: 0xA0EEA, size: 0x8, addend: 0x0, symName: __ZN2pm12shared_arrayINS_8RationalEJNS_13PrefixDataTagINS_11Matrix_baseIS1_E5dim_tEEENS_15AliasHandlerTagINS_20shared_alias_handlerEEEEE10get_prefixEv, symObjAddr: 0x27A0, symBinAddr: 0x100003B3C, symSize: 0x1C }
  - { offsetInCU: 0xA0F16, offset: 0xA0F16, size: 0x8, addend: 0x0, symName: __ZN2pm6SeriesIlLb1EECI1NS_9SeriesRawIlLb1EEEERKlll, symObjAddr: 0x27BC, symBinAddr: 0x100003B58, symSize: 0x44 }
  - { offsetInCU: 0xA0F5E, offset: 0xA0F5E, size: 0x8, addend: 0x0, symName: __ZN2pm12IndexedSliceINS_10masqueradeINS_10ConcatRowsERNS_11Matrix_baseINS_8RationalEEEEEKNS_6SeriesIlLb1EEEN8polymake5mlistIJEEEECI1NS_19container_pair_baseIS7_SA_EEIS6_S9_vEEOT_OT0_, symObjAddr: 0x2800, symBinAddr: 0x100003B9C, symSize: 0x3C }
  - { offsetInCU: 0xA0F9D, offset: 0xA0F9D, size: 0x8, addend: 0x0, symName: __ZN2pm6SeriesIlLb1EECI2NS_9SeriesRawIlLb1EEEERKlll, symObjAddr: 0x283C, symBinAddr: 0x100003BD8, symSize: 0x44 }
  - { offsetInCU: 0xA0FE5, offset: 0xA0FE5, size: 0x8, addend: 0x0, symName: __ZN2pm9SeriesRawIlLb1EEC2ERKlll, symObjAddr: 0x2880, symBinAddr: 0x100003C1C, symSize: 0xB4 }
  - { offsetInCU: 0xA1035, offset: 0xA1035, size: 0x8, addend: 0x0, symName: __ZN2pm12IndexedSliceINS_10masqueradeINS_10ConcatRowsERNS_11Matrix_baseINS_8RationalEEEEEKNS_6SeriesIlLb1EEEN8polymake5mlistIJEEEECI2NS_19container_pair_baseIS7_SA_EEIS6_S9_vEEOT_OT0_, symObjAddr: 0x2934, symBinAddr: 0x100003CD0, symSize: 0x6C }
  - { offsetInCU: 0xA1074, offset: 0xA1074, size: 0x8, addend: 0x0, symName: __ZN2pm19container_pair_baseINS_10masqueradeINS_10ConcatRowsERNS_11Matrix_baseINS_8RationalEEEEEKNS_6SeriesIlLb1EEEEC2IS6_S9_vEEOT_OT0_, symObjAddr: 0x29A0, symBinAddr: 0x100003D3C, symSize: 0x70 }
  - { offsetInCU: 0xA10D5, offset: 0xA10D5, size: 0x8, addend: 0x0, symName: __ZN2pm24generic_of_indexed_sliceINS_10masqueradeINS_10ConcatRowsERNS_11Matrix_baseINS_8RationalEEEEEKNS_6SeriesIlLb1EEEN8polymake5mlistIJEEENS_13GenericVectorINS2_IS5_EES4_EENS_10GenericSetIS9_lNS_10operations3cmpEEEEC2Ev, symObjAddr: 0x2A10, symBinAddr: 0x100003DAC, symSize: 0x2C }
  - { offsetInCU: 0xA1102, offset: 0xA1102, size: 0x8, addend: 0x0, symName: __ZN2pm19container_pair_baseINS_10masqueradeINS_10ConcatRowsERNS_11Matrix_baseINS_8RationalEEEEEKNS_6SeriesIlLb1EEEED2Ev, symObjAddr: 0x2A3C, symBinAddr: 0x100003DD8, symSize: 0x2C }
  - { offsetInCU: 0xA112F, offset: 0xA112F, size: 0x8, addend: 0x0, symName: __ZN2pm5aliasINS_10masqueradeINS_10ConcatRowsERNS_11Matrix_baseINS_8RationalEEEEELNS_10alias_kindE5EECI1NS0_IS6_LS8_2EEEES6_, symObjAddr: 0x2A68, symBinAddr: 0x100003E04, symSize: 0x34 }
  - { offsetInCU: 0xA1165, offset: 0xA1165, size: 0x8, addend: 0x0, symName: __ZN2pm5aliasIKNS_6SeriesIlLb1EEELNS_10alias_kindE0EEC1EOS2_, symObjAddr: 0x2A9C, symBinAddr: 0x100003E38, symSize: 0x34 }
  - { offsetInCU: 0xA119D, offset: 0xA119D, size: 0x8, addend: 0x0, symName: __ZN2pm5aliasINS_10masqueradeINS_10ConcatRowsERNS_11Matrix_baseINS_8RationalEEEEELNS_10alias_kindE5EED1Ev, symObjAddr: 0x2AD0, symBinAddr: 0x100003E6C, symSize: 0x2C }
  - { offsetInCU: 0xA11C9, offset: 0xA11C9, size: 0x8, addend: 0x0, symName: __ZN2pm5aliasINS_10masqueradeINS_10ConcatRowsERNS_11Matrix_baseINS_8RationalEEEEELNS_10alias_kindE5EECI2NS0_IS6_LS8_2EEEES6_, symObjAddr: 0x2AFC, symBinAddr: 0x100003E98, symSize: 0x34 }
  - { offsetInCU: 0xA11FF, offset: 0xA11FF, size: 0x8, addend: 0x0, symName: __ZN2pm5aliasIRNS_11Matrix_baseINS_8RationalEEELNS_10alias_kindE2EEC2ES4_, symObjAddr: 0x2B30, symBinAddr: 0x100003ECC, symSize: 0x68 }
  - { offsetInCU: 0xA1237, offset: 0xA1237, size: 0x8, addend: 0x0, symName: __ZN2pm11Matrix_baseINS_8RationalEEC1ERKS2_, symObjAddr: 0x2B98, symBinAddr: 0x100003F34, symSize: 0x34 }
  - { offsetInCU: 0xA126C, offset: 0xA126C, size: 0x8, addend: 0x0, symName: __ZN2pm11Matrix_baseINS_8RationalEED1Ev, symObjAddr: 0x2BFC, symBinAddr: 0x100003F98, symSize: 0x2C }
  - { offsetInCU: 0xA1298, offset: 0xA1298, size: 0x8, addend: 0x0, symName: __ZN2pm11Matrix_baseINS_8RationalEEC2ERKS2_, symObjAddr: 0x2C28, symBinAddr: 0x100003FC4, symSize: 0x34 }
  - { offsetInCU: 0xA12CD, offset: 0xA12CD, size: 0x8, addend: 0x0, symName: __ZN2pm12shared_arrayINS_8RationalEJNS_13PrefixDataTagINS_11Matrix_baseIS1_E5dim_tEEENS_15AliasHandlerTagINS_20shared_alias_handlerEEEEEC1ERKSA_, symObjAddr: 0x2C5C, symBinAddr: 0x100003FF8, symSize: 0x34 }
  - { offsetInCU: 0xA1306, offset: 0xA1306, size: 0x8, addend: 0x0, symName: __ZN2pm12shared_arrayINS_8RationalEJNS_13PrefixDataTagINS_11Matrix_baseIS1_E5dim_tEEENS_15AliasHandlerTagINS_20shared_alias_handlerEEEEEC2ERKSA_, symObjAddr: 0x2C90, symBinAddr: 0x10000402C, symSize: 0x50 }
  - { offsetInCU: 0xA1345, offset: 0xA1345, size: 0x8, addend: 0x0, symName: __ZN2pm20shared_alias_handlerC2ERKS0_, symObjAddr: 0x2CE0, symBinAddr: 0x10000407C, symSize: 0x34 }
  - { offsetInCU: 0xA137A, offset: 0xA137A, size: 0x8, addend: 0x0, symName: __ZN2pm20shared_alias_handler8AliasSetC1ERKS1_, symObjAddr: 0x2D14, symBinAddr: 0x1000040B0, symSize: 0x34 }
  - { offsetInCU: 0xA13B2, offset: 0xA13B2, size: 0x8, addend: 0x0, symName: __ZN2pm20shared_alias_handler8AliasSetC2ERKS1_, symObjAddr: 0x2D48, symBinAddr: 0x1000040E4, symSize: 0x9C }
  - { offsetInCU: 0xA13EA, offset: 0xA13EA, size: 0x8, addend: 0x0, symName: __ZN2pm20shared_alias_handler8AliasSet5enterERS1_, symObjAddr: 0x2DE4, symBinAddr: 0x100004180, symSize: 0xC8 }
  - { offsetInCU: 0xA141E, offset: 0xA141E, size: 0x8, addend: 0x0, symName: __ZN2pm20shared_alias_handler8AliasSet8allocateEm, symObjAddr: 0x2EAC, symBinAddr: 0x100004248, symSize: 0x54 }
  - { offsetInCU: 0xA145F, offset: 0xA145F, size: 0x8, addend: 0x0, symName: __ZN2pm20shared_alias_handler8AliasSet10reallocateEPNS1_11alias_arrayE, symObjAddr: 0x2F00, symBinAddr: 0x10000429C, symSize: 0x5C }
  - { offsetInCU: 0xA1491, offset: 0xA1491, size: 0x8, addend: 0x0, symName: __ZN2pm9allocatorC1Ev, symObjAddr: 0x2F5C, symBinAddr: 0x1000042F8, symSize: 0x2C }
  - { offsetInCU: 0xA14BD, offset: 0xA14BD, size: 0x8, addend: 0x0, symName: __ZN2pm9allocator8allocateEm, symObjAddr: 0x2F88, symBinAddr: 0x100004324, symSize: 0x30 }
  - { offsetInCU: 0xA14F1, offset: 0xA14F1, size: 0x8, addend: 0x0, symName: __ZN2pm9allocatorC2Ev, symObjAddr: 0x2FB8, symBinAddr: 0x100004354, symSize: 0x2C }
  - { offsetInCU: 0xA151D, offset: 0xA151D, size: 0x8, addend: 0x0, symName: __ZNSt3__19allocatorIcEC2B8ue170006Ev, symObjAddr: 0x2FE4, symBinAddr: 0x100004380, symSize: 0x2C }
  - { offsetInCU: 0xA1547, offset: 0xA1547, size: 0x8, addend: 0x0, symName: __ZNSt3__116__non_trivial_ifILb1ENS_9allocatorIcEEEC2B8ue170006Ev, symObjAddr: 0x3010, symBinAddr: 0x1000043AC, symSize: 0x14 }
  - { offsetInCU: 0xA1571, offset: 0xA1571, size: 0x8, addend: 0x0, symName: __ZNSt3__19allocatorIcE8allocateB8ue170006EmPKv, symObjAddr: 0x3024, symBinAddr: 0x1000043C0, symSize: 0x30 }
  - { offsetInCU: 0xA15AF, offset: 0xA15AF, size: 0x8, addend: 0x0, symName: __ZNSt3__19allocatorIcE8allocateB8ue170006Em, symObjAddr: 0x3054, symBinAddr: 0x1000043F0, symSize: 0x58 }
  - { offsetInCU: 0xA15EE, offset: 0xA15EE, size: 0x8, addend: 0x0, symName: __ZNSt3__116allocator_traitsINS_9allocatorIcEEE8max_sizeB8ue170006IS2_vEEmRKS2_, symObjAddr: 0x30AC, symBinAddr: 0x100004448, symSize: 0x24 }
  - { offsetInCU: 0xA161C, offset: 0xA161C, size: 0x8, addend: 0x0, symName: __ZNKSt3__19allocatorIcE8max_sizeB8ue170006Ev, symObjAddr: 0x312C, symBinAddr: 0x1000044C8, symSize: 0x14 }
  - { offsetInCU: 0xA1642, offset: 0xA1642, size: 0x8, addend: 0x0, symName: __ZN2pm20shared_alias_handler8AliasSet10deallocateEPNS1_11alias_arrayE, symObjAddr: 0x3164, symBinAddr: 0x100004500, symSize: 0x48 }
  - { offsetInCU: 0xA1674, offset: 0xA1674, size: 0x8, addend: 0x0, symName: __ZN2pm9allocator10deallocateEPvm, symObjAddr: 0x31AC, symBinAddr: 0x100004548, symSize: 0x34 }
  - { offsetInCU: 0xA16B6, offset: 0xA16B6, size: 0x8, addend: 0x0, symName: __ZNSt3__19allocatorIcE10deallocateB8ue170006EPcm, symObjAddr: 0x31E0, symBinAddr: 0x10000457C, symSize: 0x40 }
  - { offsetInCU: 0xA16F8, offset: 0xA16F8, size: 0x8, addend: 0x0, symName: __ZN2pm20shared_alias_handler18make_mutable_aliasERS0_, symObjAddr: 0x329C, symBinAddr: 0x100004638, symSize: 0x4C }
  - { offsetInCU: 0xA172C, offset: 0xA172C, size: 0x8, addend: 0x0, symName: __ZN2pm11Matrix_baseINS_8RationalEED2Ev, symObjAddr: 0x32E8, symBinAddr: 0x100004684, symSize: 0x2C }
  - { offsetInCU: 0xA1758, offset: 0xA1758, size: 0x8, addend: 0x0, symName: __ZN2pm12shared_arrayINS_8RationalEJNS_13PrefixDataTagINS_11Matrix_baseIS1_E5dim_tEEENS_15AliasHandlerTagINS_20shared_alias_handlerEEEEED1Ev, symObjAddr: 0x3314, symBinAddr: 0x1000046B0, symSize: 0x2C }
  - { offsetInCU: 0xA1782, offset: 0xA1782, size: 0x8, addend: 0x0, symName: __ZN2pm12shared_arrayINS_8RationalEJNS_13PrefixDataTagINS_11Matrix_baseIS1_E5dim_tEEENS_15AliasHandlerTagINS_20shared_alias_handlerEEEEED2Ev, symObjAddr: 0x3340, symBinAddr: 0x1000046DC, symSize: 0x3C }
  - { offsetInCU: 0xA17AC, offset: 0xA17AC, size: 0x8, addend: 0x0, symName: __ZN2pm12shared_arrayINS_8RationalEJNS_13PrefixDataTagINS_11Matrix_baseIS1_E5dim_tEEENS_15AliasHandlerTagINS_20shared_alias_handlerEEEEE5leaveEv, symObjAddr: 0x337C, symBinAddr: 0x100004718, symSize: 0x54 }
  - { offsetInCU: 0xA17D2, offset: 0xA17D2, size: 0x8, addend: 0x0, symName: __ZN2pm20shared_alias_handlerD2Ev, symObjAddr: 0x33D0, symBinAddr: 0x10000476C, symSize: 0x2C }
  - { offsetInCU: 0xA17FE, offset: 0xA17FE, size: 0x8, addend: 0x0, symName: __ZN2pm12shared_arrayINS_8RationalEJNS_13PrefixDataTagINS_11Matrix_baseIS1_E5dim_tEEENS_15AliasHandlerTagINS_20shared_alias_handlerEEEEE3rep8destructEPSB_, symObjAddr: 0x33FC, symBinAddr: 0x100004798, symSize: 0x44 }
  - { offsetInCU: 0xA1822, offset: 0xA1822, size: 0x8, addend: 0x0, symName: __ZN2pm12shared_arrayINS_8RationalEJNS_13PrefixDataTagINS_11Matrix_baseIS1_E5dim_tEEENS_15AliasHandlerTagINS_20shared_alias_handlerEEEEE3rep7destroyEPS1_SC_, symObjAddr: 0x3440, symBinAddr: 0x1000047DC, symSize: 0x50 }
  - { offsetInCU: 0xA1855, offset: 0xA1855, size: 0x8, addend: 0x0, symName: __ZN2pm12shared_arrayINS_8RationalEJNS_13PrefixDataTagINS_11Matrix_baseIS1_E5dim_tEEENS_15AliasHandlerTagINS_20shared_alias_handlerEEEEE3rep10deallocateEPSB_, symObjAddr: 0x3490, symBinAddr: 0x10000482C, symSize: 0x68 }
  - { offsetInCU: 0xA1897, offset: 0xA1897, size: 0x8, addend: 0x0, symName: __ZN2pm8RationalD1Ev, symObjAddr: 0x351C, symBinAddr: 0x1000048B8, symSize: 0x2C }
  - { offsetInCU: 0xA18C1, offset: 0xA18C1, size: 0x8, addend: 0x0, symName: __ZN2pm8RationalD2Ev, symObjAddr: 0x3548, symBinAddr: 0x1000048E4, symSize: 0x58 }
  - { offsetInCU: 0xA18EB, offset: 0xA18EB, size: 0x8, addend: 0x0, symName: __ZN2pm12shared_arrayINS_8RationalEJNS_13PrefixDataTagINS_11Matrix_baseIS1_E5dim_tEEENS_15AliasHandlerTagINS_20shared_alias_handlerEEEEE3rep10total_sizeEm, symObjAddr: 0x35A0, symBinAddr: 0x10000493C, symSize: 0x1C }
  - { offsetInCU: 0xA190F, offset: 0xA190F, size: 0x8, addend: 0x0, symName: __ZN2pm20shared_alias_handler8AliasSetD1Ev, symObjAddr: 0x35BC, symBinAddr: 0x100004958, symSize: 0x2C }
  - { offsetInCU: 0xA1939, offset: 0xA1939, size: 0x8, addend: 0x0, symName: __ZN2pm20shared_alias_handler8AliasSetD2Ev, symObjAddr: 0x35E8, symBinAddr: 0x100004984, symSize: 0x98 }
  - { offsetInCU: 0xA1963, offset: 0xA1963, size: 0x8, addend: 0x0, symName: __ZN2pm20shared_alias_handler8AliasSet6forgetEv, symObjAddr: 0x3680, symBinAddr: 0x100004A1C, symSize: 0x94 }
  - { offsetInCU: 0xA19B6, offset: 0xA19B6, size: 0x8, addend: 0x0, symName: __ZN2pm20shared_alias_handler8AliasSet6removeEPS1_, symObjAddr: 0x3714, symBinAddr: 0x100004AB0, symSize: 0xB0 }
  - { offsetInCU: 0xA1A17, offset: 0xA1A17, size: 0x8, addend: 0x0, symName: __ZN2pm5aliasIKNS_6SeriesIlLb1EEELNS_10alias_kindE0EEC2EOS2_, symObjAddr: 0x37C4, symBinAddr: 0x100004B60, symSize: 0x24 }
  - { offsetInCU: 0xA1A4F, offset: 0xA1A4F, size: 0x8, addend: 0x0, symName: __ZN2pm5aliasINS_10masqueradeINS_10ConcatRowsERNS_11Matrix_baseINS_8RationalEEEEELNS_10alias_kindE5EED2Ev, symObjAddr: 0x37E8, symBinAddr: 0x100004B84, symSize: 0x2C }
  - { offsetInCU: 0xA1A7B, offset: 0xA1A7B, size: 0x8, addend: 0x0, symName: __ZN2pm5aliasIRNS_11Matrix_baseINS_8RationalEEELNS_10alias_kindE2EED2Ev, symObjAddr: 0x3814, symBinAddr: 0x100004BB0, symSize: 0x2C }
  - { offsetInCU: 0xA1AA7, offset: 0xA1AA7, size: 0x8, addend: 0x0, symName: __ZN2pm13GenericVectorINS_12IndexedSliceINS_10masqueradeINS_10ConcatRowsERNS_11Matrix_baseINS_8RationalEEEEEKNS_6SeriesIlLb1EEEN8polymake5mlistIJEEEEES5_EC2Ev, symObjAddr: 0x3840, symBinAddr: 0x100004BDC, symSize: 0x14 }
  - { offsetInCU: 0xA1AD1, offset: 0xA1AD1, size: 0x8, addend: 0x0, symName: __ZN2pm19manip_container_topINS_4RowsINS_6MatrixINS_8RationalEEEEEN8polymake5mlistIJNS_13Container1TagINS_20same_value_containerIRNS_11Matrix_baseIS3_EEEEEENS_13Container2TagINS_6SeriesIlLb0EEEEENS_12OperationTagINS_19matrix_line_factoryILb1EvEEEENS_9HiddenTagINSt3__117integral_constantIbLb1EEEEEEEELb1EE6hiddenEv, symObjAddr: 0x3854, symBinAddr: 0x100004BF0, symSize: 0x24 }
  - { offsetInCU: 0xA1AF7, offset: 0xA1AF7, size: 0x8, addend: 0x0, symName: __ZN2pm20same_value_containerIRNS_11Matrix_baseINS_8RationalEEEEC1IJS4_EvEEDpOT_, symObjAddr: 0x3878, symBinAddr: 0x100004C14, symSize: 0x34 }
  - { offsetInCU: 0xA1B3B, offset: 0xA1B3B, size: 0x8, addend: 0x0, symName: __ZN2pm19manip_container_topINS_4RowsINS_6MatrixINS_8RationalEEEEEN8polymake5mlistIJNS_13Container1TagINS_20same_value_containerIRNS_11Matrix_baseIS3_EEEEEENS_13Container2TagINS_6SeriesIlLb0EEEEENS_12OperationTagINS_19matrix_line_factoryILb1EvEEEENS_9HiddenTagINSt3__117integral_constantIbLb1EEEEEEEELb0EE9manip_topEv, symObjAddr: 0x38AC, symBinAddr: 0x100004C48, symSize: 0x14 }
  - { offsetInCU: 0xA1B61, offset: 0xA1B61, size: 0x8, addend: 0x0, symName: __ZN2pm20same_value_containerIRNS_11Matrix_baseINS_8RationalEEEEC2IJS4_EvEEDpOT_, symObjAddr: 0x38C0, symBinAddr: 0x100004C5C, symSize: 0x34 }
  - { offsetInCU: 0xA1BA5, offset: 0xA1BA5, size: 0x8, addend: 0x0, symName: __ZN2pm5aliasIRNS_11Matrix_baseINS_8RationalEEELNS_10alias_kindE2EEC1ES4_, symObjAddr: 0x38F4, symBinAddr: 0x100004C90, symSize: 0x34 }
  - { offsetInCU: 0xA1BDD, offset: 0xA1BDD, size: 0x8, addend: 0x0, symName: __ZN2pm5aliasIRNS_11Matrix_baseINS_8RationalEEELNS_10alias_kindE2EEdeEv, symObjAddr: 0x3928, symBinAddr: 0x100004CC4, symSize: 0x14 }
  - { offsetInCU: 0xA1C03, offset: 0xA1C03, size: 0x8, addend: 0x0, symName: __ZN2pm20same_value_containerIRNS_11Matrix_baseINS_8RationalEEEED2Ev, symObjAddr: 0x393C, symBinAddr: 0x100004CD8, symSize: 0x2C }
  - { offsetInCU: 0xA1C2F, offset: 0xA1C2F, size: 0x8, addend: 0x0, symName: __ZN2pm5aliasIRNS_11Matrix_baseINS_8RationalEEELNS_10alias_kindE2EED1Ev, symObjAddr: 0x3968, symBinAddr: 0x100004D04, symSize: 0x2C }
  - { offsetInCU: 0xA1C5B, offset: 0xA1C5B, size: 0x8, addend: 0x0, symName: __ZN2pm12IndexedSliceINS_10masqueradeINS_10ConcatRowsERNS_11Matrix_baseINS_8RationalEEEEEKNS_6SeriesIlLb1EEEN8polymake5mlistIJEEEED2Ev, symObjAddr: 0x3994, symBinAddr: 0x100004D30, symSize: 0x2C }
  - { offsetInCU: 0xA1C88, offset: 0xA1C88, size: 0x8, addend: 0x0, symName: __ZN2pm11LazyVector2IKNS_12IndexedSliceINS_10masqueradeINS_10ConcatRowsERNS_11Matrix_baseINS_8RationalEEEEEKNS_6SeriesIlLb1EEEN8polymake5mlistIJEEEEERKNS_6VectorIS5_EENS_11BuildBinaryINS_10operations3subEEEED2Ev, symObjAddr: 0x39C0, symBinAddr: 0x100004D5C, symSize: 0x2C }
  - { offsetInCU: 0xA1CB5, offset: 0xA1CB5, size: 0x8, addend: 0x0, symName: __ZN2pm24TransformedContainerPairIKNS_12IndexedSliceINS_10masqueradeINS_10ConcatRowsERNS_11Matrix_baseINS_8RationalEEEEEKNS_6SeriesIlLb1EEEN8polymake5mlistIJEEEEERKNS_6VectorIS5_EENS_11BuildBinaryINS_10operations3subEEEED2Ev, symObjAddr: 0x39EC, symBinAddr: 0x100004D88, symSize: 0x2C }
  - { offsetInCU: 0xA1CE1, offset: 0xA1CE1, size: 0x8, addend: 0x0, symName: __ZN2pm28modified_container_pair_baseIKNS_12IndexedSliceINS_10masqueradeINS_10ConcatRowsERNS_11Matrix_baseINS_8RationalEEEEEKNS_6SeriesIlLb1EEEN8polymake5mlistIJEEEEERKNS_6VectorIS5_EENS_11BuildBinaryINS_10operations3subEEEED2Ev, symObjAddr: 0x3A18, symBinAddr: 0x100004DB4, symSize: 0x2C }
  - { offsetInCU: 0xA1D0E, offset: 0xA1D0E, size: 0x8, addend: 0x0, symName: __ZN2pm19container_pair_baseIKNS_12IndexedSliceINS_10masqueradeINS_10ConcatRowsERNS_11Matrix_baseINS_8RationalEEEEEKNS_6SeriesIlLb1EEEN8polymake5mlistIJEEEEERKNS_6VectorIS5_EEED2Ev, symObjAddr: 0x3A44, symBinAddr: 0x100004DE0, symSize: 0x38 }
  - { offsetInCU: 0xA1D3B, offset: 0xA1D3B, size: 0x8, addend: 0x0, symName: __ZN2pm5aliasIRKNS_6VectorINS_8RationalEEELNS_10alias_kindE2EED1Ev, symObjAddr: 0x3A7C, symBinAddr: 0x100004E18, symSize: 0x2C }
  - { offsetInCU: 0xA1D67, offset: 0xA1D67, size: 0x8, addend: 0x0, symName: __ZN2pm5aliasIKNS_12IndexedSliceINS_10masqueradeINS_10ConcatRowsERNS_11Matrix_baseINS_8RationalEEEEEKNS_6SeriesIlLb1EEEN8polymake5mlistIJEEEEELNS_10alias_kindE0EED1Ev, symObjAddr: 0x3AA8, symBinAddr: 0x100004E44, symSize: 0x2C }
  - { offsetInCU: 0xA1D93, offset: 0xA1D93, size: 0x8, addend: 0x0, symName: __ZN2pm5aliasIRKNS_6VectorINS_8RationalEEELNS_10alias_kindE2EED2Ev, symObjAddr: 0x3AD4, symBinAddr: 0x100004E70, symSize: 0x2C }
  - { offsetInCU: 0xA1DBF, offset: 0xA1DBF, size: 0x8, addend: 0x0, symName: __ZN2pm5aliasIKNS_12IndexedSliceINS_10masqueradeINS_10ConcatRowsERNS_11Matrix_baseINS_8RationalEEEEEKNS_6SeriesIlLb1EEEN8polymake5mlistIJEEEEELNS_10alias_kindE0EED2Ev, symObjAddr: 0x3B00, symBinAddr: 0x100004E9C, symSize: 0x2C }
  - { offsetInCU: 0xA1DF1, offset: 0xA1DF1, size: 0x8, addend: 0x0, symName: __ZN2pm35modified_container_pair_elem_accessINS_4RowsINS_15IncidenceMatrixINS_12NonSymmetricEEEEEN8polymake5mlistIJNS_13Container1TagINS_20same_value_containerIRNS_20IncidenceMatrix_baseIS3_EEEEEENS_13Container2TagINS_6SeriesIlLb1EEEEENS_12OperationTagINSt3__14pairINS_22incidence_line_factoryILb1EvEENS_13BuildBinaryItINS_10operations12dereference2EEEEEEENS_9HiddenTagINSK_17integral_constantIbLb1EEEEEEEENSK_26random_access_iterator_tagELb1ELb0EEixEl, symObjAddr: 0x3B54, symBinAddr: 0x100004EF0, symSize: 0x70 }
  - { offsetInCU: 0xA1E4F, offset: 0xA1E4F, size: 0x8, addend: 0x0, symName: __ZN2pm35modified_container_pair_elem_accessINS_4RowsINS_15IncidenceMatrixINS_12NonSymmetricEEEEEN8polymake5mlistIJNS_13Container1TagINS_20same_value_containerIRNS_20IncidenceMatrix_baseIS3_EEEEEENS_13Container2TagINS_6SeriesIlLb1EEEEENS_12OperationTagINSt3__14pairINS_22incidence_line_factoryILb1EvEENS_13BuildBinaryItINS_10operations12dereference2EEEEEEENS_9HiddenTagINSK_17integral_constantIbLb1EEEEEEEENSK_26random_access_iterator_tagELb1ELb0EE13elem_by_indexElRKNSM_ILb1ESC_EESW_SW_, symObjAddr: 0x3C00, symBinAddr: 0x100004F9C, symSize: 0xE8 }
  - { offsetInCU: 0xA1EA9, offset: 0xA1EA9, size: 0x8, addend: 0x0, symName: __ZN2pm16empty_op_builderINS_22incidence_line_factoryILb1ERNS_20IncidenceMatrix_baseINS_12NonSymmetricEEEEEE6createINSt3__14pairINS1_ILb1EvEENS_13BuildBinaryItINS_10operations12dereference2EEEEEEES6_RKT_, symObjAddr: 0x3CE8, symBinAddr: 0x100005084, symSize: 0x10 }
  - { offsetInCU: 0xA1ED2, offset: 0xA1ED2, size: 0x8, addend: 0x0, symName: __ZN2pm35modified_container_pair_elem_accessINS_4RowsINS_15IncidenceMatrixINS_12NonSymmetricEEEEEN8polymake5mlistIJNS_13Container1TagINS_20same_value_containerIRNS_20IncidenceMatrix_baseIS3_EEEEEENS_13Container2TagINS_6SeriesIlLb1EEEEENS_12OperationTagINSt3__14pairINS_22incidence_line_factoryILb1EvEENS_13BuildBinaryItINS_10operations12dereference2EEEEEEENS_9HiddenTagINSK_17integral_constantIbLb1EEEEEEEENSK_18input_iterator_tagELb1ELb0EE4_topEv, symObjAddr: 0x3CF8, symBinAddr: 0x100005094, symSize: 0x24 }
  - { offsetInCU: 0xA1EF8, offset: 0xA1EF8, size: 0x8, addend: 0x0, symName: __ZNK2pm28modified_container_pair_implINS_4RowsINS_15IncidenceMatrixINS_12NonSymmetricEEEEEN8polymake5mlistIJNS_13Container1TagINS_20same_value_containerIRNS_20IncidenceMatrix_baseIS3_EEEEEENS_13Container2TagINS_6SeriesIlLb1EEEEENS_12OperationTagINSt3__14pairINS_22incidence_line_factoryILb1EvEENS_13BuildBinaryItINS_10operations12dereference2EEEEEEENS_9HiddenTagINSK_17integral_constantIbLb1EEEEEEEELb0EE13get_operationEv, symObjAddr: 0x3D1C, symBinAddr: 0x1000050B8, symSize: 0x28 }
  - { offsetInCU: 0xA1F1E, offset: 0xA1F1E, size: 0x8, addend: 0x0, symName: __ZNK2pm22incidence_line_factoryILb1ERNS_20IncidenceMatrix_baseINS_12NonSymmetricEEEEclES4_l, symObjAddr: 0x3D44, symBinAddr: 0x1000050E0, symSize: 0x44 }
  - { offsetInCU: 0xA1F62, offset: 0xA1F62, size: 0x8, addend: 0x0, symName: __ZN2pm4RowsINS_15IncidenceMatrixINS_12NonSymmetricEEEE14get_container1Ev, symObjAddr: 0x3D88, symBinAddr: 0x100005124, symSize: 0x38 }
  - { offsetInCU: 0xA1F88, offset: 0xA1F88, size: 0x8, addend: 0x0, symName: __ZN2pm20same_value_containerIRNS_20IncidenceMatrix_baseINS_12NonSymmetricEEEEixEl, symObjAddr: 0x3DC0, symBinAddr: 0x10000515C, symSize: 0x28 }
  - { offsetInCU: 0xA1FB8, offset: 0xA1FB8, size: 0x8, addend: 0x0, symName: __ZNK2pm4RowsINS_15IncidenceMatrixINS_12NonSymmetricEEEE14get_container2Ev, symObjAddr: 0x3DE8, symBinAddr: 0x100005184, symSize: 0x5C }
  - { offsetInCU: 0xA1FDE, offset: 0xA1FDE, size: 0x8, addend: 0x0, symName: __ZNK2pm9SeriesRawIlLb1EEixEl, symObjAddr: 0x3E44, symBinAddr: 0x1000051E0, symSize: 0xC0 }
  - { offsetInCU: 0xA2012, offset: 0xA2012, size: 0x8, addend: 0x0, symName: __ZN2pm20same_value_containerIRNS_20IncidenceMatrix_baseINS_12NonSymmetricEEEED1Ev, symObjAddr: 0x3F04, symBinAddr: 0x1000052A0, symSize: 0x2C }
  - { offsetInCU: 0xA203E, offset: 0xA203E, size: 0x8, addend: 0x0, symName: __ZN2pm14incidence_lineIRNS_3AVL4treeINS_8sparse2d6traitsINS3_11traits_baseINS_7nothingELb1ELb0ELNS3_16restriction_kindE0EEELb0ELS7_0EEEEEECI1NS_19incidence_line_baseISB_EEIRNS_20IncidenceMatrix_baseINS_12NonSymmetricEEEvEEOT_l, symObjAddr: 0x3F30, symBinAddr: 0x1000052CC, symSize: 0x3C }
  - { offsetInCU: 0xA207C, offset: 0xA207C, size: 0x8, addend: 0x0, symName: __ZN2pm14incidence_lineIRNS_3AVL4treeINS_8sparse2d6traitsINS3_11traits_baseINS_7nothingELb1ELb0ELNS3_16restriction_kindE0EEELb0ELS7_0EEEEEECI2NS_19incidence_line_baseISB_EEIRNS_20IncidenceMatrix_baseINS_12NonSymmetricEEEvEEOT_l, symObjAddr: 0x3F6C, symBinAddr: 0x100005308, symSize: 0x3C }
  - { offsetInCU: 0xA20C0, offset: 0xA20C0, size: 0x8, addend: 0x0, symName: __ZN2pm19incidence_line_baseIRNS_3AVL4treeINS_8sparse2d6traitsINS3_11traits_baseINS_7nothingELb1ELb0ELNS3_16restriction_kindE0EEELb0ELS7_0EEEEEEC2IRNS_20IncidenceMatrix_baseINS_12NonSymmetricEEEvEEOT_l, symObjAddr: 0x3FA8, symBinAddr: 0x100005344, symSize: 0x40 }
  - { offsetInCU: 0xA2110, offset: 0xA2110, size: 0x8, addend: 0x0, symName: __ZN2pm5aliasIRNS_20IncidenceMatrix_baseINS_12NonSymmetricEEELNS_10alias_kindE2EEC1ES4_, symObjAddr: 0x3FE8, symBinAddr: 0x100005384, symSize: 0x34 }
  - { offsetInCU: 0xA2148, offset: 0xA2148, size: 0x8, addend: 0x0, symName: __ZN2pm5aliasIRNS_20IncidenceMatrix_baseINS_12NonSymmetricEEELNS_10alias_kindE2EEC2ES4_, symObjAddr: 0x401C, symBinAddr: 0x1000053B8, symSize: 0x68 }
  - { offsetInCU: 0xA2180, offset: 0xA2180, size: 0x8, addend: 0x0, symName: __ZN2pm20IncidenceMatrix_baseINS_12NonSymmetricEEC1ERKS2_, symObjAddr: 0x4084, symBinAddr: 0x100005420, symSize: 0x34 }
  - { offsetInCU: 0xA21B6, offset: 0xA21B6, size: 0x8, addend: 0x0, symName: __ZN2pm20IncidenceMatrix_baseINS_12NonSymmetricEED1Ev, symObjAddr: 0x40E8, symBinAddr: 0x100005484, symSize: 0x2C }
  - { offsetInCU: 0xA21E3, offset: 0xA21E3, size: 0x8, addend: 0x0, symName: __ZN2pm20IncidenceMatrix_baseINS_12NonSymmetricEEC2ERKS2_, symObjAddr: 0x4114, symBinAddr: 0x1000054B0, symSize: 0x34 }
  - { offsetInCU: 0xA2219, offset: 0xA2219, size: 0x8, addend: 0x0, symName: __ZN2pm13shared_objectINS_8sparse2d5TableINS_7nothingELb0ELNS1_16restriction_kindE0EEEJNS_15AliasHandlerTagINS_20shared_alias_handlerEEEEEC1ERKS9_, symObjAddr: 0x4148, symBinAddr: 0x1000054E4, symSize: 0x34 }
  - { offsetInCU: 0xA2252, offset: 0xA2252, size: 0x8, addend: 0x0, symName: __ZN2pm13shared_objectINS_8sparse2d5TableINS_7nothingELb0ELNS1_16restriction_kindE0EEEJNS_15AliasHandlerTagINS_20shared_alias_handlerEEEEEC2ERKS9_, symObjAddr: 0x417C, symBinAddr: 0x100005518, symSize: 0x50 }
  - { offsetInCU: 0xA228B, offset: 0xA228B, size: 0x8, addend: 0x0, symName: __ZN2pm20IncidenceMatrix_baseINS_12NonSymmetricEED2Ev, symObjAddr: 0x41CC, symBinAddr: 0x100005568, symSize: 0x2C }
  - { offsetInCU: 0xA22B8, offset: 0xA22B8, size: 0x8, addend: 0x0, symName: __ZN2pm13shared_objectINS_8sparse2d5TableINS_7nothingELb0ELNS1_16restriction_kindE0EEEJNS_15AliasHandlerTagINS_20shared_alias_handlerEEEEED1Ev, symObjAddr: 0x41F8, symBinAddr: 0x100005594, symSize: 0x2C }
  - { offsetInCU: 0xA22E2, offset: 0xA22E2, size: 0x8, addend: 0x0, symName: __ZN2pm13shared_objectINS_8sparse2d5TableINS_7nothingELb0ELNS1_16restriction_kindE0EEEJNS_15AliasHandlerTagINS_20shared_alias_handlerEEEEED2Ev, symObjAddr: 0x4224, symBinAddr: 0x1000055C0, symSize: 0x3C }
  - { offsetInCU: 0xA230C, offset: 0xA230C, size: 0x8, addend: 0x0, symName: __ZN2pm13shared_objectINS_8sparse2d5TableINS_7nothingELb0ELNS1_16restriction_kindE0EEEJNS_15AliasHandlerTagINS_20shared_alias_handlerEEEEE5leaveEv, symObjAddr: 0x4260, symBinAddr: 0x1000055FC, symSize: 0x54 }
  - { offsetInCU: 0xA2332, offset: 0xA2332, size: 0x8, addend: 0x0, symName: __ZN2pm13shared_objectINS_8sparse2d5TableINS_7nothingELb0ELNS1_16restriction_kindE0EEEJNS_15AliasHandlerTagINS_20shared_alias_handlerEEEEE3rep8destructEPSA_, symObjAddr: 0x42B4, symBinAddr: 0x100005650, symSize: 0x2C }
  - { offsetInCU: 0xA2356, offset: 0xA2356, size: 0x8, addend: 0x0, symName: __ZN2pm13shared_objectINS_8sparse2d5TableINS_7nothingELb0ELNS1_16restriction_kindE0EEEJNS_15AliasHandlerTagINS_20shared_alias_handlerEEEEE3rep7destroyEv, symObjAddr: 0x42E0, symBinAddr: 0x10000567C, symSize: 0x24 }
  - { offsetInCU: 0xA237C, offset: 0xA237C, size: 0x8, addend: 0x0, symName: __ZN2pm13shared_objectINS_8sparse2d5TableINS_7nothingELb0ELNS1_16restriction_kindE0EEEJNS_15AliasHandlerTagINS_20shared_alias_handlerEEEEE3rep10deallocateEPSA_, symObjAddr: 0x4304, symBinAddr: 0x1000056A0, symSize: 0x38 }
  - { offsetInCU: 0xA23AF, offset: 0xA23AF, size: 0x8, addend: 0x0, symName: __ZN2pm13shared_objectINS_8sparse2d5TableINS_7nothingELb0ELNS1_16restriction_kindE0EEEJNS_15AliasHandlerTagINS_20shared_alias_handlerEEEEE3rep7destroyIS5_EEvPT_, symObjAddr: 0x433C, symBinAddr: 0x1000056D8, symSize: 0x24 }
  - { offsetInCU: 0xA23DC, offset: 0xA23DC, size: 0x8, addend: 0x0, symName: __ZN2pm8sparse2d5TableINS_7nothingELb0ELNS0_16restriction_kindE0EED1Ev, symObjAddr: 0x4384, symBinAddr: 0x100005720, symSize: 0x2C }
  - { offsetInCU: 0xA2406, offset: 0xA2406, size: 0x8, addend: 0x0, symName: __ZN2pm8sparse2d5TableINS_7nothingELb0ELNS0_16restriction_kindE0EED2Ev, symObjAddr: 0x43B0, symBinAddr: 0x10000574C, symSize: 0x34 }
  - { offsetInCU: 0xA2430, offset: 0xA2430, size: 0x8, addend: 0x0, symName: __ZN2pm8sparse2d5TableINS_7nothingELb0ELNS0_16restriction_kindE1EED1Ev, symObjAddr: 0x4408, symBinAddr: 0x1000057A4, symSize: 0x2C }
  - { offsetInCU: 0xA245A, offset: 0xA245A, size: 0x8, addend: 0x0, symName: __ZN2pm8sparse2d5TableINS_7nothingELb0ELNS0_16restriction_kindE1EED2Ev, symObjAddr: 0x4434, symBinAddr: 0x1000057D0, symSize: 0x48 }
  - { offsetInCU: 0xA2484, offset: 0xA2484, size: 0x8, addend: 0x0, symName: __ZN2pm8sparse2d5rulerINS_3AVL4treeINS0_6traitsINS0_11traits_baseINS_7nothingELb0ELb0ELNS0_16restriction_kindE1EEELb0ELS7_1EEEEENS0_12ruler_prefixEE7destroyEPSC_, symObjAddr: 0x447C, symBinAddr: 0x100005818, symSize: 0x2C }
  - { offsetInCU: 0xA24A7, offset: 0xA24A7, size: 0x8, addend: 0x0, symName: __ZN2pm8sparse2d5rulerINS_3AVL4treeINS0_6traitsINS0_11traits_baseINS_7nothingELb1ELb0ELNS0_16restriction_kindE1EEELb0ELS7_1EEEEENS0_12ruler_prefixEE7destroyEPSC_, symObjAddr: 0x44A8, symBinAddr: 0x100005844, symSize: 0x2C }
  - { offsetInCU: 0xA24CA, offset: 0xA24CA, size: 0x8, addend: 0x0, symName: __ZN2pm8sparse2d5rulerINS_3AVL4treeINS0_6traitsINS0_11traits_baseINS_7nothingELb0ELb0ELNS0_16restriction_kindE1EEELb0ELS7_1EEEEENS0_12ruler_prefixEE18destroy_containersEv, symObjAddr: 0x44D4, symBinAddr: 0x100005870, symSize: 0x6C }
  - { offsetInCU: 0xA251D, offset: 0xA251D, size: 0x8, addend: 0x0, symName: __ZN2pm8sparse2d5rulerINS_3AVL4treeINS0_6traitsINS0_11traits_baseINS_7nothingELb0ELb0ELNS0_16restriction_kindE1EEELb0ELS7_1EEEEENS0_12ruler_prefixEE10deallocateEPSC_, symObjAddr: 0x4540, symBinAddr: 0x1000058DC, symSize: 0x4C }
  - { offsetInCU: 0xA254F, offset: 0xA254F, size: 0x8, addend: 0x0, symName: __ZN2pm11plain_arrayINS_8sparse2d5rulerINS_3AVL4treeINS1_6traitsINS1_11traits_baseINS_7nothingELb0ELb0ELNS1_16restriction_kindE1EEELb0ELS8_1EEEEENS1_12ruler_prefixEEESB_E6rbeginEv, symObjAddr: 0x458C, symBinAddr: 0x100005928, symSize: 0x60 }
  - { offsetInCU: 0xA2575, offset: 0xA2575, size: 0x8, addend: 0x0, symName: __ZN2pm11plain_arrayINS_8sparse2d5rulerINS_3AVL4treeINS1_6traitsINS1_11traits_baseINS_7nothingELb0ELb0ELNS1_16restriction_kindE1EEELb0ELS8_1EEEEENS1_12ruler_prefixEEESB_E4rendEv, symObjAddr: 0x45EC, symBinAddr: 0x100005988, symSize: 0x3C }
  - { offsetInCU: 0xA25A1, offset: 0xA25A1, size: 0x8, addend: 0x0, symName: __ZNK2pm11ptr_wrapperINS_3AVL4treeINS_8sparse2d6traitsINS3_11traits_baseINS_7nothingELb0ELb0ELNS3_16restriction_kindE1EEELb0ELS7_1EEEEELb1EEneISB_EENSt3__19enable_ifIXsr19is_derived_from_anyIT_SB_NS0_IKSA_Lb1EEEEE5valueEbE4typeERKSF_, symObjAddr: 0x4628, symBinAddr: 0x1000059C4, symSize: 0x34 }
  - { offsetInCU: 0xA25DF, offset: 0xA25DF, size: 0x8, addend: 0x0, symName: __ZNK2pm11ptr_wrapperINS_3AVL4treeINS_8sparse2d6traitsINS3_11traits_baseINS_7nothingELb0ELb0ELNS3_16restriction_kindE1EEELb0ELS7_1EEEEELb1EEptEv, symObjAddr: 0x4680, symBinAddr: 0x100005A1C, symSize: 0x18 }
  - { offsetInCU: 0xA2605, offset: 0xA2605, size: 0x8, addend: 0x0, symName: __ZN2pm11ptr_wrapperINS_3AVL4treeINS_8sparse2d6traitsINS3_11traits_baseINS_7nothingELb0ELb0ELNS3_16restriction_kindE1EEELb0ELS7_1EEEEELb1EEppEv, symObjAddr: 0x4698, symBinAddr: 0x100005A34, symSize: 0x20 }
  - { offsetInCU: 0xA262B, offset: 0xA262B, size: 0x8, addend: 0x0, symName: __ZN2pm8sparse2d5rulerINS_3AVL4treeINS0_6traitsINS0_11traits_baseINS_7nothingELb0ELb0ELNS0_16restriction_kindE1EEELb0ELS7_1EEEEENS0_12ruler_prefixEE8get_dataEv, symObjAddr: 0x46B8, symBinAddr: 0x100005A54, symSize: 0x18 }
  - { offsetInCU: 0xA2651, offset: 0xA2651, size: 0x8, addend: 0x0, symName: __ZNK2pm8sparse2d5rulerINS_3AVL4treeINS0_6traitsINS0_11traits_baseINS_7nothingELb0ELb0ELNS0_16restriction_kindE1EEELb0ELS7_1EEEEENS0_12ruler_prefixEE4sizeEv, symObjAddr: 0x46D0, symBinAddr: 0x100005A6C, symSize: 0x18 }
  - { offsetInCU: 0xA2677, offset: 0xA2677, size: 0x8, addend: 0x0, symName: __ZN2pm11ptr_wrapperINS_3AVL4treeINS_8sparse2d6traitsINS3_11traits_baseINS_7nothingELb0ELb0ELNS3_16restriction_kindE1EEELb0ELS7_1EEEEELb1EEC1EPSA_, symObjAddr: 0x46E8, symBinAddr: 0x100005A84, symSize: 0x34 }
  - { offsetInCU: 0xA26B0, offset: 0xA26B0, size: 0x8, addend: 0x0, symName: __ZN2pm11ptr_wrapperINS_3AVL4treeINS_8sparse2d6traitsINS3_11traits_baseINS_7nothingELb0ELb0ELNS3_16restriction_kindE1EEELb0ELS7_1EEEEELb1EEC2EPSA_, symObjAddr: 0x471C, symBinAddr: 0x100005AB8, symSize: 0x20 }
  - { offsetInCU: 0xA26E9, offset: 0xA26E9, size: 0x8, addend: 0x0, symName: __ZNK2pm11ptr_wrapperINS_3AVL4treeINS_8sparse2d6traitsINS3_11traits_baseINS_7nothingELb0ELb0ELNS3_16restriction_kindE1EEELb0ELS7_1EEEEELb1EEeqISB_EENSt3__19enable_ifIXsr19is_derived_from_anyIT_SB_NS0_IKSA_Lb1EEEEE5valueEbE4typeERKSF_, symObjAddr: 0x473C, symBinAddr: 0x100005AD8, symSize: 0x38 }
  - { offsetInCU: 0xA2736, offset: 0xA2736, size: 0x8, addend: 0x0, symName: __ZN2pm3AVL4treeINS_8sparse2d6traitsINS2_11traits_baseINS_7nothingELb0ELb0ELNS2_16restriction_kindE1EEELb0ELS6_1EEEED1Ev, symObjAddr: 0x4774, symBinAddr: 0x100005B10, symSize: 0x2C }
  - { offsetInCU: 0xA2760, offset: 0xA2760, size: 0x8, addend: 0x0, symName: __ZN2pm3AVL4treeINS_8sparse2d6traitsINS2_11traits_baseINS_7nothingELb0ELb0ELNS2_16restriction_kindE1EEELb0ELS6_1EEEED2Ev, symObjAddr: 0x47A0, symBinAddr: 0x100005B3C, symSize: 0x58 }
  - { offsetInCU: 0xA278A, offset: 0xA278A, size: 0x8, addend: 0x0, symName: __ZN2pm3AVL4treeINS_8sparse2d6traitsINS2_11traits_baseINS_7nothingELb0ELb0ELNS2_16restriction_kindE1EEELb0ELS6_1EEEE13destroy_nodesILb0EEEvNSt3__117integral_constantIbXT_EEE, symObjAddr: 0x47F8, symBinAddr: 0x100005B94, symSize: 0x8C }
  - { offsetInCU: 0xA27EA, offset: 0xA27EA, size: 0x8, addend: 0x0, symName: __ZNK2pm3AVL4treeINS_8sparse2d6traitsINS2_11traits_baseINS_7nothingELb0ELb0ELNS2_16restriction_kindE1EEELb0ELS6_1EEEE4lastEv, symObjAddr: 0x4884, symBinAddr: 0x100005C20, symSize: 0x44 }
  - { offsetInCU: 0xA2810, offset: 0xA2810, size: 0x8, addend: 0x0, symName: __ZN2pm8sparse2d6traitsINS0_11traits_baseINS_7nothingELb0ELb0ELNS0_16restriction_kindE1EEELb0ELS4_1EE8own_nodeEPNS0_4cellIS3_EE, symObjAddr: 0x48C8, symBinAddr: 0x100005C64, symSize: 0x18 }
  - { offsetInCU: 0xA2830, offset: 0xA2830, size: 0x8, addend: 0x0, symName: __ZNK2pm3AVL3PtrINS_8sparse2d4cellINS_7nothingEEEEcvPS5_Ev, symObjAddr: 0x48E0, symBinAddr: 0x100005C7C, symSize: 0x1C }
  - { offsetInCU: 0xA2856, offset: 0xA2856, size: 0x8, addend: 0x0, symName: __ZN2pm3AVL3PtrINS_8sparse2d4cellINS_7nothingEEEE8traverseINS0_4treeINS2_6traitsINS2_11traits_baseIS4_Lb0ELb0ELNS2_16restriction_kindE1EEELb0ELSB_1EEEEEEERS6_RKT_NS0_10link_indexE, symObjAddr: 0x48FC, symBinAddr: 0x100005C98, symSize: 0x8C }
  - { offsetInCU: 0xA28A1, offset: 0xA28A1, size: 0x8, addend: 0x0, symName: __ZN2pm8sparse2d6traitsINS0_11traits_baseINS_7nothingELb0ELb0ELNS0_16restriction_kindE1EEELb0ELS4_1EE12destroy_nodeEPNS0_4cellIS3_EE, symObjAddr: 0x4988, symBinAddr: 0x100005D24, symSize: 0x40 }
  - { offsetInCU: 0xA28D6, offset: 0xA28D6, size: 0x8, addend: 0x0, symName: __ZNK2pm3AVL3PtrINS_8sparse2d4cellINS_7nothingEEEE3endEv, symObjAddr: 0x49C8, symBinAddr: 0x100005D64, symSize: 0x28 }
  - { offsetInCU: 0xA28FC, offset: 0xA28FC, size: 0x8, addend: 0x0, symName: __ZNK2pm8sparse2d9it_traitsINS_7nothingELb0ELb0EE4linkEPNS0_4cellIS2_EENS_3AVL10link_indexE, symObjAddr: 0x49F0, symBinAddr: 0x100005D8C, symSize: 0x34 }
  - { offsetInCU: 0xA294D, offset: 0xA294D, size: 0x8, addend: 0x0, symName: __ZNK2pm8sparse2d11traits_baseINS_7nothingELb0ELb0ELNS0_16restriction_kindE1EE9head_nodeEv, symObjAddr: 0x4A24, symBinAddr: 0x100005DC0, symSize: 0x14 }
  - { offsetInCU: 0xA2973, offset: 0xA2973, size: 0x8, addend: 0x0, symName: __ZNK2pm3AVL3PtrINS_8sparse2d4cellINS_7nothingEEEE4leafEv, symObjAddr: 0x4A38, symBinAddr: 0x100005DD4, symSize: 0x1C }
  - { offsetInCU: 0xA2999, offset: 0xA2999, size: 0x8, addend: 0x0, symName: __ZN2pm3AVL3PtrINS_8sparse2d4cellINS_7nothingEEEE16traverse_to_leafINS0_4treeINS2_6traitsINS2_11traits_baseIS4_Lb0ELb0ELNS2_16restriction_kindE1EEELb0ELSB_1EEEEEEEvRKT_NS0_10link_indexE, symObjAddr: 0x4A54, symBinAddr: 0x100005DF0, symSize: 0x8C }
  - { offsetInCU: 0xA29F3, offset: 0xA29F3, size: 0x8, addend: 0x0, symName: __ZN2pm3AVL3PtrINS_8sparse2d4cellINS_7nothingEEEEC1EPS5_, symObjAddr: 0x4AE0, symBinAddr: 0x100005E7C, symSize: 0x34 }
  - { offsetInCU: 0xA2A2B, offset: 0xA2A2B, size: 0x8, addend: 0x0, symName: __ZN2pm3AVL3PtrINS_8sparse2d4cellINS_7nothingEEEEC2EPS5_, symObjAddr: 0x4B14, symBinAddr: 0x100005EB0, symSize: 0x20 }
  - { offsetInCU: 0xA2A63, offset: 0xA2A63, size: 0x8, addend: 0x0, symName: __ZN2pm8sparse2d6traitsINS0_11traits_baseINS_7nothingELb0ELb0ELNS0_16restriction_kindE1EEELb0ELS4_1EE17remove_node_crossEPNS0_4cellIS3_EENSt3__117integral_constantIbLb0EEE, symObjAddr: 0x4B34, symBinAddr: 0x100005ED0, symSize: 0x14 }
  - { offsetInCU: 0xA2A9F, offset: 0xA2A9F, size: 0x8, addend: 0x0, symName: __ZN2pm9allocator7destroyINS_8sparse2d4cellINS_7nothingEEEEEvPT_, symObjAddr: 0x4B48, symBinAddr: 0x100005EE4, symSize: 0x30 }
  - { offsetInCU: 0xA2ADC, offset: 0xA2ADC, size: 0x8, addend: 0x0, symName: __ZN2pm8sparse2d5rulerINS_3AVL4treeINS0_6traitsINS0_11traits_baseINS_7nothingELb0ELb0ELNS0_16restriction_kindE1EEELb0ELS7_1EEEEENS0_12ruler_prefixEE10total_sizeEm, symObjAddr: 0x4B78, symBinAddr: 0x100005F14, symSize: 0x20 }
  - { offsetInCU: 0xA2AFF, offset: 0xA2AFF, size: 0x8, addend: 0x0, symName: __ZN2pm8sparse2d5rulerINS_3AVL4treeINS0_6traitsINS0_11traits_baseINS_7nothingELb1ELb0ELNS0_16restriction_kindE1EEELb0ELS7_1EEEEENS0_12ruler_prefixEE18destroy_containersEv, symObjAddr: 0x4B98, symBinAddr: 0x100005F34, symSize: 0x6C }
  - { offsetInCU: 0xA2B52, offset: 0xA2B52, size: 0x8, addend: 0x0, symName: __ZN2pm8sparse2d5rulerINS_3AVL4treeINS0_6traitsINS0_11traits_baseINS_7nothingELb1ELb0ELNS0_16restriction_kindE1EEELb0ELS7_1EEEEENS0_12ruler_prefixEE10deallocateEPSC_, symObjAddr: 0x4C04, symBinAddr: 0x100005FA0, symSize: 0x4C }
  - { offsetInCU: 0xA2B84, offset: 0xA2B84, size: 0x8, addend: 0x0, symName: __ZN2pm11plain_arrayINS_8sparse2d5rulerINS_3AVL4treeINS1_6traitsINS1_11traits_baseINS_7nothingELb1ELb0ELNS1_16restriction_kindE1EEELb0ELS8_1EEEEENS1_12ruler_prefixEEESB_E6rbeginEv, symObjAddr: 0x4C50, symBinAddr: 0x100005FEC, symSize: 0x60 }
  - { offsetInCU: 0xA2BAA, offset: 0xA2BAA, size: 0x8, addend: 0x0, symName: __ZN2pm11plain_arrayINS_8sparse2d5rulerINS_3AVL4treeINS1_6traitsINS1_11traits_baseINS_7nothingELb1ELb0ELNS1_16restriction_kindE1EEELb0ELS8_1EEEEENS1_12ruler_prefixEEESB_E4rendEv, symObjAddr: 0x4CB0, symBinAddr: 0x10000604C, symSize: 0x3C }
  - { offsetInCU: 0xA2BD6, offset: 0xA2BD6, size: 0x8, addend: 0x0, symName: __ZNK2pm11ptr_wrapperINS_3AVL4treeINS_8sparse2d6traitsINS3_11traits_baseINS_7nothingELb1ELb0ELNS3_16restriction_kindE1EEELb0ELS7_1EEEEELb1EEneISB_EENSt3__19enable_ifIXsr19is_derived_from_anyIT_SB_NS0_IKSA_Lb1EEEEE5valueEbE4typeERKSF_, symObjAddr: 0x4CEC, symBinAddr: 0x100006088, symSize: 0x34 }
  - { offsetInCU: 0xA2C14, offset: 0xA2C14, size: 0x8, addend: 0x0, symName: __ZNK2pm11ptr_wrapperINS_3AVL4treeINS_8sparse2d6traitsINS3_11traits_baseINS_7nothingELb1ELb0ELNS3_16restriction_kindE1EEELb0ELS7_1EEEEELb1EEptEv, symObjAddr: 0x4D44, symBinAddr: 0x1000060E0, symSize: 0x18 }
  - { offsetInCU: 0xA2C3A, offset: 0xA2C3A, size: 0x8, addend: 0x0, symName: __ZN2pm11ptr_wrapperINS_3AVL4treeINS_8sparse2d6traitsINS3_11traits_baseINS_7nothingELb1ELb0ELNS3_16restriction_kindE1EEELb0ELS7_1EEEEELb1EEppEv, symObjAddr: 0x4D5C, symBinAddr: 0x1000060F8, symSize: 0x20 }
  - { offsetInCU: 0xA2C60, offset: 0xA2C60, size: 0x8, addend: 0x0, symName: __ZN2pm8sparse2d5rulerINS_3AVL4treeINS0_6traitsINS0_11traits_baseINS_7nothingELb1ELb0ELNS0_16restriction_kindE1EEELb0ELS7_1EEEEENS0_12ruler_prefixEE8get_dataEv, symObjAddr: 0x4D7C, symBinAddr: 0x100006118, symSize: 0x18 }
  - { offsetInCU: 0xA2C86, offset: 0xA2C86, size: 0x8, addend: 0x0, symName: __ZNK2pm8sparse2d5rulerINS_3AVL4treeINS0_6traitsINS0_11traits_baseINS_7nothingELb1ELb0ELNS0_16restriction_kindE1EEELb0ELS7_1EEEEENS0_12ruler_prefixEE4sizeEv, symObjAddr: 0x4D94, symBinAddr: 0x100006130, symSize: 0x18 }
  - { offsetInCU: 0xA2CAC, offset: 0xA2CAC, size: 0x8, addend: 0x0, symName: __ZN2pm11ptr_wrapperINS_3AVL4treeINS_8sparse2d6traitsINS3_11traits_baseINS_7nothingELb1ELb0ELNS3_16restriction_kindE1EEELb0ELS7_1EEEEELb1EEC1EPSA_, symObjAddr: 0x4DAC, symBinAddr: 0x100006148, symSize: 0x34 }
  - { offsetInCU: 0xA2CE5, offset: 0xA2CE5, size: 0x8, addend: 0x0, symName: __ZN2pm11ptr_wrapperINS_3AVL4treeINS_8sparse2d6traitsINS3_11traits_baseINS_7nothingELb1ELb0ELNS3_16restriction_kindE1EEELb0ELS7_1EEEEELb1EEC2EPSA_, symObjAddr: 0x4DE0, symBinAddr: 0x10000617C, symSize: 0x20 }
  - { offsetInCU: 0xA2D1E, offset: 0xA2D1E, size: 0x8, addend: 0x0, symName: __ZNK2pm11ptr_wrapperINS_3AVL4treeINS_8sparse2d6traitsINS3_11traits_baseINS_7nothingELb1ELb0ELNS3_16restriction_kindE1EEELb0ELS7_1EEEEELb1EEeqISB_EENSt3__19enable_ifIXsr19is_derived_from_anyIT_SB_NS0_IKSA_Lb1EEEEE5valueEbE4typeERKSF_, symObjAddr: 0x4E00, symBinAddr: 0x10000619C, symSize: 0x38 }
  - { offsetInCU: 0xA2D6B, offset: 0xA2D6B, size: 0x8, addend: 0x0, symName: __ZN2pm3AVL4treeINS_8sparse2d6traitsINS2_11traits_baseINS_7nothingELb1ELb0ELNS2_16restriction_kindE1EEELb0ELS6_1EEEED1Ev, symObjAddr: 0x4E38, symBinAddr: 0x1000061D4, symSize: 0x2C }
  - { offsetInCU: 0xA2D95, offset: 0xA2D95, size: 0x8, addend: 0x0, symName: __ZN2pm3AVL4treeINS_8sparse2d6traitsINS2_11traits_baseINS_7nothingELb1ELb0ELNS2_16restriction_kindE1EEELb0ELS6_1EEEED2Ev, symObjAddr: 0x4E64, symBinAddr: 0x100006200, symSize: 0x58 }
  - { offsetInCU: 0xA2DBF, offset: 0xA2DBF, size: 0x8, addend: 0x0, symName: __ZN2pm3AVL4treeINS_8sparse2d6traitsINS2_11traits_baseINS_7nothingELb1ELb0ELNS2_16restriction_kindE1EEELb0ELS6_1EEEE13destroy_nodesILb0EEEvNSt3__117integral_constantIbXT_EEE, symObjAddr: 0x4EBC, symBinAddr: 0x100006258, symSize: 0x8C }
  - { offsetInCU: 0xA2E1F, offset: 0xA2E1F, size: 0x8, addend: 0x0, symName: __ZNK2pm3AVL4treeINS_8sparse2d6traitsINS2_11traits_baseINS_7nothingELb1ELb0ELNS2_16restriction_kindE1EEELb0ELS6_1EEEE4lastEv, symObjAddr: 0x4F48, symBinAddr: 0x1000062E4, symSize: 0x44 }
  - { offsetInCU: 0xA2E45, offset: 0xA2E45, size: 0x8, addend: 0x0, symName: __ZN2pm8sparse2d6traitsINS0_11traits_baseINS_7nothingELb1ELb0ELNS0_16restriction_kindE1EEELb0ELS4_1EE8own_nodeEPNS0_4cellIS3_EE, symObjAddr: 0x4F8C, symBinAddr: 0x100006328, symSize: 0x18 }
  - { offsetInCU: 0xA2E65, offset: 0xA2E65, size: 0x8, addend: 0x0, symName: __ZN2pm3AVL3PtrINS_8sparse2d4cellINS_7nothingEEEE8traverseINS0_4treeINS2_6traitsINS2_11traits_baseIS4_Lb1ELb0ELNS2_16restriction_kindE1EEELb0ELSB_1EEEEEEERS6_RKT_NS0_10link_indexE, symObjAddr: 0x4FA4, symBinAddr: 0x100006340, symSize: 0x8C }
  - { offsetInCU: 0xA2EB0, offset: 0xA2EB0, size: 0x8, addend: 0x0, symName: __ZN2pm8sparse2d6traitsINS0_11traits_baseINS_7nothingELb1ELb0ELNS0_16restriction_kindE1EEELb0ELS4_1EE12destroy_nodeEPNS0_4cellIS3_EE, symObjAddr: 0x5030, symBinAddr: 0x1000063CC, symSize: 0x40 }
  - { offsetInCU: 0xA2EE5, offset: 0xA2EE5, size: 0x8, addend: 0x0, symName: __ZNK2pm8sparse2d9it_traitsINS_7nothingELb1ELb0EE4linkEPNS0_4cellIS2_EENS_3AVL10link_indexE, symObjAddr: 0x5070, symBinAddr: 0x10000640C, symSize: 0x38 }
  - { offsetInCU: 0xA2F36, offset: 0xA2F36, size: 0x8, addend: 0x0, symName: __ZNK2pm8sparse2d11traits_baseINS_7nothingELb1ELb0ELNS0_16restriction_kindE1EE9head_nodeEv, symObjAddr: 0x50A8, symBinAddr: 0x100006444, symSize: 0x18 }
  - { offsetInCU: 0xA2F5C, offset: 0xA2F5C, size: 0x8, addend: 0x0, symName: __ZN2pm3AVL3PtrINS_8sparse2d4cellINS_7nothingEEEE16traverse_to_leafINS0_4treeINS2_6traitsINS2_11traits_baseIS4_Lb1ELb0ELNS2_16restriction_kindE1EEELb0ELSB_1EEEEEEEvRKT_NS0_10link_indexE, symObjAddr: 0x50C0, symBinAddr: 0x10000645C, symSize: 0x8C }
  - { offsetInCU: 0xA2FB6, offset: 0xA2FB6, size: 0x8, addend: 0x0, symName: __ZN2pm8sparse2d6traitsINS0_11traits_baseINS_7nothingELb1ELb0ELNS0_16restriction_kindE1EEELb0ELS4_1EE17remove_node_crossEPNS0_4cellIS3_EENSt3__117integral_constantIbLb0EEE, symObjAddr: 0x514C, symBinAddr: 0x1000064E8, symSize: 0x14 }
  - { offsetInCU: 0xA2FF2, offset: 0xA2FF2, size: 0x8, addend: 0x0, symName: __ZN2pm8sparse2d5rulerINS_3AVL4treeINS0_6traitsINS0_11traits_baseINS_7nothingELb1ELb0ELNS0_16restriction_kindE1EEELb0ELS7_1EEEEENS0_12ruler_prefixEE10total_sizeEm, symObjAddr: 0x5160, symBinAddr: 0x1000064FC, symSize: 0x20 }
  - { offsetInCU: 0xA3015, offset: 0xA3015, size: 0x8, addend: 0x0, symName: __ZN2pm19manip_container_topINS_4RowsINS_15IncidenceMatrixINS_12NonSymmetricEEEEEN8polymake5mlistIJNS_13Container1TagINS_20same_value_containerIRNS_20IncidenceMatrix_baseIS3_EEEEEENS_13Container2TagINS_6SeriesIlLb1EEEEENS_12OperationTagINSt3__14pairINS_22incidence_line_factoryILb1EvEENS_13BuildBinaryItINS_10operations12dereference2EEEEEEENS_9HiddenTagINSK_17integral_constantIbLb1EEEEEEEELb1EE6hiddenEv, symObjAddr: 0x5180, symBinAddr: 0x10000651C, symSize: 0x24 }
  - { offsetInCU: 0xA303B, offset: 0xA303B, size: 0x8, addend: 0x0, symName: __ZN2pm20same_value_containerIRNS_20IncidenceMatrix_baseINS_12NonSymmetricEEEEC1IJRNS_15IncidenceMatrixIS2_EEEvEEDpOT_, symObjAddr: 0x51A4, symBinAddr: 0x100006540, symSize: 0x34 }
  - { offsetInCU: 0xA307F, offset: 0xA307F, size: 0x8, addend: 0x0, symName: __ZN2pm19manip_container_topINS_4RowsINS_15IncidenceMatrixINS_12NonSymmetricEEEEEN8polymake5mlistIJNS_13Container1TagINS_20same_value_containerIRNS_20IncidenceMatrix_baseIS3_EEEEEENS_13Container2TagINS_6SeriesIlLb1EEEEENS_12OperationTagINSt3__14pairINS_22incidence_line_factoryILb1EvEENS_13BuildBinaryItINS_10operations12dereference2EEEEEEENS_9HiddenTagINSK_17integral_constantIbLb1EEEEEEEELb0EE9manip_topEv, symObjAddr: 0x51D8, symBinAddr: 0x100006574, symSize: 0x14 }
  - { offsetInCU: 0xA30A5, offset: 0xA30A5, size: 0x8, addend: 0x0, symName: __ZN2pm20same_value_containerIRNS_20IncidenceMatrix_baseINS_12NonSymmetricEEEEC2IJRNS_15IncidenceMatrixIS2_EEEvEEDpOT_, symObjAddr: 0x51EC, symBinAddr: 0x100006588, symSize: 0x34 }
  - { offsetInCU: 0xA30E9, offset: 0xA30E9, size: 0x8, addend: 0x0, symName: __ZN2pm5aliasIRNS_20IncidenceMatrix_baseINS_12NonSymmetricEEELNS_10alias_kindE2EEdeEv, symObjAddr: 0x5220, symBinAddr: 0x1000065BC, symSize: 0x14 }
  - { offsetInCU: 0xA310F, offset: 0xA310F, size: 0x8, addend: 0x0, symName: __ZNK2pm19manip_container_topINS_4RowsINS_15IncidenceMatrixINS_12NonSymmetricEEEEEN8polymake5mlistIJNS_13Container1TagINS_20same_value_containerIRNS_20IncidenceMatrix_baseIS3_EEEEEENS_13Container2TagINS_6SeriesIlLb1EEEEENS_12OperationTagINSt3__14pairINS_22incidence_line_factoryILb1EvEENS_13BuildBinaryItINS_10operations12dereference2EEEEEEENS_9HiddenTagINSK_17integral_constantIbLb1EEEEEEEELb1EE6hiddenEv, symObjAddr: 0x5234, symBinAddr: 0x1000065D0, symSize: 0x24 }
  - { offsetInCU: 0xA3135, offset: 0xA3135, size: 0x8, addend: 0x0, symName: __ZNK2pm20IncidenceMatrix_baseINS_12NonSymmetricEE9get_tableEv, symObjAddr: 0x5258, symBinAddr: 0x1000065F4, symSize: 0x24 }
  - { offsetInCU: 0xA315B, offset: 0xA315B, size: 0x8, addend: 0x0, symName: __ZNK2pm8sparse2d5TableINS_7nothingELb0ELNS0_16restriction_kindE0EE4rowsEv, symObjAddr: 0x527C, symBinAddr: 0x100006618, symSize: 0x28 }
  - { offsetInCU: 0xA3181, offset: 0xA3181, size: 0x8, addend: 0x0, symName: __ZNK2pm19manip_container_topINS_4RowsINS_15IncidenceMatrixINS_12NonSymmetricEEEEEN8polymake5mlistIJNS_13Container1TagINS_20same_value_containerIRNS_20IncidenceMatrix_baseIS3_EEEEEENS_13Container2TagINS_6SeriesIlLb1EEEEENS_12OperationTagINSt3__14pairINS_22incidence_line_factoryILb1EvEENS_13BuildBinaryItINS_10operations12dereference2EEEEEEENS_9HiddenTagINSK_17integral_constantIbLb1EEEEEEEELb0EE9manip_topEv, symObjAddr: 0x52A4, symBinAddr: 0x100006640, symSize: 0x14 }
  - { offsetInCU: 0xA31A7, offset: 0xA31A7, size: 0x8, addend: 0x0, symName: __ZNK2pm13shared_objectINS_8sparse2d5TableINS_7nothingELb0ELNS1_16restriction_kindE0EEEJNS_15AliasHandlerTagINS_20shared_alias_handlerEEEEEdeEv, symObjAddr: 0x52B8, symBinAddr: 0x100006654, symSize: 0x18 }
  - { offsetInCU: 0xA31CD, offset: 0xA31CD, size: 0x8, addend: 0x0, symName: __ZNK2pm8sparse2d5rulerINS_3AVL4treeINS0_6traitsINS0_11traits_baseINS_7nothingELb1ELb0ELNS0_16restriction_kindE0EEELb0ELS7_0EEEEENS0_12ruler_prefixEE4sizeEv, symObjAddr: 0x52D0, symBinAddr: 0x10000666C, symSize: 0x18 }
  - { offsetInCU: 0xA31F3, offset: 0xA31F3, size: 0x8, addend: 0x0, symName: __ZN2pm20same_value_containerIRNS_20IncidenceMatrix_baseINS_12NonSymmetricEEEED2Ev, symObjAddr: 0x52E8, symBinAddr: 0x100006684, symSize: 0x2C }
  - { offsetInCU: 0xA321F, offset: 0xA321F, size: 0x8, addend: 0x0, symName: __ZN2pm5aliasIRNS_20IncidenceMatrix_baseINS_12NonSymmetricEEELNS_10alias_kindE2EED1Ev, symObjAddr: 0x5314, symBinAddr: 0x1000066B0, symSize: 0x2C }
  - { offsetInCU: 0xA324B, offset: 0xA324B, size: 0x8, addend: 0x0, symName: __ZN2pm5aliasIRNS_20IncidenceMatrix_baseINS_12NonSymmetricEEELNS_10alias_kindE2EED2Ev, symObjAddr: 0x5340, symBinAddr: 0x1000066DC, symSize: 0x2C }
  - { offsetInCU: 0xA3277, offset: 0xA3277, size: 0x8, addend: 0x0, symName: __ZNSt3__14pairIN2pm22incidence_line_factoryILb1EvEENS1_13BuildBinaryItINS1_10operations12dereference2EEEEC1B8ue170006ILb1ELPv0EEEv, symObjAddr: 0x536C, symBinAddr: 0x100006708, symSize: 0x2C }
  - { offsetInCU: 0xA32B1, offset: 0xA32B1, size: 0x8, addend: 0x0, symName: __ZNSt3__14pairIN2pm22incidence_line_factoryILb1EvEENS1_13BuildBinaryItINS1_10operations12dereference2EEEEC2B8ue170006ILb1ELPv0EEEv, symObjAddr: 0x5398, symBinAddr: 0x100006734, symSize: 0x14 }
  - { offsetInCU: 0xA32EB, offset: 0xA32EB, size: 0x8, addend: 0x0, symName: __ZN2pm14incidence_lineIRNS_3AVL4treeINS_8sparse2d6traitsINS3_11traits_baseINS_7nothingELb1ELb0ELNS3_16restriction_kindE0EEELb0ELS7_0EEEEEED2Ev, symObjAddr: 0x53AC, symBinAddr: 0x100006748, symSize: 0x2C }
  - { offsetInCU: 0xA3317, offset: 0xA3317, size: 0x8, addend: 0x0, symName: __ZN2pm19incidence_line_baseIRNS_3AVL4treeINS_8sparse2d6traitsINS3_11traits_baseINS_7nothingELb1ELb0ELNS3_16restriction_kindE0EEELb0ELS7_0EEEEEED2Ev, symObjAddr: 0x53D8, symBinAddr: 0x100006774, symSize: 0x2C }
  - { offsetInCU: 0xA3343, offset: 0xA3343, size: 0x8, addend: 0x0, symName: __ZN2pm15IncidenceMatrixINS_12NonSymmetricEED2Ev, symObjAddr: 0x5404, symBinAddr: 0x1000067A0, symSize: 0x2C }
  - { offsetInCU: 0xA3370, offset: 0xA3370, size: 0x8, addend: 0x0, symName: __ZN2pm5graph5GraphINS0_10UndirectedEED2Ev, symObjAddr: 0x5430, symBinAddr: 0x1000067CC, symSize: 0x2C }
  - { offsetInCU: 0xA339D, offset: 0xA339D, size: 0x8, addend: 0x0, symName: __ZN2pm13shared_objectINS_5graph5TableINS1_10UndirectedEEEJNS_15AliasHandlerTagINS_20shared_alias_handlerEEENS_17DivorceHandlerTagINS1_5GraphIS3_E12divorce_mapsEEEEED1Ev, symObjAddr: 0x545C, symBinAddr: 0x1000067F8, symSize: 0x2C }
  - { offsetInCU: 0xA33C7, offset: 0xA33C7, size: 0x8, addend: 0x0, symName: __ZN2pm13shared_objectINS_5graph5TableINS1_10UndirectedEEEJNS_15AliasHandlerTagINS_20shared_alias_handlerEEENS_17DivorceHandlerTagINS1_5GraphIS3_E12divorce_mapsEEEEED2Ev, symObjAddr: 0x5488, symBinAddr: 0x100006824, symSize: 0x48 }
  - { offsetInCU: 0xA33F1, offset: 0xA33F1, size: 0x8, addend: 0x0, symName: __ZN2pm13shared_objectINS_5graph5TableINS1_10UndirectedEEEJNS_15AliasHandlerTagINS_20shared_alias_handlerEEENS_17DivorceHandlerTagINS1_5GraphIS3_E12divorce_mapsEEEEE5leaveEv, symObjAddr: 0x54D0, symBinAddr: 0x10000686C, symSize: 0x54 }
  - { offsetInCU: 0xA341D, offset: 0xA341D, size: 0x8, addend: 0x0, symName: __ZN2pm5graph5GraphINS0_10UndirectedEE12divorce_mapsD1Ev, symObjAddr: 0x5524, symBinAddr: 0x1000068C0, symSize: 0x2C }
  - { offsetInCU: 0xA344A, offset: 0xA344A, size: 0x8, addend: 0x0, symName: __ZN2pm13shared_objectINS_5graph5TableINS1_10UndirectedEEEJNS_15AliasHandlerTagINS_20shared_alias_handlerEEENS_17DivorceHandlerTagINS1_5GraphIS3_E12divorce_mapsEEEEE3rep8destructEPSE_, symObjAddr: 0x5550, symBinAddr: 0x1000068EC, symSize: 0x2C }
  - { offsetInCU: 0xA346E, offset: 0xA346E, size: 0x8, addend: 0x0, symName: __ZN2pm13shared_objectINS_5graph5TableINS1_10UndirectedEEEJNS_15AliasHandlerTagINS_20shared_alias_handlerEEENS_17DivorceHandlerTagINS1_5GraphIS3_E12divorce_mapsEEEEE3rep7destroyEv, symObjAddr: 0x557C, symBinAddr: 0x100006918, symSize: 0x24 }
  - { offsetInCU: 0xA3494, offset: 0xA3494, size: 0x8, addend: 0x0, symName: __ZN2pm13shared_objectINS_5graph5TableINS1_10UndirectedEEEJNS_15AliasHandlerTagINS_20shared_alias_handlerEEENS_17DivorceHandlerTagINS1_5GraphIS3_E12divorce_mapsEEEEE3rep10deallocateEPSE_, symObjAddr: 0x55A0, symBinAddr: 0x10000693C, symSize: 0x38 }
  - { offsetInCU: 0xA34C7, offset: 0xA34C7, size: 0x8, addend: 0x0, symName: __ZN2pm13shared_objectINS_5graph5TableINS1_10UndirectedEEEJNS_15AliasHandlerTagINS_20shared_alias_handlerEEENS_17DivorceHandlerTagINS1_5GraphIS3_E12divorce_mapsEEEEE3rep7destroyIS4_EEvPT_, symObjAddr: 0x55D8, symBinAddr: 0x100006974, symSize: 0x24 }
  - { offsetInCU: 0xA34F4, offset: 0xA34F4, size: 0x8, addend: 0x0, symName: __ZN2pm5graph5TableINS0_10UndirectedEED1Ev, symObjAddr: 0x5620, symBinAddr: 0x1000069BC, symSize: 0x2C }
  - { offsetInCU: 0xA351E, offset: 0xA351E, size: 0x8, addend: 0x0, symName: __ZN2pm5graph5TableINS0_10UndirectedEE16detach_node_mapsEv, symObjAddr: 0x56A8, symBinAddr: 0x100006A44, symSize: 0x90 }
  - { offsetInCU: 0xA3580, offset: 0xA3580, size: 0x8, addend: 0x0, symName: __ZN2pm5graph5TableINS0_10UndirectedEE16detach_edge_mapsEv, symObjAddr: 0x5738, symBinAddr: 0x100006AD4, symSize: 0x8C }
  - { offsetInCU: 0xA35E2, offset: 0xA35E2, size: 0x8, addend: 0x0, symName: __ZN2pm8sparse2d5rulerINS_5graph10node_entryINS2_10UndirectedELNS0_16restriction_kindE1EEENS2_10edge_agentIS4_EEE7destroyEPS9_, symObjAddr: 0x57C4, symBinAddr: 0x100006B60, symSize: 0x2C }
  - { offsetInCU: 0xA3605, offset: 0xA3605, size: 0x8, addend: 0x0, symName: __ZNSt3__16vectorIlNS_9allocatorIlEEED1B8ue170006Ev, symObjAddr: 0x57F0, symBinAddr: 0x100006B8C, symSize: 0x2C }
  - { offsetInCU: 0xA362F, offset: 0xA362F, size: 0x8, addend: 0x0, symName: __ZNK2pm14iterator_rangeINS_22embedded_list_iteratorINS_5graph11NodeMapBaseEXadL_ZNS3_4ptrsEEELb0ELb0EEEE6at_endEv, symObjAddr: 0x5854, symBinAddr: 0x100006BF0, symSize: 0x30 }
  - { offsetInCU: 0xA3655, offset: 0xA3655, size: 0x8, addend: 0x0, symName: __ZNK2pm22embedded_list_iteratorINS_5graph11NodeMapBaseEXadL_ZNS2_4ptrsEEELb0ELb0EEptEv, symObjAddr: 0x5884, symBinAddr: 0x100006C20, symSize: 0x18 }
  - { offsetInCU: 0xA367B, offset: 0xA367B, size: 0x8, addend: 0x0, symName: __ZN2pm14iterator_rangeINS_22embedded_list_iteratorINS_5graph11NodeMapBaseEXadL_ZNS3_4ptrsEEELb0ELb0EEEEppEv, symObjAddr: 0x589C, symBinAddr: 0x100006C38, symSize: 0x2C }
  - { offsetInCU: 0xA36A1, offset: 0xA36A1, size: 0x8, addend: 0x0, symName: __ZN2pm5graph5TableINS0_10UndirectedEE6detachERNS0_11NodeMapBaseE, symObjAddr: 0x58C8, symBinAddr: 0x100006C64, symSize: 0x30 }
  - { offsetInCU: 0xA36D6, offset: 0xA36D6, size: 0x8, addend: 0x0, symName: __ZN2pm23construct_end_sensitiveINS_12EmbeddedListINS_5graph11NodeMapBaseEXadL_ZNS3_4ptrsEEEEELb0EE5beginEv, symObjAddr: 0x590C, symBinAddr: 0x100006CA8, symSize: 0x58 }
  - { offsetInCU: 0xA36FC, offset: 0xA36FC, size: 0x8, addend: 0x0, symName: __ZN2pm12EmbeddedListINS_5graph11NodeMapBaseEXadL_ZNS2_4ptrsEEEE5beginEv, symObjAddr: 0x5964, symBinAddr: 0x100006D00, symSize: 0x3C }
  - { offsetInCU: 0xA3722, offset: 0xA3722, size: 0x8, addend: 0x0, symName: __ZN2pm12EmbeddedListINS_5graph11NodeMapBaseEXadL_ZNS2_4ptrsEEEE3endEv, symObjAddr: 0x59A0, symBinAddr: 0x100006D3C, symSize: 0x38 }
  - { offsetInCU: 0xA3748, offset: 0xA3748, size: 0x8, addend: 0x0, symName: __ZN2pm14iterator_rangeINS_22embedded_list_iteratorINS_5graph11NodeMapBaseEXadL_ZNS3_4ptrsEEELb0ELb0EEEEC1IS4_S4_vEERKT_RKT0_, symObjAddr: 0x59D8, symBinAddr: 0x100006D74, symSize: 0x3C }
  - { offsetInCU: 0xA37A3, offset: 0xA37A3, size: 0x8, addend: 0x0, symName: __ZN2pm22embedded_list_iteratorINS_5graph11NodeMapBaseEXadL_ZNS2_4ptrsEEELb0ELb0EEC1EPS2_, symObjAddr: 0x5A14, symBinAddr: 0x100006DB0, symSize: 0x34 }
  - { offsetInCU: 0xA37DB, offset: 0xA37DB, size: 0x8, addend: 0x0, symName: __ZN2pm22embedded_list_iteratorINS_5graph11NodeMapBaseEXadL_ZNS2_4ptrsEEELb0ELb0EEC2EPS2_, symObjAddr: 0x5A48, symBinAddr: 0x100006DE4, symSize: 0x20 }
  - { offsetInCU: 0xA3813, offset: 0xA3813, size: 0x8, addend: 0x0, symName: __ZNK2pm12EmbeddedListINS_5graph11NodeMapBaseEXadL_ZNS2_4ptrsEEEE8end_nodeEv, symObjAddr: 0x5A68, symBinAddr: 0x100006E04, symSize: 0x28 }
  - { offsetInCU: 0xA3839, offset: 0xA3839, size: 0x8, addend: 0x0, symName: __ZN2pm14iterator_rangeINS_22embedded_list_iteratorINS_5graph11NodeMapBaseEXadL_ZNS3_4ptrsEEELb0ELb0EEEEC2IS4_S4_vEERKT_RKT0_, symObjAddr: 0x5AD0, symBinAddr: 0x100006E6C, symSize: 0x48 }
  - { offsetInCU: 0xA3894, offset: 0xA3894, size: 0x8, addend: 0x0, symName: __ZN2pm22embedded_list_iteratorINS_5graph11NodeMapBaseEXadL_ZNS2_4ptrsEEELb0ELb0EEC2ERKS3_, symObjAddr: 0x5B18, symBinAddr: 0x100006EB4, symSize: 0x24 }
  - { offsetInCU: 0xA38CC, offset: 0xA38CC, size: 0x8, addend: 0x0, symName: __ZN2pm22embedded_list_iteratorINS_5graph11NodeMapBaseEXadL_ZNS2_4ptrsEEELb0ELb0EEC1ERKS3_, symObjAddr: 0x5B3C, symBinAddr: 0x100006ED8, symSize: 0x34 }
  - { offsetInCU: 0xA3904, offset: 0xA3904, size: 0x8, addend: 0x0, symName: __ZNK2pm22embedded_list_iteratorINS_5graph11NodeMapBaseEXadL_ZNS2_4ptrsEEELb0ELb0EEeqILb0ELb0EEEbRKNS0_IS2_XadL_ZNS2_4ptrsEEEXT_EXT0_EEE, symObjAddr: 0x5B70, symBinAddr: 0x100006F0C, symSize: 0x30 }
  - { offsetInCU: 0xA394C, offset: 0xA394C, size: 0x8, addend: 0x0, symName: __ZN2pm22embedded_list_iteratorINS_5graph11NodeMapBaseEXadL_ZNS2_4ptrsEEELb0ELb0EEppEv, symObjAddr: 0x5BA0, symBinAddr: 0x100006F3C, symSize: 0x20 }
  - { offsetInCU: 0xA3972, offset: 0xA3972, size: 0x8, addend: 0x0, symName: __ZN2pm12EmbeddedListINS_5graph11NodeMapBaseEXadL_ZNS2_4ptrsEEEE6removeERS2_, symObjAddr: 0x5BC0, symBinAddr: 0x100006F5C, symSize: 0x38 }
  - { offsetInCU: 0xA39A6, offset: 0xA39A6, size: 0x8, addend: 0x0, symName: __ZN2pm12EmbeddedListINS_5graph11NodeMapBaseEXadL_ZNS2_4ptrsEEEE7_removeEPS2_, symObjAddr: 0x5BF8, symBinAddr: 0x100006F94, symSize: 0x48 }
  - { offsetInCU: 0xA39F8, offset: 0xA39F8, size: 0x8, addend: 0x0, symName: __ZN2pm8ptr_pairINS_5graph11NodeMapBaseEE7excludeEv, symObjAddr: 0x5C40, symBinAddr: 0x100006FDC, symSize: 0x1C }
  - { offsetInCU: 0xA3A1E, offset: 0xA3A1E, size: 0x8, addend: 0x0, symName: __ZNK2pm14iterator_rangeINS_22embedded_list_iteratorINS_5graph11EdgeMapBaseEXadL_ZNS3_4ptrsEEELb0ELb0EEEE6at_endEv, symObjAddr: 0x5C94, symBinAddr: 0x100007030, symSize: 0x30 }
  - { offsetInCU: 0xA3A44, offset: 0xA3A44, size: 0x8, addend: 0x0, symName: __ZNK2pm22embedded_list_iteratorINS_5graph11EdgeMapBaseEXadL_ZNS2_4ptrsEEELb0ELb0EEptEv, symObjAddr: 0x5CC4, symBinAddr: 0x100007060, symSize: 0x18 }
  - { offsetInCU: 0xA3A6A, offset: 0xA3A6A, size: 0x8, addend: 0x0, symName: __ZN2pm14iterator_rangeINS_22embedded_list_iteratorINS_5graph11EdgeMapBaseEXadL_ZNS3_4ptrsEEELb0ELb0EEEEppEv, symObjAddr: 0x5CDC, symBinAddr: 0x100007078, symSize: 0x2C }
  - { offsetInCU: 0xA3A90, offset: 0xA3A90, size: 0x8, addend: 0x0, symName: __ZN2pm5graph5TableINS0_10UndirectedEE6detachERNS0_11EdgeMapBaseE, symObjAddr: 0x5D08, symBinAddr: 0x1000070A4, symSize: 0x68 }
  - { offsetInCU: 0xA3AC5, offset: 0xA3AC5, size: 0x8, addend: 0x0, symName: __ZN2pm23construct_end_sensitiveINS_12EmbeddedListINS_5graph11EdgeMapBaseEXadL_ZNS3_4ptrsEEEEELb0EE5beginEv, symObjAddr: 0x5D84, symBinAddr: 0x100007120, symSize: 0x58 }
  - { offsetInCU: 0xA3AEB, offset: 0xA3AEB, size: 0x8, addend: 0x0, symName: __ZN2pm12EmbeddedListINS_5graph11EdgeMapBaseEXadL_ZNS2_4ptrsEEEE5beginEv, symObjAddr: 0x5DDC, symBinAddr: 0x100007178, symSize: 0x3C }
  - { offsetInCU: 0xA3B11, offset: 0xA3B11, size: 0x8, addend: 0x0, symName: __ZN2pm12EmbeddedListINS_5graph11EdgeMapBaseEXadL_ZNS2_4ptrsEEEE3endEv, symObjAddr: 0x5E18, symBinAddr: 0x1000071B4, symSize: 0x38 }
  - { offsetInCU: 0xA3B37, offset: 0xA3B37, size: 0x8, addend: 0x0, symName: __ZN2pm14iterator_rangeINS_22embedded_list_iteratorINS_5graph11EdgeMapBaseEXadL_ZNS3_4ptrsEEELb0ELb0EEEEC1IS4_S4_vEERKT_RKT0_, symObjAddr: 0x5E50, symBinAddr: 0x1000071EC, symSize: 0x3C }
  - { offsetInCU: 0xA3B92, offset: 0xA3B92, size: 0x8, addend: 0x0, symName: __ZN2pm22embedded_list_iteratorINS_5graph11EdgeMapBaseEXadL_ZNS2_4ptrsEEELb0ELb0EEC1EPS2_, symObjAddr: 0x5E8C, symBinAddr: 0x100007228, symSize: 0x34 }
  - { offsetInCU: 0xA3BCA, offset: 0xA3BCA, size: 0x8, addend: 0x0, symName: __ZN2pm22embedded_list_iteratorINS_5graph11EdgeMapBaseEXadL_ZNS2_4ptrsEEELb0ELb0EEC2EPS2_, symObjAddr: 0x5EC0, symBinAddr: 0x10000725C, symSize: 0x20 }
  - { offsetInCU: 0xA3C02, offset: 0xA3C02, size: 0x8, addend: 0x0, symName: __ZNK2pm12EmbeddedListINS_5graph11EdgeMapBaseEXadL_ZNS2_4ptrsEEEE8end_nodeEv, symObjAddr: 0x5EE0, symBinAddr: 0x10000727C, symSize: 0x28 }
  - { offsetInCU: 0xA3C28, offset: 0xA3C28, size: 0x8, addend: 0x0, symName: __ZN2pm14iterator_rangeINS_22embedded_list_iteratorINS_5graph11EdgeMapBaseEXadL_ZNS3_4ptrsEEELb0ELb0EEEEC2IS4_S4_vEERKT_RKT0_, symObjAddr: 0x5F48, symBinAddr: 0x1000072E4, symSize: 0x48 }
  - { offsetInCU: 0xA3C83, offset: 0xA3C83, size: 0x8, addend: 0x0, symName: __ZN2pm22embedded_list_iteratorINS_5graph11EdgeMapBaseEXadL_ZNS2_4ptrsEEELb0ELb0EEC2ERKS3_, symObjAddr: 0x5F90, symBinAddr: 0x10000732C, symSize: 0x24 }
  - { offsetInCU: 0xA3CBB, offset: 0xA3CBB, size: 0x8, addend: 0x0, symName: __ZN2pm22embedded_list_iteratorINS_5graph11EdgeMapBaseEXadL_ZNS2_4ptrsEEELb0ELb0EEC1ERKS3_, symObjAddr: 0x5FB4, symBinAddr: 0x100007350, symSize: 0x34 }
  - { offsetInCU: 0xA3CF3, offset: 0xA3CF3, size: 0x8, addend: 0x0, symName: __ZNK2pm22embedded_list_iteratorINS_5graph11EdgeMapBaseEXadL_ZNS2_4ptrsEEELb0ELb0EEeqILb0ELb0EEEbRKNS0_IS2_XadL_ZNS2_4ptrsEEEXT_EXT0_EEE, symObjAddr: 0x5FE8, symBinAddr: 0x100007384, symSize: 0x30 }
  - { offsetInCU: 0xA3D3B, offset: 0xA3D3B, size: 0x8, addend: 0x0, symName: __ZN2pm22embedded_list_iteratorINS_5graph11EdgeMapBaseEXadL_ZNS2_4ptrsEEELb0ELb0EEppEv, symObjAddr: 0x6018, symBinAddr: 0x1000073B4, symSize: 0x20 }
  - { offsetInCU: 0xA3D61, offset: 0xA3D61, size: 0x8, addend: 0x0, symName: __ZN2pm12EmbeddedListINS_5graph11EdgeMapBaseEXadL_ZNS2_4ptrsEEEE6removeERS2_, symObjAddr: 0x6038, symBinAddr: 0x1000073D4, symSize: 0x38 }
  - { offsetInCU: 0xA3D95, offset: 0xA3D95, size: 0x8, addend: 0x0, symName: __ZNK2pm12EmbeddedListINS_5graph11EdgeMapBaseEXadL_ZNS2_4ptrsEEEE5emptyEv, symObjAddr: 0x6070, symBinAddr: 0x10000740C, symSize: 0x3C }
  - { offsetInCU: 0xA3DBB, offset: 0xA3DBB, size: 0x8, addend: 0x0, symName: __ZN2pm8sparse2d5rulerINS_5graph10node_entryINS2_10UndirectedELNS0_16restriction_kindE0EEENS2_10edge_agentIS4_EEE6prefixEv, symObjAddr: 0x60AC, symBinAddr: 0x100007448, symSize: 0x18 }
  - { offsetInCU: 0xA3DE1, offset: 0xA3DE1, size: 0x8, addend: 0x0, symName: __ZN2pm5graph10edge_agentINS0_10UndirectedEE5resetEv, symObjAddr: 0x60C4, symBinAddr: 0x100007460, symSize: 0x1C }
  - { offsetInCU: 0xA3E07, offset: 0xA3E07, size: 0x8, addend: 0x0, symName: __ZNSt3__16vectorIlNS_9allocatorIlEEE5clearB8ue170006Ev, symObjAddr: 0x60E0, symBinAddr: 0x10000747C, symSize: 0x44 }
  - { offsetInCU: 0xA3E3C, offset: 0xA3E3C, size: 0x8, addend: 0x0, symName: __ZN2pm12EmbeddedListINS_5graph11EdgeMapBaseEXadL_ZNS2_4ptrsEEEE7_removeEPS2_, symObjAddr: 0x6124, symBinAddr: 0x1000074C0, symSize: 0x48 }
  - { offsetInCU: 0xA3E8E, offset: 0xA3E8E, size: 0x8, addend: 0x0, symName: __ZN2pm8ptr_pairINS_5graph11EdgeMapBaseEE7excludeEv, symObjAddr: 0x616C, symBinAddr: 0x100007508, symSize: 0x1C }
  - { offsetInCU: 0xA3EB4, offset: 0xA3EB4, size: 0x8, addend: 0x0, symName: __ZNKSt3__16vectorIlNS_9allocatorIlEEE4sizeB8ue170006Ev, symObjAddr: 0x6188, symBinAddr: 0x100007524, symSize: 0x28 }
  - { offsetInCU: 0xA3EDA, offset: 0xA3EDA, size: 0x8, addend: 0x0, symName: __ZNSt3__16vectorIlNS_9allocatorIlEEE7__clearB8ue170006Ev, symObjAddr: 0x61B0, symBinAddr: 0x10000754C, symSize: 0x28 }
  - { offsetInCU: 0xA3F00, offset: 0xA3F00, size: 0x8, addend: 0x0, symName: __ZNKSt3__16vectorIlNS_9allocatorIlEEE17__annotate_shrinkB8ue170006Em, symObjAddr: 0x61D8, symBinAddr: 0x100007574, symSize: 0xB4 }
  - { offsetInCU: 0xA3F35, offset: 0xA3F35, size: 0x8, addend: 0x0, symName: __ZNSt3__16vectorIlNS_9allocatorIlEEE22__base_destruct_at_endB8ue170006EPl, symObjAddr: 0x628C, symBinAddr: 0x100007628, symSize: 0x8C }
  - { offsetInCU: 0xA3F79, offset: 0xA3F79, size: 0x8, addend: 0x0, symName: __ZNSt3__116allocator_traitsINS_9allocatorIlEEE7destroyB8ue170006IlvEEvRS2_PT_, symObjAddr: 0x6318, symBinAddr: 0x1000076B4, symSize: 0x2C }
  - { offsetInCU: 0xA3FB6, offset: 0xA3FB6, size: 0x8, addend: 0x0, symName: __ZNSt3__16vectorIlNS_9allocatorIlEEE7__allocB8ue170006Ev, symObjAddr: 0x6344, symBinAddr: 0x1000076E0, symSize: 0x28 }
  - { offsetInCU: 0xA3FDC, offset: 0xA3FDC, size: 0x8, addend: 0x0, symName: __ZNSt3__19allocatorIlE7destroyB8ue170006EPl, symObjAddr: 0x6380, symBinAddr: 0x10000771C, symSize: 0x14 }
  - { offsetInCU: 0xA4010, offset: 0xA4010, size: 0x8, addend: 0x0, symName: __ZNSt3__117__compressed_pairIPlNS_9allocatorIlEEE6secondB8ue170006Ev, symObjAddr: 0x6394, symBinAddr: 0x100007730, symSize: 0x24 }
  - { offsetInCU: 0xA4036, offset: 0xA4036, size: 0x8, addend: 0x0, symName: __ZNSt3__122__compressed_pair_elemINS_9allocatorIlEELi1ELb1EE5__getB8ue170006Ev, symObjAddr: 0x63B8, symBinAddr: 0x100007754, symSize: 0x14 }
  - { offsetInCU: 0xA405C, offset: 0xA405C, size: 0x8, addend: 0x0, symName: __ZNKSt3__16vectorIlNS_9allocatorIlEEE31__annotate_contiguous_containerB8ue170006EPKvS5_S5_S5_, symObjAddr: 0x63CC, symBinAddr: 0x100007768, symSize: 0x20 }
  - { offsetInCU: 0xA40AE, offset: 0xA40AE, size: 0x8, addend: 0x0, symName: __ZNKSt3__16vectorIlNS_9allocatorIlEEE4dataB8ue170006Ev, symObjAddr: 0x63EC, symBinAddr: 0x100007788, symSize: 0x28 }
  - { offsetInCU: 0xA40D4, offset: 0xA40D4, size: 0x8, addend: 0x0, symName: __ZNKSt3__16vectorIlNS_9allocatorIlEEE8capacityB8ue170006Ev, symObjAddr: 0x6414, symBinAddr: 0x1000077B0, symSize: 0x40 }
  - { offsetInCU: 0xA40FA, offset: 0xA40FA, size: 0x8, addend: 0x0, symName: __ZNKSt3__16vectorIlNS_9allocatorIlEEE9__end_capB8ue170006Ev, symObjAddr: 0x6454, symBinAddr: 0x1000077F0, symSize: 0x28 }
  - { offsetInCU: 0xA4120, offset: 0xA4120, size: 0x8, addend: 0x0, symName: __ZNKSt3__117__compressed_pairIPlNS_9allocatorIlEEE5firstB8ue170006Ev, symObjAddr: 0x647C, symBinAddr: 0x100007818, symSize: 0x24 }
  - { offsetInCU: 0xA4146, offset: 0xA4146, size: 0x8, addend: 0x0, symName: __ZNKSt3__122__compressed_pair_elemIPlLi0ELb0EE5__getB8ue170006Ev, symObjAddr: 0x64A0, symBinAddr: 0x10000783C, symSize: 0x14 }
  - { offsetInCU: 0xA416C, offset: 0xA416C, size: 0x8, addend: 0x0, symName: __ZN2pm8sparse2d5rulerINS_5graph10node_entryINS2_10UndirectedELNS0_16restriction_kindE1EEENS2_10edge_agentIS4_EEE18destroy_containersEv, symObjAddr: 0x64B4, symBinAddr: 0x100007850, symSize: 0x6C }
  - { offsetInCU: 0xA41BF, offset: 0xA41BF, size: 0x8, addend: 0x0, symName: __ZN2pm8sparse2d5rulerINS_5graph10node_entryINS2_10UndirectedELNS0_16restriction_kindE1EEENS2_10edge_agentIS4_EEE10deallocateEPS9_, symObjAddr: 0x6520, symBinAddr: 0x1000078BC, symSize: 0x4C }
  - { offsetInCU: 0xA41F1, offset: 0xA41F1, size: 0x8, addend: 0x0, symName: __ZN2pm11plain_arrayINS_8sparse2d5rulerINS_5graph10node_entryINS3_10UndirectedELNS1_16restriction_kindE1EEENS3_10edge_agentIS5_EEEES7_E6rbeginEv, symObjAddr: 0x656C, symBinAddr: 0x100007908, symSize: 0x60 }
  - { offsetInCU: 0xA4217, offset: 0xA4217, size: 0x8, addend: 0x0, symName: __ZN2pm11plain_arrayINS_8sparse2d5rulerINS_5graph10node_entryINS3_10UndirectedELNS1_16restriction_kindE1EEENS3_10edge_agentIS5_EEEES7_E4rendEv, symObjAddr: 0x65CC, symBinAddr: 0x100007968, symSize: 0x3C }
  - { offsetInCU: 0xA4243, offset: 0xA4243, size: 0x8, addend: 0x0, symName: __ZNK2pm11ptr_wrapperINS_5graph10node_entryINS1_10UndirectedELNS_8sparse2d16restriction_kindE1EEELb1EEneIS7_EENSt3__19enable_ifIXsr19is_derived_from_anyIT_S7_NS0_IKS6_Lb1EEEEE5valueEbE4typeERKSB_, symObjAddr: 0x6608, symBinAddr: 0x1000079A4, symSize: 0x34 }
  - { offsetInCU: 0xA4281, offset: 0xA4281, size: 0x8, addend: 0x0, symName: __ZNK2pm11ptr_wrapperINS_5graph10node_entryINS1_10UndirectedELNS_8sparse2d16restriction_kindE1EEELb1EEptEv, symObjAddr: 0x6660, symBinAddr: 0x1000079FC, symSize: 0x18 }
  - { offsetInCU: 0xA42A7, offset: 0xA42A7, size: 0x8, addend: 0x0, symName: __ZN2pm11ptr_wrapperINS_5graph10node_entryINS1_10UndirectedELNS_8sparse2d16restriction_kindE1EEELb1EEppEv, symObjAddr: 0x6678, symBinAddr: 0x100007A14, symSize: 0x20 }
  - { offsetInCU: 0xA42CD, offset: 0xA42CD, size: 0x8, addend: 0x0, symName: __ZN2pm8sparse2d5rulerINS_5graph10node_entryINS2_10UndirectedELNS0_16restriction_kindE1EEENS2_10edge_agentIS4_EEE8get_dataEv, symObjAddr: 0x6698, symBinAddr: 0x100007A34, symSize: 0x18 }
  - { offsetInCU: 0xA42F3, offset: 0xA42F3, size: 0x8, addend: 0x0, symName: __ZNK2pm8sparse2d5rulerINS_5graph10node_entryINS2_10UndirectedELNS0_16restriction_kindE1EEENS2_10edge_agentIS4_EEE4sizeEv, symObjAddr: 0x66B0, symBinAddr: 0x100007A4C, symSize: 0x18 }
  - { offsetInCU: 0xA4319, offset: 0xA4319, size: 0x8, addend: 0x0, symName: __ZN2pm11ptr_wrapperINS_5graph10node_entryINS1_10UndirectedELNS_8sparse2d16restriction_kindE1EEELb1EEC1EPS6_, symObjAddr: 0x66C8, symBinAddr: 0x100007A64, symSize: 0x34 }
  - { offsetInCU: 0xA4352, offset: 0xA4352, size: 0x8, addend: 0x0, symName: __ZN2pm11ptr_wrapperINS_5graph10node_entryINS1_10UndirectedELNS_8sparse2d16restriction_kindE1EEELb1EEC2EPS6_, symObjAddr: 0x66FC, symBinAddr: 0x100007A98, symSize: 0x20 }
  - { offsetInCU: 0xA438B, offset: 0xA438B, size: 0x8, addend: 0x0, symName: __ZNK2pm11ptr_wrapperINS_5graph10node_entryINS1_10UndirectedELNS_8sparse2d16restriction_kindE1EEELb1EEeqIS7_EENSt3__19enable_ifIXsr19is_derived_from_anyIT_S7_NS0_IKS6_Lb1EEEEE5valueEbE4typeERKSB_, symObjAddr: 0x671C, symBinAddr: 0x100007AB8, symSize: 0x38 }
  - { offsetInCU: 0xA43D8, offset: 0xA43D8, size: 0x8, addend: 0x0, symName: __ZN2pm5graph10node_entryINS0_10UndirectedELNS_8sparse2d16restriction_kindE1EED1Ev, symObjAddr: 0x6754, symBinAddr: 0x100007AF0, symSize: 0x2C }
  - { offsetInCU: 0xA4405, offset: 0xA4405, size: 0x8, addend: 0x0, symName: __ZN2pm5graph10node_entryINS0_10UndirectedELNS_8sparse2d16restriction_kindE1EED2Ev, symObjAddr: 0x6780, symBinAddr: 0x100007B1C, symSize: 0x2C }
  - { offsetInCU: 0xA4432, offset: 0xA4432, size: 0x8, addend: 0x0, symName: __ZN2pm5graph16node_entry_treesINS0_10UndirectedELNS_8sparse2d16restriction_kindE1ELb1EED2Ev, symObjAddr: 0x67AC, symBinAddr: 0x100007B48, symSize: 0x2C }
  - { offsetInCU: 0xA445F, offset: 0xA445F, size: 0x8, addend: 0x0, symName: __ZN2pm3AVL4treeINS_8sparse2d6traitsINS_5graph11traits_baseINS4_10UndirectedELb0ELNS2_16restriction_kindE1EEELb1ELS7_1EEEED1Ev, symObjAddr: 0x67D8, symBinAddr: 0x100007B74, symSize: 0x2C }
  - { offsetInCU: 0xA4489, offset: 0xA4489, size: 0x8, addend: 0x0, symName: __ZN2pm3AVL4treeINS_8sparse2d6traitsINS_5graph11traits_baseINS4_10UndirectedELb0ELNS2_16restriction_kindE1EEELb1ELS7_1EEEED2Ev, symObjAddr: 0x6804, symBinAddr: 0x100007BA0, symSize: 0x58 }
  - { offsetInCU: 0xA44B3, offset: 0xA44B3, size: 0x8, addend: 0x0, symName: __ZN2pm3AVL4treeINS_8sparse2d6traitsINS_5graph11traits_baseINS4_10UndirectedELb0ELNS2_16restriction_kindE1EEELb1ELS7_1EEEE13destroy_nodesILb0EEEvNSt3__117integral_constantIbXT_EEE, symObjAddr: 0x685C, symBinAddr: 0x100007BF8, symSize: 0x94 }
  - { offsetInCU: 0xA4513, offset: 0xA4513, size: 0x8, addend: 0x0, symName: __ZNK2pm3AVL4treeINS_8sparse2d6traitsINS_5graph11traits_baseINS4_10UndirectedELb0ELNS2_16restriction_kindE1EEELb1ELS7_1EEEE4lastEv, symObjAddr: 0x68F0, symBinAddr: 0x100007C8C, symSize: 0x44 }
  - { offsetInCU: 0xA4539, offset: 0xA4539, size: 0x8, addend: 0x0, symName: __ZNK2pm8sparse2d6traitsINS_5graph11traits_baseINS2_10UndirectedELb0ELNS0_16restriction_kindE1EEELb1ELS5_1EE8own_nodeEPNS0_4cellIlEE, symObjAddr: 0x6934, symBinAddr: 0x100007CD0, symSize: 0x4C }
  - { offsetInCU: 0xA456E, offset: 0xA456E, size: 0x8, addend: 0x0, symName: __ZNK2pm3AVL3PtrINS_8sparse2d4cellIlEEEcvPS4_Ev, symObjAddr: 0x6980, symBinAddr: 0x100007D1C, symSize: 0x1C }
  - { offsetInCU: 0xA4594, offset: 0xA4594, size: 0x8, addend: 0x0, symName: __ZN2pm3AVL3PtrINS_8sparse2d4cellIlEEE8traverseINS0_4treeINS2_6traitsINS_5graph11traits_baseINS9_10UndirectedELb0ELNS2_16restriction_kindE1EEELb1ELSC_1EEEEEEERS5_RKT_NS0_10link_indexE, symObjAddr: 0x699C, symBinAddr: 0x100007D38, symSize: 0x8C }
  - { offsetInCU: 0xA45DF, offset: 0xA45DF, size: 0x8, addend: 0x0, symName: __ZN2pm8sparse2d6traitsINS_5graph11traits_baseINS2_10UndirectedELb0ELNS0_16restriction_kindE1EEELb1ELS5_1EE12destroy_nodeEPNS0_4cellIlEE, symObjAddr: 0x6A28, symBinAddr: 0x100007DC4, symSize: 0x40 }
  - { offsetInCU: 0xA4614, offset: 0xA4614, size: 0x8, addend: 0x0, symName: __ZNK2pm3AVL3PtrINS_8sparse2d4cellIlEEE3endEv, symObjAddr: 0x6A68, symBinAddr: 0x100007E04, symSize: 0x28 }
  - { offsetInCU: 0xA463A, offset: 0xA463A, size: 0x8, addend: 0x0, symName: __ZNK2pm5graph9it_traitsINS0_10UndirectedELb0EE4linkEPNS_8sparse2d4cellIlEENS_3AVL10link_indexE, symObjAddr: 0x6A90, symBinAddr: 0x100007E2C, symSize: 0x7C }
  - { offsetInCU: 0xA467C, offset: 0xA467C, size: 0x8, addend: 0x0, symName: __ZNK2pm5graph11traits_baseINS0_10UndirectedELb0ELNS_8sparse2d16restriction_kindE1EE9head_nodeEv, symObjAddr: 0x6B0C, symBinAddr: 0x100007EA8, symSize: 0x14 }
  - { offsetInCU: 0xA46A2, offset: 0xA46A2, size: 0x8, addend: 0x0, symName: __ZNK2pm8sparse2d9it_traitsIlLb0ELb1EE4linkEPNS0_4cellIlEENS_3AVL10link_indexE, symObjAddr: 0x6B20, symBinAddr: 0x100007EBC, symSize: 0x64 }
  - { offsetInCU: 0xA46F3, offset: 0xA46F3, size: 0x8, addend: 0x0, symName: __ZNK2pm8sparse2d9it_traitsIlLb0ELb1EE14get_line_indexEv, symObjAddr: 0x6B84, symBinAddr: 0x100007F20, symSize: 0x18 }
  - { offsetInCU: 0xA4719, offset: 0xA4719, size: 0x8, addend: 0x0, symName: __ZNK2pm3AVL3PtrINS_8sparse2d4cellIlEEE4leafEv, symObjAddr: 0x6B9C, symBinAddr: 0x100007F38, symSize: 0x1C }
  - { offsetInCU: 0xA473F, offset: 0xA473F, size: 0x8, addend: 0x0, symName: __ZN2pm3AVL3PtrINS_8sparse2d4cellIlEEE16traverse_to_leafINS0_4treeINS2_6traitsINS_5graph11traits_baseINS9_10UndirectedELb0ELNS2_16restriction_kindE1EEELb1ELSC_1EEEEEEEvRKT_NS0_10link_indexE, symObjAddr: 0x6BB8, symBinAddr: 0x100007F54, symSize: 0x8C }
  - { offsetInCU: 0xA4799, offset: 0xA4799, size: 0x8, addend: 0x0, symName: __ZN2pm3AVL3PtrINS_8sparse2d4cellIlEEEC1EPS4_, symObjAddr: 0x6C44, symBinAddr: 0x100007FE0, symSize: 0x34 }
  - { offsetInCU: 0xA47D1, offset: 0xA47D1, size: 0x8, addend: 0x0, symName: __ZN2pm3AVL3PtrINS_8sparse2d4cellIlEEEC2EPS4_, symObjAddr: 0x6C78, symBinAddr: 0x100008014, symSize: 0x20 }
  - { offsetInCU: 0xA4809, offset: 0xA4809, size: 0x8, addend: 0x0, symName: __ZN2pm8sparse2d6traitsINS_5graph11traits_baseINS2_10UndirectedELb0ELNS0_16restriction_kindE1EEELb1ELS5_1EE17remove_node_crossEPNS0_4cellIlEENSt3__117integral_constantIbLb0EEE, symObjAddr: 0x6C98, symBinAddr: 0x100008034, symSize: 0x14 }
  - { offsetInCU: 0xA4845, offset: 0xA4845, size: 0x8, addend: 0x0, symName: __ZN2pm9allocator7destroyINS_8sparse2d4cellIlEEEEvPT_, symObjAddr: 0x6CAC, symBinAddr: 0x100008048, symSize: 0x30 }
  - { offsetInCU: 0xA4882, offset: 0xA4882, size: 0x8, addend: 0x0, symName: __ZN2pm8sparse2d5rulerINS_5graph10node_entryINS2_10UndirectedELNS0_16restriction_kindE1EEENS2_10edge_agentIS4_EEE10total_sizeEm, symObjAddr: 0x6CDC, symBinAddr: 0x100008078, symSize: 0x20 }
  - { offsetInCU: 0xA48A5, offset: 0xA48A5, size: 0x8, addend: 0x0, symName: __ZNSt3__16vectorIlNS_9allocatorIlEEED2B8ue170006Ev, symObjAddr: 0x6CFC, symBinAddr: 0x100008098, symSize: 0x44 }
  - { offsetInCU: 0xA48CF, offset: 0xA48CF, size: 0x8, addend: 0x0, symName: __ZNSt3__16vectorIlNS_9allocatorIlEEE16__destroy_vectorC1B8ue170006ERS3_, symObjAddr: 0x6D40, symBinAddr: 0x1000080DC, symSize: 0x34 }
  - { offsetInCU: 0xA4908, offset: 0xA4908, size: 0x8, addend: 0x0, symName: __ZNSt3__16vectorIlNS_9allocatorIlEEE16__destroy_vectorclB8ue170006Ev, symObjAddr: 0x6D74, symBinAddr: 0x100008110, symSize: 0x90 }
  - { offsetInCU: 0xA492E, offset: 0xA492E, size: 0x8, addend: 0x0, symName: __ZNSt3__16vectorIlNS_9allocatorIlEEE16__destroy_vectorC2B8ue170006ERS3_, symObjAddr: 0x6E04, symBinAddr: 0x1000081A0, symSize: 0x20 }
  - { offsetInCU: 0xA4967, offset: 0xA4967, size: 0x8, addend: 0x0, symName: __ZNKSt3__16vectorIlNS_9allocatorIlEEE17__annotate_deleteB8ue170006Ev, symObjAddr: 0x6E24, symBinAddr: 0x1000081C0, symSize: 0xB8 }
  - { offsetInCU: 0xA498D, offset: 0xA498D, size: 0x8, addend: 0x0, symName: __ZNSt3__116allocator_traitsINS_9allocatorIlEEE10deallocateB8ue170006ERS2_Plm, symObjAddr: 0x6EDC, symBinAddr: 0x100008278, symSize: 0x34 }
  - { offsetInCU: 0xA49CF, offset: 0xA49CF, size: 0x8, addend: 0x0, symName: __ZNSt3__19allocatorIlE10deallocateB8ue170006EPlm, symObjAddr: 0x6F10, symBinAddr: 0x1000082AC, symSize: 0x40 }
  - { offsetInCU: 0xA4A11, offset: 0xA4A11, size: 0x8, addend: 0x0, symName: __ZN2pm5graph5GraphINS0_10UndirectedEE12divorce_mapsD2Ev, symObjAddr: 0x6F50, symBinAddr: 0x1000082EC, symSize: 0x2C }
  - { offsetInCU: 0xA4A3E, offset: 0xA4A3E, size: 0x8, addend: 0x0, symName: __ZN2pm6MatrixINS_8RationalEED2Ev, symObjAddr: 0x6F7C, symBinAddr: 0x100008318, symSize: 0x2C }
  - { offsetInCU: 0xA4A6A, offset: 0xA4A6A, size: 0x8, addend: 0x0, symName: __ZN2pm6VectorINS_8RationalEED2Ev, symObjAddr: 0x6FA8, symBinAddr: 0x100008344, symSize: 0x2C }
  - { offsetInCU: 0xA4A96, offset: 0xA4A96, size: 0x8, addend: 0x0, symName: __ZN2pm12shared_arrayINS_8RationalEJNS_15AliasHandlerTagINS_20shared_alias_handlerEEEEED1Ev, symObjAddr: 0x6FD4, symBinAddr: 0x100008370, symSize: 0x2C }
  - { offsetInCU: 0xA4AC0, offset: 0xA4AC0, size: 0x8, addend: 0x0, symName: __ZN2pm12shared_arrayINS_8RationalEJNS_15AliasHandlerTagINS_20shared_alias_handlerEEEEED2Ev, symObjAddr: 0x7000, symBinAddr: 0x10000839C, symSize: 0x3C }
  - { offsetInCU: 0xA4AEA, offset: 0xA4AEA, size: 0x8, addend: 0x0, symName: __ZN2pm12shared_arrayINS_8RationalEJNS_15AliasHandlerTagINS_20shared_alias_handlerEEEEE5leaveEv, symObjAddr: 0x703C, symBinAddr: 0x1000083D8, symSize: 0x54 }
  - { offsetInCU: 0xA4B10, offset: 0xA4B10, size: 0x8, addend: 0x0, symName: __ZN2pm12shared_arrayINS_8RationalEJNS_15AliasHandlerTagINS_20shared_alias_handlerEEEEE3rep8destructEPS6_, symObjAddr: 0x7090, symBinAddr: 0x10000842C, symSize: 0x44 }
  - { offsetInCU: 0xA4B34, offset: 0xA4B34, size: 0x8, addend: 0x0, symName: __ZN2pm12shared_arrayINS_8RationalEJNS_15AliasHandlerTagINS_20shared_alias_handlerEEEEE3rep7destroyEPS1_S7_, symObjAddr: 0x70D4, symBinAddr: 0x100008470, symSize: 0x50 }
  - { offsetInCU: 0xA4B67, offset: 0xA4B67, size: 0x8, addend: 0x0, symName: __ZN2pm12shared_arrayINS_8RationalEJNS_15AliasHandlerTagINS_20shared_alias_handlerEEEEE3rep10deallocateEPS6_, symObjAddr: 0x7124, symBinAddr: 0x1000084C0, symSize: 0x68 }
  - { offsetInCU: 0xA4BA9, offset: 0xA4BA9, size: 0x8, addend: 0x0, symName: __ZN2pm12shared_arrayINS_8RationalEJNS_15AliasHandlerTagINS_20shared_alias_handlerEEEEE3rep10total_sizeEm, symObjAddr: 0x718C, symBinAddr: 0x100008528, symSize: 0x1C }
  - { offsetInCU: 0xA4BCD, offset: 0xA4BCD, size: 0x8, addend: 0x0, symName: __ZNSt3__112basic_stringIcNS_11char_traitsIcEENS_9allocatorIcEEEC2B8ue170006ILi0EEEPKc, symObjAddr: 0x71A8, symBinAddr: 0x100008544, symSize: 0x58 }
  - { offsetInCU: 0xA4C13, offset: 0xA4C13, size: 0x8, addend: 0x0, symName: __ZNSt3__117__compressed_pairINS_12basic_stringIcNS_11char_traitsIcEENS_9allocatorIcEEE5__repES5_EC1B8ue170006INS_18__default_init_tagESA_EEOT_OT0_, symObjAddr: 0x7200, symBinAddr: 0x10000859C, symSize: 0x3C }
  - { offsetInCU: 0xA4C6B, offset: 0xA4C6B, size: 0x8, addend: 0x0, symName: __ZNSt3__111char_traitsIcE6lengthB8ue170006EPKc, symObjAddr: 0x723C, symBinAddr: 0x1000085D8, symSize: 0x34 }
  - { offsetInCU: 0xA4C8E, offset: 0xA4C8E, size: 0x8, addend: 0x0, symName: __ZNSt3__117__compressed_pairINS_12basic_stringIcNS_11char_traitsIcEENS_9allocatorIcEEE5__repES5_EC2B8ue170006INS_18__default_init_tagESA_EEOT_OT0_, symObjAddr: 0x7270, symBinAddr: 0x10000860C, symSize: 0x3C }
  - { offsetInCU: 0xA4CE6, offset: 0xA4CE6, size: 0x8, addend: 0x0, symName: __ZNSt3__122__compressed_pair_elemINS_12basic_stringIcNS_11char_traitsIcEENS_9allocatorIcEEE5__repELi0ELb0EEC2B8ue170006ENS_18__default_init_tagE, symObjAddr: 0x72AC, symBinAddr: 0x100008648, symSize: 0x14 }
  - { offsetInCU: 0xA4D1A, offset: 0xA4D1A, size: 0x8, addend: 0x0, symName: __ZNSt3__122__compressed_pair_elemINS_9allocatorIcEELi1ELb1EEC2B8ue170006ENS_18__default_init_tagE, symObjAddr: 0x72C0, symBinAddr: 0x10000865C, symSize: 0x2C }
  - { offsetInCU: 0xA4D4E, offset: 0xA4D4E, size: 0x8, addend: 0x0, symName: __ZN8polymake9AnyStringC2ILm4EEERAT__Kc, symObjAddr: 0x7310, symBinAddr: 0x1000086AC, symSize: 0x28 }
  - { offsetInCU: 0xA4D90, offset: 0xA4D90, size: 0x8, addend: 0x0, symName: __ZN8polymake9AnyStringC2ILm19EEERAT__Kc, symObjAddr: 0x7338, symBinAddr: 0x1000086D4, symSize: 0x28 }
  - { offsetInCU: 0xA4DD2, offset: 0xA4DD2, size: 0x8, addend: 0x0, symName: __ZN2pm4perl13BigObjectTypeC1ERKN8polymake9AnyStringE, symObjAddr: 0x7360, symBinAddr: 0x1000086FC, symSize: 0x34 }
  - { offsetInCU: 0xA4E0A, offset: 0xA4E0A, size: 0x8, addend: 0x0, symName: __ZN2pm4perl9BigObjectC1IJELDn0EEERKNS0_13BigObjectTypeERKN8polymake9AnyStringEDpOT_, symObjAddr: 0x7394, symBinAddr: 0x100008730, symSize: 0x3C }
  - { offsetInCU: 0xA4E5B, offset: 0xA4E5B, size: 0x8, addend: 0x0, symName: __ZN2pm4perl13BigObjectTypeC1IJEEERKN8polymake9AnyStringENS3_5mlistIJDpT_EEE, symObjAddr: 0x73D0, symBinAddr: 0x10000876C, symSize: 0x34 }
  - { offsetInCU: 0xA4EA6, offset: 0xA4EA6, size: 0x8, addend: 0x0, symName: __ZN2pm4perl13BigObjectTypeC2IJEEERKN8polymake9AnyStringENS3_5mlistIJDpT_EEE, symObjAddr: 0x7404, symBinAddr: 0x1000087A0, symSize: 0x40 }
  - { offsetInCU: 0xA4EFC, offset: 0xA4EFC, size: 0x8, addend: 0x0, symName: __ZN2pm4perl13BigObjectType11TypeBuilder5buildIJEEEP2svRKN8polymake9AnyStringERKNS6_5mlistIJDpT_EEE, symObjAddr: 0x7444, symBinAddr: 0x1000087E0, symSize: 0xCC }
  - { offsetInCU: 0xA4F41, offset: 0xA4F41, size: 0x8, addend: 0x0, symName: __ZN2pm4perl7FunCall10count_argsIRKN8polymake9AnyStringEJRKNS3_5mlistIJEEEEEENSt3__19enable_ifIXaantsr16count_separatelyIT_EE5valuesr8mlist_orIDpNS3_16mlist_find_firstINS3_12mlist_concatIJDpNS3_14is_instance_ofIu11__remove_cvIu20__remove_reference_tIT0_EENS0_8UnrolledEEEDpNSG_ISJ_S7_EEEE4typeENS3_9mvalue_ofEXsr20msafely_eval_booleanINS3_10mlist_headISQ_E4typeESR_EE5valueEE4typeEEE5valueElE4typeEOSD_DpOSH_, symObjAddr: 0x7510, symBinAddr: 0x1000088AC, symSize: 0x2C }
  - { offsetInCU: 0xA4F8C, offset: 0xA4F8C, size: 0x8, addend: 0x0, symName: __ZN2pm4perl13BigObjectType11TypeBuilderCI1NS0_7FunCallEEbRKN8polymake9AnyStringEl, symObjAddr: 0x753C, symBinAddr: 0x1000088D8, symSize: 0x50 }
  - { offsetInCU: 0xA4FD3, offset: 0xA4FD3, size: 0x8, addend: 0x0, symName: __ZN2pm4perl7FunCall8push_argERKN8polymake9AnyStringE, symObjAddr: 0x758C, symBinAddr: 0x100008928, symSize: 0x2C }
  - { offsetInCU: 0xA5008, offset: 0xA5008, size: 0x8, addend: 0x0, symName: __ZN2pm4perl7FunCall10push_typesIJEEEvRKN8polymake5mlistIJDpT_EEE, symObjAddr: 0x75B8, symBinAddr: 0x100008954, symSize: 0x28 }
  - { offsetInCU: 0xA503E, offset: 0xA503E, size: 0x8, addend: 0x0, symName: __ZN2pm4perl13BigObjectType11TypeBuilderD1Ev, symObjAddr: 0x75E0, symBinAddr: 0x10000897C, symSize: 0x2C }
  - { offsetInCU: 0xA506A, offset: 0xA506A, size: 0x8, addend: 0x0, symName: __ZN2pm4perl7FunCall10count_argsIJEJEEElRKN8polymake5mlistIJDpT_EEEDpOT0_, symObjAddr: 0x760C, symBinAddr: 0x1000089A8, symSize: 0x24 }
  - { offsetInCU: 0xA5093, offset: 0xA5093, size: 0x8, addend: 0x0, symName: __ZN2pm4perl7FunCall10count_argsIJEEENSt3__19enable_ifIXntsr8mlist_orIDpN8polymake16mlist_find_firstINS5_12mlist_concatIJDpNS5_14is_instance_ofIu11__remove_cvIu20__remove_reference_tIT_EENS0_8UnrolledEEEDpNS8_ISB_NS5_5mlistEEEEE4typeENS5_9mvalue_ofEXsr20msafely_eval_booleanINS5_10mlist_headISJ_E4typeESK_EE5valueEE4typeEEE5valueElE4typeEDpOS9_, symObjAddr: 0x7630, symBinAddr: 0x1000089CC, symSize: 0x8 }
  - { offsetInCU: 0xA50AD, offset: 0xA50AD, size: 0x8, addend: 0x0, symName: __ZN2pm4perl13BigObjectType11TypeBuilderCI2NS0_7FunCallEEbRKN8polymake9AnyStringEl, symObjAddr: 0x7638, symBinAddr: 0x1000089D4, symSize: 0x50 }
  - { offsetInCU: 0xA50F4, offset: 0xA50F4, size: 0x8, addend: 0x0, symName: __ZN2pm4perl7FunCallC2EbRKN8polymake9AnyStringEl, symObjAddr: 0x7688, symBinAddr: 0x100008A24, symSize: 0x6C }
  - { offsetInCU: 0xA5148, offset: 0xA5148, size: 0x8, addend: 0x0, symName: __ZNSt16initializer_listIbEC1B8ue170006Ev, symObjAddr: 0x76F4, symBinAddr: 0x100008A90, symSize: 0x2C }
  - { offsetInCU: 0xA5172, offset: 0xA5172, size: 0x8, addend: 0x0, symName: __ZNSt16initializer_listIbEC2B8ue170006Ev, symObjAddr: 0x7720, symBinAddr: 0x100008ABC, symSize: 0x1C }
  - { offsetInCU: 0xA519C, offset: 0xA519C, size: 0x8, addend: 0x0, symName: __ZN2pm4perl13BigObjectType11TypeBuilderD2Ev, symObjAddr: 0x773C, symBinAddr: 0x100008AD8, symSize: 0x2C }
  - { offsetInCU: 0xA51C8, offset: 0xA51C8, size: 0x8, addend: 0x0, symName: __ZN2pm4perl9BigObjectC2IJELDn0EEERKNS0_13BigObjectTypeERKN8polymake9AnyStringEDpOT_, symObjAddr: 0x7768, symBinAddr: 0x100008B04, symSize: 0x5C }
  - { offsetInCU: 0xA5219, offset: 0xA5219, size: 0x8, addend: 0x0, symName: __ZN2pm4perl9BigObject15pass_propertiesEv, symObjAddr: 0x77C4, symBinAddr: 0x100008B60, symSize: 0x10 }
  - { offsetInCU: 0xA523F, offset: 0xA523F, size: 0x8, addend: 0x0, symName: __ZN2pm6MatrixINS_8RationalEEC2IivEESt16initializer_listIS4_IT_EE, symObjAddr: 0x77D4, symBinAddr: 0x100008B70, symSize: 0xAC }
  - { offsetInCU: 0xA5281, offset: 0xA5281, size: 0x8, addend: 0x0, symName: __ZNKSt16initializer_listIS_IiEE4sizeB8ue170006Ev, symObjAddr: 0x7880, symBinAddr: 0x100008C1C, symSize: 0x18 }
  - { offsetInCU: 0xA52A7, offset: 0xA52A7, size: 0x8, addend: 0x0, symName: __ZNKSt16initializer_listIS_IiEE5beginB8ue170006Ev, symObjAddr: 0x79A8, symBinAddr: 0x100008D44, symSize: 0x18 }
  - { offsetInCU: 0xA52D3, offset: 0xA52D3, size: 0x8, addend: 0x0, symName: __ZN2pm11Matrix_baseINS_8RationalEEC2IJPKSt16initializer_listIiEEEEllDpOT_, symObjAddr: 0x79C0, symBinAddr: 0x100008D5C, symSize: 0x64 }
  - { offsetInCU: 0xA5332, offset: 0xA5332, size: 0x8, addend: 0x0, symName: __ZN2pm13GenericMatrixINS_6MatrixINS_8RationalEEES2_EC2Ev, symObjAddr: 0x7A24, symBinAddr: 0x100008DC0, symSize: 0x14 }
  - { offsetInCU: 0xA535C, offset: 0xA535C, size: 0x8, addend: 0x0, symName: __ZNKSt16initializer_listIS_IiEE3endB8ue170006Ev, symObjAddr: 0x7A38, symBinAddr: 0x100008DD4, symSize: 0x20 }
  - { offsetInCU: 0xA5382, offset: 0xA5382, size: 0x8, addend: 0x0, symName: __ZNKSt16initializer_listIiE4sizeB8ue170006Ev, symObjAddr: 0x7A58, symBinAddr: 0x100008DF4, symSize: 0x18 }
  - { offsetInCU: 0xA53A8, offset: 0xA53A8, size: 0x8, addend: 0x0, symName: __ZN2pm11Matrix_baseINS_8RationalEE5dim_tC1Ell, symObjAddr: 0x7A70, symBinAddr: 0x100008E0C, symSize: 0x3C }
  - { offsetInCU: 0xA53EE, offset: 0xA53EE, size: 0x8, addend: 0x0, symName: __ZN2pm12shared_arrayINS_8RationalEJNS_13PrefixDataTagINS_11Matrix_baseIS1_E5dim_tEEENS_15AliasHandlerTagINS_20shared_alias_handlerEEEEEC1IJPKSt16initializer_listIiEEEERKS5_mDpOT_, symObjAddr: 0x7AAC, symBinAddr: 0x100008E48, symSize: 0x44 }
  - { offsetInCU: 0xA5450, offset: 0xA5450, size: 0x8, addend: 0x0, symName: __ZN2pm11Matrix_baseINS_8RationalEE5dim_tC2Ell, symObjAddr: 0x7AF0, symBinAddr: 0x100008E8C, symSize: 0xC4 }
  - { offsetInCU: 0xA5496, offset: 0xA5496, size: 0x8, addend: 0x0, symName: __ZN2pm12shared_arrayINS_8RationalEJNS_13PrefixDataTagINS_11Matrix_baseIS1_E5dim_tEEENS_15AliasHandlerTagINS_20shared_alias_handlerEEEEEC2IJPKSt16initializer_listIiEEEERKS5_mDpOT_, symObjAddr: 0x7BB4, symBinAddr: 0x100008F50, symSize: 0x80 }
  - { offsetInCU: 0xA54F8, offset: 0xA54F8, size: 0x8, addend: 0x0, symName: __ZN2pm20shared_alias_handlerC2Ev, symObjAddr: 0x7C34, symBinAddr: 0x100008FD0, symSize: 0x2C }
  - { offsetInCU: 0xA5524, offset: 0xA5524, size: 0x8, addend: 0x0, symName: __ZN2pm12shared_arrayINS_8RationalEJNS_13PrefixDataTagINS_11Matrix_baseIS1_E5dim_tEEENS_15AliasHandlerTagINS_20shared_alias_handlerEEEEE3rep9constructIJPKSt16initializer_listIiEEEEPSB_PSA_RKS5_mDpOT_, symObjAddr: 0x7C60, symBinAddr: 0x100008FFC, symSize: 0x64 }
  - { offsetInCU: 0xA558F, offset: 0xA558F, size: 0x8, addend: 0x0, symName: __ZN2pm20shared_alias_handler8AliasSetC1Ev, symObjAddr: 0x7CC4, symBinAddr: 0x100009060, symSize: 0x2C }
  - { offsetInCU: 0xA55B9, offset: 0xA55B9, size: 0x8, addend: 0x0, symName: __ZN2pm20shared_alias_handler8AliasSetC2Ev, symObjAddr: 0x7CF0, symBinAddr: 0x10000908C, symSize: 0x1C }
  - { offsetInCU: 0xA55E3, offset: 0xA55E3, size: 0x8, addend: 0x0, symName: __ZN2pm12shared_arrayINS_8RationalEJNS_13PrefixDataTagINS_11Matrix_baseIS1_E5dim_tEEENS_15AliasHandlerTagINS_20shared_alias_handlerEEEEE3rep8allocateEmRKS5_, symObjAddr: 0x7D0C, symBinAddr: 0x1000090A8, symSize: 0x44 }
  - { offsetInCU: 0xA5625, offset: 0xA5625, size: 0x8, addend: 0x0, symName: __ZN2pm12shared_arrayINS_8RationalEJNS_13PrefixDataTagINS_11Matrix_baseIS1_E5dim_tEEENS_15AliasHandlerTagINS_20shared_alias_handlerEEEEE3rep4initIJPKSt16initializer_listIiEEEENSt3__19enable_ifIXsr18mlist_and_nonemptyIDpNS_19looks_like_iteratorIT_EEEE5valueEvE4typeEPSA_PSB_PS1_SR_DpOSK_, symObjAddr: 0x7D50, symBinAddr: 0x1000090EC, symSize: 0x44 }
  - { offsetInCU: 0xA5690, offset: 0xA5690, size: 0x8, addend: 0x0, symName: __ZN2pm12shared_arrayINS_8RationalEJNS_13PrefixDataTagINS_11Matrix_baseIS1_E5dim_tEEENS_15AliasHandlerTagINS_20shared_alias_handlerEEEEE3rep8allocateEmRKNS_7nothingE, symObjAddr: 0x7D94, symBinAddr: 0x100009130, symSize: 0x60 }
  - { offsetInCU: 0xA56DD, offset: 0xA56DD, size: 0x8, addend: 0x0, symName: __ZN2pm12shared_arrayINS_8RationalEJNS_13PrefixDataTagINS_11Matrix_baseIS1_E5dim_tEEENS_15AliasHandlerTagINS_20shared_alias_handlerEEEEE3rep4initINSB_4copyEJPKSt16initializer_listIiEEEENSt3__19enable_ifIXaasr8is_amongIT_SD_NS_10BuildUnaryINS_10operations4moveEEEEE5valuesr18mlist_and_nonemptyIDpNS_19looks_like_iteratorIT0_EEEE5valueEvE4typeEPSA_PSB_PS1_SX_SK_DpOSQ_, symObjAddr: 0x7E18, symBinAddr: 0x1000091B4, symSize: 0xEC }
  - { offsetInCU: 0xA575C, offset: 0xA575C, size: 0x8, addend: 0x0, symName: __ZN2pm12shared_arrayINS_8RationalEJNS_13PrefixDataTagINS_11Matrix_baseIS1_E5dim_tEEENS_15AliasHandlerTagINS_20shared_alias_handlerEEEEE3rep21check_input_iteratorsIJEEEvN8polymake5mlistIJDpT_EEE, symObjAddr: 0x7F04, symBinAddr: 0x1000092A0, symSize: 0xC }
  - { offsetInCU: 0xA5787, offset: 0xA5787, size: 0x8, addend: 0x0, symName: __ZN2pm12shared_arrayINS_8RationalEJNS_13PrefixDataTagINS_11Matrix_baseIS1_E5dim_tEEENS_15AliasHandlerTagINS_20shared_alias_handlerEEEEE3rep18init_from_iteratorIPKSt16initializer_listIiENSB_4copyEEENSt3__19enable_ifIXaasr19looks_like_iteratorIT_EE5valuentsr21assess_iterator_valueISK_NS_14can_initializeES1_EE5valueEvE4typeEPSA_PSB_RPS1_SQ_OSK_T0_, symObjAddr: 0x7F10, symBinAddr: 0x1000092AC, symSize: 0xB0 }
  - { offsetInCU: 0xA580F, offset: 0xA580F, size: 0x8, addend: 0x0, symName: __ZN2pm12shared_arrayINS_8RationalEJNS_13PrefixDataTagINS_11Matrix_baseIS1_E5dim_tEEENS_15AliasHandlerTagINS_20shared_alias_handlerEEEEE3rep5go_onIPKSt16initializer_listIiEEEbPS1_SH_RKT_, symObjAddr: 0x7FC0, symBinAddr: 0x10000935C, symSize: 0x38 }
  - { offsetInCU: 0xA5860, offset: 0xA5860, size: 0x8, addend: 0x0, symName: __ZN2pm12shared_arrayINS_8RationalEJNS_13PrefixDataTagINS_11Matrix_baseIS1_E5dim_tEEENS_15AliasHandlerTagINS_20shared_alias_handlerEEEEE3rep18init_from_iteratorINS_14iterator_rangeINS_11ptr_wrapperIKiLb0EEEEENSB_4copyEEENSt3__19enable_ifIXsr21assess_iterator_valueIT_NS_14can_initializeES1_EE5valueEvE4typeEPSA_PSB_RPS1_SR_OSL_T0_, symObjAddr: 0x7FF8, symBinAddr: 0x100009394, symSize: 0x44 }
  - { offsetInCU: 0xA58DD, offset: 0xA58DD, size: 0x8, addend: 0x0, symName: __ZN2pm12shared_arrayINS_8RationalEJNS_13PrefixDataTagINS_11Matrix_baseIS1_E5dim_tEEENS_15AliasHandlerTagINS_20shared_alias_handlerEEEEE3rep5go_onIPKSt16initializer_listIiEEEbPS1_SH_RKT_NSt3__117integral_constantIbLb0EEE, symObjAddr: 0x8074, symBinAddr: 0x100009410, symSize: 0x2C }
  - { offsetInCU: 0xA5933, offset: 0xA5933, size: 0x8, addend: 0x0, symName: __ZN2pm12shared_arrayINS_8RationalEJNS_13PrefixDataTagINS_11Matrix_baseIS1_E5dim_tEEENS_15AliasHandlerTagINS_20shared_alias_handlerEEEEE3rep18init_from_sequenceINS_14iterator_rangeINS_11ptr_wrapperIKiLb0EEEEEEEvPSA_PSB_RPS1_SK_OT_NSt3__19enable_ifIXntsr3std24is_nothrow_constructibleIS1_DTdefL0p3_EEE5valueENSB_4copyEE4typeE, symObjAddr: 0x80A0, symBinAddr: 0x10000943C, symSize: 0x124 }
  - { offsetInCU: 0xA59AD, offset: 0xA59AD, size: 0x8, addend: 0x0, symName: __ZN2pm12shared_arrayINS_8RationalEJNS_13PrefixDataTagINS_11Matrix_baseIS1_E5dim_tEEENS_15AliasHandlerTagINS_20shared_alias_handlerEEEEE3rep5go_onINS_14iterator_rangeINS_11ptr_wrapperIKiLb0EEEEEEEbPS1_SI_RKT_, symObjAddr: 0x81C4, symBinAddr: 0x100009560, symSize: 0x38 }
  - { offsetInCU: 0xA59F8, offset: 0xA59F8, size: 0x8, addend: 0x0, symName: __ZNK2pm11ptr_wrapperIKiLb0EEdeEv, symObjAddr: 0x8234, symBinAddr: 0x1000095D0, symSize: 0x18 }
  - { offsetInCU: 0xA5A1E, offset: 0xA5A1E, size: 0x8, addend: 0x0, symName: __ZN2pm14iterator_rangeINS_11ptr_wrapperIKiLb0EEEEppEv, symObjAddr: 0x824C, symBinAddr: 0x1000095E8, symSize: 0x2C }
  - { offsetInCU: 0xA5A44, offset: 0xA5A44, size: 0x8, addend: 0x0, symName: __ZN2pm12shared_arrayINS_8RationalEJNS_13PrefixDataTagINS_11Matrix_baseIS1_E5dim_tEEENS_15AliasHandlerTagINS_20shared_alias_handlerEEEEE3rep5emptyEPSA_, symObjAddr: 0x8278, symBinAddr: 0x100009614, symSize: 0x48 }
  - { offsetInCU: 0xA5A68, offset: 0xA5A68, size: 0x8, addend: 0x0, symName: __ZN2pm12shared_arrayINS_8RationalEJNS_13PrefixDataTagINS_11Matrix_baseIS1_E5dim_tEEENS_15AliasHandlerTagINS_20shared_alias_handlerEEEEE3rep5go_onINS_14iterator_rangeINS_11ptr_wrapperIKiLb0EEEEEEEbPS1_SI_RKT_NSt3__117integral_constantIbLb1EEE, symObjAddr: 0x82C0, symBinAddr: 0x10000965C, symSize: 0xE8 }
  - { offsetInCU: 0xA5ABE, offset: 0xA5ABE, size: 0x8, addend: 0x0, symName: __ZNK2pm14iterator_rangeINS_11ptr_wrapperIKiLb0EEEE6at_endEv, symObjAddr: 0x83A8, symBinAddr: 0x100009744, symSize: 0x30 }
  - { offsetInCU: 0xA5AEA, offset: 0xA5AEA, size: 0x8, addend: 0x0, symName: __ZNK2pm11ptr_wrapperIKiLb0EEeqIS2_EENSt3__19enable_ifIXsr19is_derived_from_anyIT_NS0_IiLb0EEES2_EE5valueEbE4typeERKS6_, symObjAddr: 0x83D8, symBinAddr: 0x100009774, symSize: 0x38 }
  - { offsetInCU: 0xA5B37, offset: 0xA5B37, size: 0x8, addend: 0x0, symName: __ZN2pm8RationalC1Ei, symObjAddr: 0x8410, symBinAddr: 0x1000097AC, symSize: 0x38 }
  - { offsetInCU: 0xA5B70, offset: 0xA5B70, size: 0x8, addend: 0x0, symName: __ZN2pm8RationalC1Ell, symObjAddr: 0x8448, symBinAddr: 0x1000097E4, symSize: 0x3C }
  - { offsetInCU: 0xA5BB8, offset: 0xA5BB8, size: 0x8, addend: 0x0, symName: __ZN2pm8RationalC2Ell, symObjAddr: 0x8484, symBinAddr: 0x100009820, symSize: 0x4C }
  - { offsetInCU: 0xA5C00, offset: 0xA5C00, size: 0x8, addend: 0x0, symName: __ZN2pm8Rational8set_dataIRlS2_EEvOT_OT0_NS_7Integer11initializedE, symObjAddr: 0x84D0, symBinAddr: 0x10000986C, symSize: 0x168 }
  - { offsetInCU: 0xA5C64, offset: 0xA5C64, size: 0x8, addend: 0x0, symName: __Z8isfiniteB8ue170006IlLi0EEbT_, symObjAddr: 0x8638, symBinAddr: 0x1000099D4, symSize: 0x18 }
  - { offsetInCU: 0xA5C9F, offset: 0xA5C9F, size: 0x8, addend: 0x0, symName: __ZN2pm7Integer10set_finiteEP12__mpz_structlNS0_11initializedE, symObjAddr: 0x8650, symBinAddr: 0x1000099EC, symSize: 0x84 }
  - { offsetInCU: 0xA5CE1, offset: 0xA5CE1, size: 0x8, addend: 0x0, symName: __ZN2pm8Rational12canonicalizeEv, symObjAddr: 0x86D4, symBinAddr: 0x100009A70, symSize: 0x174 }
  - { offsetInCU: 0xA5D07, offset: 0xA5D07, size: 0x8, addend: 0x0, symName: __ZN2pm7Integer10set_finiteEP12__mpz_structiNS0_11initializedE, symObjAddr: 0x8848, symBinAddr: 0x100009BE4, symSize: 0x40 }
  - { offsetInCU: 0xA5D49, offset: 0xA5D49, size: 0x8, addend: 0x0, symName: __ZN2pm8Rational7set_infEP12__mpq_structllNS_7Integer11initializedE, symObjAddr: 0x8888, symBinAddr: 0x100009C24, symSize: 0x64 }
  - { offsetInCU: 0xA5DB7, offset: 0xA5DB7, size: 0x8, addend: 0x0, symName: __ZN2pm3GMP3NaND1Ev, symObjAddr: 0x8900, symBinAddr: 0x100009C9C, symSize: 0x2C }
  - { offsetInCU: 0xA5DE9, offset: 0xA5DE9, size: 0x8, addend: 0x0, symName: __ZN2pm3GMP10ZeroDivideD1Ev, symObjAddr: 0x892C, symBinAddr: 0x100009CC8, symSize: 0x2C }
  - { offsetInCU: 0xA5E15, offset: 0xA5E15, size: 0x8, addend: 0x0, symName: __ZN2pm3GMP10ZeroDivideD2Ev, symObjAddr: 0x8958, symBinAddr: 0x100009CF4, symSize: 0x2C }
  - { offsetInCU: 0xA5E41, offset: 0xA5E41, size: 0x8, addend: 0x0, symName: __ZN2pm3GMP5errorD2Ev, symObjAddr: 0x8984, symBinAddr: 0x100009D20, symSize: 0x2C }
  - { offsetInCU: 0xA5E6D, offset: 0xA5E6D, size: 0x8, addend: 0x0, symName: __ZN2pm7Integer7set_infEP12__mpz_structllNS0_11initializedE, symObjAddr: 0x89B0, symBinAddr: 0x100009D4C, symSize: 0xF8 }
  - { offsetInCU: 0xA5EBE, offset: 0xA5EBE, size: 0x8, addend: 0x0, symName: __ZN2pm7Integer7set_infEP12__mpz_structlNS0_11initializedE, symObjAddr: 0x8AA8, symBinAddr: 0x100009E44, symSize: 0x94 }
  - { offsetInCU: 0xA5F00, offset: 0xA5F00, size: 0x8, addend: 0x0, symName: __ZN2pm3GMP3NaND2Ev, symObjAddr: 0x8B3C, symBinAddr: 0x100009ED8, symSize: 0x2C }
  - { offsetInCU: 0xA5F2C, offset: 0xA5F2C, size: 0x8, addend: 0x0, symName: __ZN2pm11ptr_wrapperIKiLb0EEppEv, symObjAddr: 0x8B68, symBinAddr: 0x100009F04, symSize: 0x20 }
  - { offsetInCU: 0xA5F52, offset: 0xA5F52, size: 0x8, addend: 0x0, symName: __ZN2pm12shared_arrayINS_8RationalEJNS_13PrefixDataTagINS_11Matrix_baseIS1_E5dim_tEEENS_15AliasHandlerTagINS_20shared_alias_handlerEEEEE3rep9constructIJEEEPSB_PSA_mDpOT_, symObjAddr: 0x8B88, symBinAddr: 0x100009F24, symSize: 0xA0 }
  - { offsetInCU: 0xA5F99, offset: 0xA5F99, size: 0x8, addend: 0x0, symName: __ZN2pm11Matrix_baseINS_8RationalEE5dim_tC1Ev, symObjAddr: 0x8C28, symBinAddr: 0x100009FC4, symSize: 0x2C }
  - { offsetInCU: 0xA5FC3, offset: 0xA5FC3, size: 0x8, addend: 0x0, symName: __ZN2pm12shared_arrayINS_8RationalEJNS_13PrefixDataTagINS_11Matrix_baseIS1_E5dim_tEEENS_15AliasHandlerTagINS_20shared_alias_handlerEEEEE3rep4initEPSA_PSB_PS1_SE_NSB_4copyE, symObjAddr: 0x8C54, symBinAddr: 0x100009FF0, symSize: 0x40 }
  - { offsetInCU: 0xA601F, offset: 0xA601F, size: 0x8, addend: 0x0, symName: __ZN2pm11Matrix_baseINS_8RationalEE5dim_tC2Ev, symObjAddr: 0x8D30, symBinAddr: 0x10000A0CC, symSize: 0x1C }
  - { offsetInCU: 0xA6049, offset: 0xA6049, size: 0x8, addend: 0x0, symName: __ZN2pm12shared_arrayINS_8RationalEJNS_13PrefixDataTagINS_11Matrix_baseIS1_E5dim_tEEENS_15AliasHandlerTagINS_20shared_alias_handlerEEEEE3rep15init_from_valueIJEEEvPSA_PSB_RPS1_SF_NSt3__117integral_constantIbLb0EEEDpOT_, symObjAddr: 0x8D4C, symBinAddr: 0x10000A0E8, symSize: 0xBC }
  - { offsetInCU: 0xA60AA, offset: 0xA60AA, size: 0x8, addend: 0x0, symName: __ZN2pm12shared_arrayINS_8RationalEJNS_13PrefixDataTagINS_11Matrix_baseIS1_E5dim_tEEENS_15AliasHandlerTagINS_20shared_alias_handlerEEEEE3rep15init_from_valueIJEEEvPSA_PSB_RPS1_SF_NSt3__117integral_constantIbLb1EEEDpOT_, symObjAddr: 0x8E08, symBinAddr: 0x10000A1A4, symSize: 0x6C }
  - { offsetInCU: 0xA610B, offset: 0xA610B, size: 0x8, addend: 0x0, symName: __ZN2pm8RationalC1El, symObjAddr: 0x8EA4, symBinAddr: 0x10000A240, symSize: 0x38 }
  - { offsetInCU: 0xA6143, offset: 0xA6143, size: 0x8, addend: 0x0, symName: __ZN2pm21shared_object_secrets3repINS_11Matrix_baseINS_8RationalEE5dim_tEEC1Ev, symObjAddr: 0x8EDC, symBinAddr: 0x10000A278, symSize: 0x2C }
  - { offsetInCU: 0xA616D, offset: 0xA616D, size: 0x8, addend: 0x0, symName: __ZN2pm21shared_object_secrets3repINS_11Matrix_baseINS_8RationalEE5dim_tEEC2Ev, symObjAddr: 0x8F08, symBinAddr: 0x10000A2A4, symSize: 0x3C }
  - { offsetInCU: 0xA6197, offset: 0xA6197, size: 0x8, addend: 0x0, symName: __ZNSt3__14pairImN2pm11Matrix_baseINS1_8RationalEE5dim_tEEC1B8ue170006ILb1ELPv0EEEv, symObjAddr: 0x8F44, symBinAddr: 0x10000A2E0, symSize: 0x2C }
  - { offsetInCU: 0xA61D1, offset: 0xA61D1, size: 0x8, addend: 0x0, symName: __ZNSt3__14pairImN2pm11Matrix_baseINS1_8RationalEE5dim_tEEC2B8ue170006ILb1ELPv0EEEv, symObjAddr: 0x8F70, symBinAddr: 0x10000A30C, symSize: 0x34 }
  - { offsetInCU: 0xA620B, offset: 0xA620B, size: 0x8, addend: 0x0, symName: __ZNK2pm23construct_end_sensitiveINS_24initializer_list_adapterIiEELb0EE5beginEv, symObjAddr: 0x8FB8, symBinAddr: 0x10000A354, symSize: 0x5C }
  - { offsetInCU: 0xA6231, offset: 0xA6231, size: 0x8, addend: 0x0, symName: __ZNK2pm11plain_arrayINS_24initializer_list_adapterIiEEKiE5beginEv, symObjAddr: 0x9014, symBinAddr: 0x10000A3B0, symSize: 0x34 }
  - { offsetInCU: 0xA6257, offset: 0xA6257, size: 0x8, addend: 0x0, symName: __ZNK2pm11plain_arrayINS_24initializer_list_adapterIiEEKiE3endEv, symObjAddr: 0x9048, symBinAddr: 0x10000A3E4, symSize: 0x50 }
  - { offsetInCU: 0xA627D, offset: 0xA627D, size: 0x8, addend: 0x0, symName: __ZN2pm14iterator_rangeINS_11ptr_wrapperIKiLb0EEEEC1IS3_S3_vEERKT_RKT0_, symObjAddr: 0x9098, symBinAddr: 0x10000A434, symSize: 0x3C }
  - { offsetInCU: 0xA62D8, offset: 0xA62D8, size: 0x8, addend: 0x0, symName: __ZNK2pm24initializer_list_adapterIiE8get_dataEv, symObjAddr: 0x90D4, symBinAddr: 0x10000A470, symSize: 0x24 }
  - { offsetInCU: 0xA62FE, offset: 0xA62FE, size: 0x8, addend: 0x0, symName: __ZN2pm11ptr_wrapperIKiLb0EEC1EPS1_, symObjAddr: 0x90F8, symBinAddr: 0x10000A494, symSize: 0x34 }
  - { offsetInCU: 0xA6337, offset: 0xA6337, size: 0x8, addend: 0x0, symName: __ZNKSt16initializer_listIiE5beginB8ue170006Ev, symObjAddr: 0x912C, symBinAddr: 0x10000A4C8, symSize: 0x18 }
  - { offsetInCU: 0xA635D, offset: 0xA635D, size: 0x8, addend: 0x0, symName: __ZN2pm11ptr_wrapperIKiLb0EEC2EPS1_, symObjAddr: 0x9144, symBinAddr: 0x10000A4E0, symSize: 0x20 }
  - { offsetInCU: 0xA6396, offset: 0xA6396, size: 0x8, addend: 0x0, symName: __ZNK2pm24initializer_list_adapterIiE4sizeEv, symObjAddr: 0x9164, symBinAddr: 0x10000A500, symSize: 0x24 }
  - { offsetInCU: 0xA63BC, offset: 0xA63BC, size: 0x8, addend: 0x0, symName: __ZN2pm14iterator_rangeINS_11ptr_wrapperIKiLb0EEEEC2IS3_S3_vEERKT_RKT0_, symObjAddr: 0x9188, symBinAddr: 0x10000A524, symSize: 0x34 }
  - { offsetInCU: 0xA6417, offset: 0xA6417, size: 0x8, addend: 0x0, symName: __ZN8polymake9AnyStringC2ILm9EEERAT__Kc, symObjAddr: 0x91BC, symBinAddr: 0x10000A558, symSize: 0x28 }
  - { offsetInCU: 0xA6459, offset: 0xA6459, size: 0x8, addend: 0x0, symName: __ZN2pm13GenericMatrixINS_6MatrixINS_8RationalEEES2_E12block_matrixINS_17SameElementVectorIRKS2_EERS3_NSt3__117integral_constantIbLb0EEEvE4makeEOS9_SA_, symObjAddr: 0x91E4, symBinAddr: 0x10000A580, symSize: 0x9C }
  - { offsetInCU: 0xA648C, offset: 0xA648C, size: 0x8, addend: 0x0, symName: __ZN2pm11RepeatedColINS_17SameElementVectorIRKNS_8RationalEEEECI1NS_20repeated_line_matrixIS5_EEIS5_vEEOT_l, symObjAddr: 0x92A8, symBinAddr: 0x10000A644, symSize: 0x3C }
  - { offsetInCU: 0xA64CB, offset: 0xA64CB, size: 0x8, addend: 0x0, symName: __ZN2pm11BlockMatrixIN8polymake5mlistIJKNS_11RepeatedColINS_17SameElementVectorIRKNS_8RationalEEEEERKNS_6MatrixIS5_EEEEENSt3__117integral_constantIbLb0EEEEC1IJS9_RSC_EvEEDpOT_, symObjAddr: 0x92E4, symBinAddr: 0x10000A680, symSize: 0x3C }
  - { offsetInCU: 0xA6524, offset: 0xA6524, size: 0x8, addend: 0x0, symName: __ZN2pm11RepeatedColINS_17SameElementVectorIRKNS_8RationalEEEECI2NS_20repeated_line_matrixIS5_EEIS5_vEEOT_l, symObjAddr: 0x9334, symBinAddr: 0x10000A6D0, symSize: 0x44 }
  - { offsetInCU: 0xA6569, offset: 0xA6569, size: 0x8, addend: 0x0, symName: __ZN2pm20repeated_line_matrixINS_17SameElementVectorIRKNS_8RationalEEEEC2IS5_vEEOT_l, symObjAddr: 0x9378, symBinAddr: 0x10000A714, symSize: 0x3C }
  - { offsetInCU: 0xA65BB, offset: 0xA65BB, size: 0x8, addend: 0x0, symName: __ZN2pm13GenericMatrixINS_11RepeatedColINS_17SameElementVectorIRKNS_8RationalEEEEES3_EC2Ev, symObjAddr: 0x93B4, symBinAddr: 0x10000A750, symSize: 0x14 }
  - { offsetInCU: 0xA65E5, offset: 0xA65E5, size: 0x8, addend: 0x0, symName: __ZN2pm24repeated_value_containerINS_17SameElementVectorIRKNS_8RationalEEEEC1IS5_vEEOT_l, symObjAddr: 0x93C8, symBinAddr: 0x10000A764, symSize: 0x3C }
  - { offsetInCU: 0xA6637, offset: 0xA6637, size: 0x8, addend: 0x0, symName: __ZN2pm24repeated_value_containerINS_17SameElementVectorIRKNS_8RationalEEEEC2IS5_vEEOT_l, symObjAddr: 0x9404, symBinAddr: 0x10000A7A0, symSize: 0xB4 }
  - { offsetInCU: 0xA6689, offset: 0xA6689, size: 0x8, addend: 0x0, symName: __ZN2pm5aliasINS_17SameElementVectorIRKNS_8RationalEEELNS_10alias_kindE0EEC1EOS5_, symObjAddr: 0x94B8, symBinAddr: 0x10000A854, symSize: 0x34 }
  - { offsetInCU: 0xA66C1, offset: 0xA66C1, size: 0x8, addend: 0x0, symName: __ZN2pm5aliasINS_17SameElementVectorIRKNS_8RationalEEELNS_10alias_kindE0EEC2EOS5_, symObjAddr: 0x94EC, symBinAddr: 0x10000A888, symSize: 0x34 }
  - { offsetInCU: 0xA66F9, offset: 0xA66F9, size: 0x8, addend: 0x0, symName: __ZN2pm17SameElementVectorIRKNS_8RationalEEC1EOS4_, symObjAddr: 0x9520, symBinAddr: 0x10000A8BC, symSize: 0x34 }
  - { offsetInCU: 0xA672F, offset: 0xA672F, size: 0x8, addend: 0x0, symName: __ZN2pm17SameElementVectorIRKNS_8RationalEEC2EOS4_, symObjAddr: 0x9554, symBinAddr: 0x10000A8F0, symSize: 0x40 }
  - { offsetInCU: 0xA6765, offset: 0xA6765, size: 0x8, addend: 0x0, symName: __ZN2pm13GenericVectorINS_17SameElementVectorIRKNS_8RationalEEES2_EC2ERKS6_, symObjAddr: 0x9594, symBinAddr: 0x10000A930, symSize: 0x18 }
  - { offsetInCU: 0xA6799, offset: 0xA6799, size: 0x8, addend: 0x0, symName: __ZN2pm11BlockMatrixIN8polymake5mlistIJKNS_11RepeatedColINS_17SameElementVectorIRKNS_8RationalEEEEERKNS_6MatrixIS5_EEEEENSt3__117integral_constantIbLb0EEEEC2IJS9_RSC_EvEEDpOT_, symObjAddr: 0x95AC, symBinAddr: 0x10000A948, symSize: 0xD4 }
  - { offsetInCU: 0xA68C2, offset: 0xA68C2, size: 0x8, addend: 0x0, symName: __ZN2pm11alias_tupleIN8polymake5mlistIJKNS_11RepeatedColINS_17SameElementVectorIRKNS_8RationalEEEEERKNS_6MatrixIS5_EEEEEEC2INS_11BlockMatrixEJNSt3__117integral_constantIbLb0EEEEJS9_RSC_EEENS_16chain_arg_helperIT_JDpT0_EEEDpOT1_, symObjAddr: 0x9680, symBinAddr: 0x10000AA1C, symSize: 0x44 }
  - { offsetInCU: 0xA693D, offset: 0xA693D, size: 0x8, addend: 0x0, symName: __ZN2pm13GenericMatrixINS_11BlockMatrixIN8polymake5mlistIJKNS_11RepeatedColINS_17SameElementVectorIRKNS_8RationalEEEEERKNS_6MatrixIS6_EEEEENSt3__117integral_constantIbLb0EEEEES6_EC2Ev, symObjAddr: 0x96C4, symBinAddr: 0x10000AA60, symSize: 0x14 }
  - { offsetInCU: 0xA6967, offset: 0xA6967, size: 0x8, addend: 0x0, symName: __ZN2pm16chain_arg_helperINS_11BlockMatrixEJNSt3__117integral_constantIbLb0EEEEE5matchILi2EN8polymake5mlistIJNS_11RepeatedColINS_17SameElementVectorIRKNS_8RationalEEEEERNS_6MatrixISB_EEEEEEEDaT0_, symObjAddr: 0x9760, symBinAddr: 0x10000AAFC, symSize: 0xC }
  - { offsetInCU: 0xA699A, offset: 0xA699A, size: 0x8, addend: 0x0, symName: __ZN2pm11alias_tupleIN8polymake5mlistIJKNS_11RepeatedColINS_17SameElementVectorIRKNS_8RationalEEEEERKNS_6MatrixIS5_EEEEEEC2IJS9_RSC_EEENSt3__117integral_constantIbLb1EEEDpOT_, symObjAddr: 0x976C, symBinAddr: 0x10000AB08, symSize: 0x3C }
  - { offsetInCU: 0xA69FD, offset: 0xA69FD, size: 0x8, addend: 0x0, symName: __ZNSt3__15tupleIJN2pm5aliasIKNS1_11RepeatedColINS1_17SameElementVectorIRKNS1_8RationalEEEEELNS1_10alias_kindE0EEENS2_IRKNS1_6MatrixIS5_EELSB_2EEEEEC1B8ue170006IJS9_RSE_ELi0EEEDpOT_, symObjAddr: 0x97A8, symBinAddr: 0x10000AB44, symSize: 0x3C }
  - { offsetInCU: 0xA6A5C, offset: 0xA6A5C, size: 0x8, addend: 0x0, symName: __ZNSt3__15tupleIJN2pm5aliasIKNS1_11RepeatedColINS1_17SameElementVectorIRKNS1_8RationalEEEEELNS1_10alias_kindE0EEENS2_IRKNS1_6MatrixIS5_EELSB_2EEEEEC2B8ue170006IJS9_RSE_ELi0EEEDpOT_, symObjAddr: 0x97E4, symBinAddr: 0x10000AB80, symSize: 0x3C }
  - { offsetInCU: 0xA6ABB, offset: 0xA6ABB, size: 0x8, addend: 0x0, symName: __ZNSt3__112__tuple_implINS_15__tuple_indicesIJLm0ELm1EEEEJN2pm5aliasIKNS3_11RepeatedColINS3_17SameElementVectorIRKNS3_8RationalEEEEELNS3_10alias_kindE0EEENS4_IRKNS3_6MatrixIS7_EELSD_2EEEEEC1B8ue170006IJLm0ELm1EEJSE_SJ_EJEJEJSB_RSG_EEENS1_IJXspT_EEEENS_13__tuple_typesIJDpT0_EEENS1_IJXspT1_EEEENSO_IJDpT2_EEEDpOT3_, symObjAddr: 0x9820, symBinAddr: 0x10000ABBC, symSize: 0x3C }
  - { offsetInCU: 0xA6B6B, offset: 0xA6B6B, size: 0x8, addend: 0x0, symName: __ZNSt3__112__tuple_implINS_15__tuple_indicesIJLm0ELm1EEEEJN2pm5aliasIKNS3_11RepeatedColINS3_17SameElementVectorIRKNS3_8RationalEEEEELNS3_10alias_kindE0EEENS4_IRKNS3_6MatrixIS7_EELSD_2EEEEEC2B8ue170006IJLm0ELm1EEJSE_SJ_EJEJEJSB_RSG_EEENS1_IJXspT_EEEENS_13__tuple_typesIJDpT0_EEENS1_IJXspT1_EEEENSO_IJDpT2_EEEDpOT3_, symObjAddr: 0x985C, symBinAddr: 0x10000ABF8, symSize: 0x48 }
  - { offsetInCU: 0xA6C1B, offset: 0xA6C1B, size: 0x8, addend: 0x0, symName: __ZNSt3__112__tuple_leafILm0EN2pm5aliasIKNS1_11RepeatedColINS1_17SameElementVectorIRKNS1_8RationalEEEEELNS1_10alias_kindE0EEELb0EEC2B8ue170006IS9_vEEOT_, symObjAddr: 0x98A4, symBinAddr: 0x10000AC40, symSize: 0x34 }
  - { offsetInCU: 0xA6C5E, offset: 0xA6C5E, size: 0x8, addend: 0x0, symName: __ZNSt3__112__tuple_leafILm1EN2pm5aliasIRKNS1_6MatrixINS1_8RationalEEELNS1_10alias_kindE2EEELb0EEC2B8ue170006IRS5_vEEOT_, symObjAddr: 0x98D8, symBinAddr: 0x10000AC74, symSize: 0x34 }
  - { offsetInCU: 0xA6CA1, offset: 0xA6CA1, size: 0x8, addend: 0x0, symName: __ZN2pm5aliasIKNS_11RepeatedColINS_17SameElementVectorIRKNS_8RationalEEEEELNS_10alias_kindE0EEC1EOS7_, symObjAddr: 0x990C, symBinAddr: 0x10000ACA8, symSize: 0x34 }
  - { offsetInCU: 0xA6CD9, offset: 0xA6CD9, size: 0x8, addend: 0x0, symName: __ZN2pm5aliasIKNS_11RepeatedColINS_17SameElementVectorIRKNS_8RationalEEEEELNS_10alias_kindE0EEC2EOS7_, symObjAddr: 0x9940, symBinAddr: 0x10000ACDC, symSize: 0x34 }
  - { offsetInCU: 0xA6D11, offset: 0xA6D11, size: 0x8, addend: 0x0, symName: __ZN2pm11RepeatedColINS_17SameElementVectorIRKNS_8RationalEEEEC1EOS6_, symObjAddr: 0x9974, symBinAddr: 0x10000AD10, symSize: 0x34 }
  - { offsetInCU: 0xA6D46, offset: 0xA6D46, size: 0x8, addend: 0x0, symName: __ZN2pm11RepeatedColINS_17SameElementVectorIRKNS_8RationalEEEEC2EOS6_, symObjAddr: 0x99A8, symBinAddr: 0x10000AD44, symSize: 0x40 }
  - { offsetInCU: 0xA6D81, offset: 0xA6D81, size: 0x8, addend: 0x0, symName: __ZN2pm20repeated_line_matrixINS_17SameElementVectorIRKNS_8RationalEEEEC2EOS6_, symObjAddr: 0x99E8, symBinAddr: 0x10000AD84, symSize: 0x34 }
  - { offsetInCU: 0xA6DB7, offset: 0xA6DB7, size: 0x8, addend: 0x0, symName: __ZN2pm13GenericMatrixINS_11RepeatedColINS_17SameElementVectorIRKNS_8RationalEEEEES3_EC2ERKS8_, symObjAddr: 0x9A1C, symBinAddr: 0x10000ADB8, symSize: 0x18 }
  - { offsetInCU: 0xA6DF1, offset: 0xA6DF1, size: 0x8, addend: 0x0, symName: __ZN2pm24repeated_value_containerINS_17SameElementVectorIRKNS_8RationalEEEEC1EOS6_, symObjAddr: 0x9A34, symBinAddr: 0x10000ADD0, symSize: 0x34 }
  - { offsetInCU: 0xA6E27, offset: 0xA6E27, size: 0x8, addend: 0x0, symName: __ZN2pm24repeated_value_containerINS_17SameElementVectorIRKNS_8RationalEEEEC2EOS6_, symObjAddr: 0x9A68, symBinAddr: 0x10000AE04, symSize: 0x48 }
  - { offsetInCU: 0xA6E5D, offset: 0xA6E5D, size: 0x8, addend: 0x0, symName: __ZN2pm5aliasINS_17SameElementVectorIRKNS_8RationalEEELNS_10alias_kindE0EEC1EOS7_, symObjAddr: 0x9AB0, symBinAddr: 0x10000AE4C, symSize: 0x34 }
  - { offsetInCU: 0xA6E95, offset: 0xA6E95, size: 0x8, addend: 0x0, symName: __ZN2pm5aliasINS_17SameElementVectorIRKNS_8RationalEEELNS_10alias_kindE0EEC2EOS7_, symObjAddr: 0x9AE4, symBinAddr: 0x10000AE80, symSize: 0x34 }
  - { offsetInCU: 0xA6ECD, offset: 0xA6ECD, size: 0x8, addend: 0x0, symName: __ZN2pm5aliasIRKNS_6MatrixINS_8RationalEEELNS_10alias_kindE2EEC1ES5_, symObjAddr: 0x9B18, symBinAddr: 0x10000AEB4, symSize: 0x34 }
  - { offsetInCU: 0xA6F05, offset: 0xA6F05, size: 0x8, addend: 0x0, symName: __ZN2pm5aliasIRKNS_6MatrixINS_8RationalEEELNS_10alias_kindE2EEC2ES5_, symObjAddr: 0x9B4C, symBinAddr: 0x10000AEE8, symSize: 0x68 }
  - { offsetInCU: 0xA6F3D, offset: 0xA6F3D, size: 0x8, addend: 0x0, symName: __ZN2pm6MatrixINS_8RationalEEC1ERKS2_, symObjAddr: 0x9BB4, symBinAddr: 0x10000AF50, symSize: 0x34 }
  - { offsetInCU: 0xA6F72, offset: 0xA6F72, size: 0x8, addend: 0x0, symName: __ZN2pm6MatrixINS_8RationalEEC2ERKS2_, symObjAddr: 0x9BFC, symBinAddr: 0x10000AF98, symSize: 0x68 }
  - { offsetInCU: 0xA6FA7, offset: 0xA6FA7, size: 0x8, addend: 0x0, symName: __ZN2pm13GenericMatrixINS_6MatrixINS_8RationalEEES2_EC2ERKS4_, symObjAddr: 0x9C64, symBinAddr: 0x10000B000, symSize: 0x18 }
  - { offsetInCU: 0xA6FE6, offset: 0xA6FE6, size: 0x8, addend: 0x0, symName: __ZZN2pm11BlockMatrixIN8polymake5mlistIJKNS_11RepeatedColINS_17SameElementVectorIRKNS_8RationalEEEEERKNS_6MatrixIS5_EEEEENSt3__117integral_constantIbLb0EEEEC1IJS9_RSC_EvEEDpOT_ENKUlOT_E_clIRNS_5aliasISA_LNS_10alias_kindE0EEEEEvSQ_, symObjAddr: 0x9D04, symBinAddr: 0x10000B0A0, symSize: 0x110 }
  - { offsetInCU: 0xA7037, offset: 0xA7037, size: 0x8, addend: 0x0, symName: __ZZN2pm11BlockMatrixIN8polymake5mlistIJKNS_11RepeatedColINS_17SameElementVectorIRKNS_8RationalEEEEERKNS_6MatrixIS5_EEEEENSt3__117integral_constantIbLb0EEEEC1IJS9_RSC_EvEEDpOT_ENKUlOT_E_clIRNS_5aliasISE_LNS_10alias_kindE2EEEEEvSQ_, symObjAddr: 0x9E38, symBinAddr: 0x10000B1D4, symSize: 0x110 }
  - { offsetInCU: 0xA7088, offset: 0xA7088, size: 0x8, addend: 0x0, symName: __ZN2pm5aliasIKNS_11RepeatedColINS_17SameElementVectorIRKNS_8RationalEEEEELNS_10alias_kindE0EEptEv, symObjAddr: 0x9F70, symBinAddr: 0x10000B30C, symSize: 0x14 }
  - { offsetInCU: 0xA70AE, offset: 0xA70AE, size: 0x8, addend: 0x0, symName: __ZNK2pm18matrix_row_methodsINS_11RepeatedColINS_17SameElementVectorIRKNS_8RationalEEEEENSt3__120forward_iterator_tagEE4rowsEv, symObjAddr: 0x9F84, symBinAddr: 0x10000B320, symSize: 0x28 }
  - { offsetInCU: 0xA70D4, offset: 0xA70D4, size: 0x8, addend: 0x0, symName: __ZNK2pm30modified_container_elem_accessINS_20repeated_line_acrossINS_17SameElementVectorIRKNS_8RationalEEELb0EEEN8polymake5mlistIJNS_15ContainerRefTagIKS6_EENS_12OperationTagINS_10operations24construct_unary_with_argIS2_lvEEEENS_9HiddenTagINS_20repeated_line_matrixIS6_EEEEEEENSt3__118input_iterator_tagELb1ELb0EE4sizeEv, symObjAddr: 0x9FD4, symBinAddr: 0x10000B370, symSize: 0x2C }
  - { offsetInCU: 0xA70FA, offset: 0xA70FA, size: 0x8, addend: 0x0, symName: __ZNK2pm30modified_container_elem_accessINS_20repeated_line_acrossINS_17SameElementVectorIRKNS_8RationalEEELb0EEEN8polymake5mlistIJNS_15ContainerRefTagIKS6_EENS_12OperationTagINS_10operations24construct_unary_with_argIS2_lvEEEENS_9HiddenTagINS_20repeated_line_matrixIS6_EEEEEEENSt3__118input_iterator_tagELb1ELb0EE4_topEv, symObjAddr: 0xA03C, symBinAddr: 0x10000B3D8, symSize: 0x24 }
  - { offsetInCU: 0xA7120, offset: 0xA7120, size: 0x8, addend: 0x0, symName: __ZNK2pm20repeated_line_acrossINS_17SameElementVectorIRKNS_8RationalEEELb0EE13get_containerEv, symObjAddr: 0xA060, symBinAddr: 0x10000B3FC, symSize: 0x28 }
  - { offsetInCU: 0xA7146, offset: 0xA7146, size: 0x8, addend: 0x0, symName: __ZNK2pm24repeated_value_containerIRKNS_8RationalEE4sizeEv, symObjAddr: 0xA088, symBinAddr: 0x10000B424, symSize: 0x18 }
  - { offsetInCU: 0xA716C, offset: 0xA716C, size: 0x8, addend: 0x0, symName: __ZNK2pm19manip_container_topINS_20repeated_line_acrossINS_17SameElementVectorIRKNS_8RationalEEELb0EEEN8polymake5mlistIJNS_15ContainerRefTagIKS6_EENS_12OperationTagINS_10operations24construct_unary_with_argIS2_lvEEEENS_9HiddenTagINS_20repeated_line_matrixIS6_EEEEEEELb0EE9manip_topEv, symObjAddr: 0xA0A0, symBinAddr: 0x10000B43C, symSize: 0x14 }
  - { offsetInCU: 0xA7192, offset: 0xA7192, size: 0x8, addend: 0x0, symName: __ZNK2pm19manip_container_topINS_20repeated_line_acrossINS_17SameElementVectorIRKNS_8RationalEEELb0EEEN8polymake5mlistIJNS_15ContainerRefTagIKS6_EENS_12OperationTagINS_10operations24construct_unary_with_argIS2_lvEEEENS_9HiddenTagINS_20repeated_line_matrixIS6_EEEEEEELb1EE6hiddenEv, symObjAddr: 0xA0B4, symBinAddr: 0x10000B450, symSize: 0x24 }
  - { offsetInCU: 0xA71B8, offset: 0xA71B8, size: 0x8, addend: 0x0, symName: __ZNK2pm20repeated_line_matrixINS_17SameElementVectorIRKNS_8RationalEEEE8get_lineEv, symObjAddr: 0xA0D8, symBinAddr: 0x10000B474, symSize: 0x24 }
  - { offsetInCU: 0xA71DE, offset: 0xA71DE, size: 0x8, addend: 0x0, symName: __ZNK2pm29repeated_value_container_implINS_24repeated_value_containerINS_17SameElementVectorIRKNS_8RationalEEEEES6_N8polymake5mlistIJEEEE5frontEv, symObjAddr: 0xA0FC, symBinAddr: 0x10000B498, symSize: 0x2C }
  - { offsetInCU: 0xA7204, offset: 0xA7204, size: 0x8, addend: 0x0, symName: __ZNK2pm19manip_container_topINS_24repeated_value_containerINS_17SameElementVectorIRKNS_8RationalEEEEEN8polymake5mlistIJNS_16Container1RefTagINS_20same_value_containerIS6_EEEENS_16Container2RefTagINS_9SeriesRawIlLb1EEEEENS_12OperationTagINSt3__14pairINS_7nothingENS_10operations6apply2INS_12BuildUnaryItINSM_11dereferenceEEEvEEEEEEEEELb0EE9manip_topEv, symObjAddr: 0xA128, symBinAddr: 0x10000B4C4, symSize: 0x14 }
  - { offsetInCU: 0xA722A, offset: 0xA722A, size: 0x8, addend: 0x0, symName: __ZNK2pm29repeated_value_container_implINS_24repeated_value_containerINS_17SameElementVectorIRKNS_8RationalEEEEES6_N8polymake5mlistIJEEEE14get_container1Ev, symObjAddr: 0xA13C, symBinAddr: 0x10000B4D8, symSize: 0x2C }
  - { offsetInCU: 0xA7250, offset: 0xA7250, size: 0x8, addend: 0x0, symName: __ZNK2pm20same_value_containerINS_17SameElementVectorIRKNS_8RationalEEEE5frontEv, symObjAddr: 0xA168, symBinAddr: 0x10000B504, symSize: 0x24 }
  - { offsetInCU: 0xA7276, offset: 0xA7276, size: 0x8, addend: 0x0, symName: __ZNK2pm24repeated_value_containerINS_17SameElementVectorIRKNS_8RationalEEEE14get_elem_aliasEv, symObjAddr: 0xA1B0, symBinAddr: 0x10000B54C, symSize: 0x18 }
  - { offsetInCU: 0xA729C, offset: 0xA729C, size: 0x8, addend: 0x0, symName: __ZN2pm20same_value_containerINS_17SameElementVectorIRKNS_8RationalEEEE9cast_fromERKNS_5aliasIS5_LNS_10alias_kindE0EEE, symObjAddr: 0xA1C8, symBinAddr: 0x10000B564, symSize: 0x28 }
  - { offsetInCU: 0xA72BF, offset: 0xA72BF, size: 0x8, addend: 0x0, symName: __ZNKR2pm5aliasINS_17SameElementVectorIRKNS_8RationalEEELNS_10alias_kindE0EEdeEv, symObjAddr: 0xA230, symBinAddr: 0x10000B5CC, symSize: 0x14 }
  - { offsetInCU: 0xA72E5, offset: 0xA72E5, size: 0x8, addend: 0x0, symName: __ZNSt3__112__tuple_leafILm0EN2pm5aliasIKNS1_11RepeatedColINS1_17SameElementVectorIRKNS1_8RationalEEEEELNS1_10alias_kindE0EEELb0EE3getB8ue170006Ev, symObjAddr: 0xA244, symBinAddr: 0x10000B5E0, symSize: 0x14 }
  - { offsetInCU: 0xA730B, offset: 0xA730B, size: 0x8, addend: 0x0, symName: __ZN2pm5aliasIRKNS_6MatrixINS_8RationalEEELNS_10alias_kindE2EEptEv, symObjAddr: 0xA258, symBinAddr: 0x10000B5F4, symSize: 0x14 }
  - { offsetInCU: 0xA7331, offset: 0xA7331, size: 0x8, addend: 0x0, symName: __ZNSt3__112__tuple_leafILm1EN2pm5aliasIRKNS1_6MatrixINS1_8RationalEEELNS1_10alias_kindE2EEELb0EE3getB8ue170006Ev, symObjAddr: 0xA26C, symBinAddr: 0x10000B608, symSize: 0x14 }
  - { offsetInCU: 0xA7362, offset: 0xA7362, size: 0x8, addend: 0x0, symName: __ZZN2pm11BlockMatrixIN8polymake5mlistIJKNS_11RepeatedColINS_17SameElementVectorIRKNS_8RationalEEEEERKNS_6MatrixIS5_EEEEENSt3__117integral_constantIbLb0EEEEC1IJS9_RSC_EvEEDpOT_ENKUlOT_E0_clIRNS_5aliasISA_LNS_10alias_kindE0EEEEEvSQ_, symObjAddr: 0xA2F8, symBinAddr: 0x10000B694, symSize: 0x5C }
  - { offsetInCU: 0xA73A4, offset: 0xA73A4, size: 0x8, addend: 0x0, symName: __ZZN2pm11BlockMatrixIN8polymake5mlistIJKNS_11RepeatedColINS_17SameElementVectorIRKNS_8RationalEEEEERKNS_6MatrixIS5_EEEEENSt3__117integral_constantIbLb0EEEEC1IJS9_RSC_EvEEDpOT_ENKUlOT_E0_clIRNS_5aliasISE_LNS_10alias_kindE2EEEEEvSQ_, symObjAddr: 0xA354, symBinAddr: 0x10000B6F0, symSize: 0x5C }
  - { offsetInCU: 0xA73E6, offset: 0xA73E6, size: 0x8, addend: 0x0, symName: __ZNR2pm5aliasIKNS_11RepeatedColINS_17SameElementVectorIRKNS_8RationalEEEEELNS_10alias_kindE0EE10get_objectEv, symObjAddr: 0xA3B0, symBinAddr: 0x10000B74C, symSize: 0x14 }
  - { offsetInCU: 0xA740C, offset: 0xA740C, size: 0x8, addend: 0x0, symName: __ZN2pm11RepeatedColINS_17SameElementVectorIRKNS_8RationalEEEE12stretch_rowsEl, symObjAddr: 0xA3C4, symBinAddr: 0x10000B760, symSize: 0x34 }
  - { offsetInCU: 0xA7441, offset: 0xA7441, size: 0x8, addend: 0x0, symName: __ZN2pm24repeated_value_containerINS_17SameElementVectorIRKNS_8RationalEEEE14get_elem_aliasEv, symObjAddr: 0xA3F8, symBinAddr: 0x10000B794, symSize: 0x18 }
  - { offsetInCU: 0xA7467, offset: 0xA7467, size: 0x8, addend: 0x0, symName: __ZNR2pm5aliasINS_17SameElementVectorIRKNS_8RationalEEELNS_10alias_kindE0EE10get_objectEv, symObjAddr: 0xA410, symBinAddr: 0x10000B7AC, symSize: 0x14 }
  - { offsetInCU: 0xA748D, offset: 0xA748D, size: 0x8, addend: 0x0, symName: __ZN2pm24repeated_value_containerIRKNS_8RationalEE11stretch_dimEl, symObjAddr: 0xA424, symBinAddr: 0x10000B7C0, symSize: 0x20 }
  - { offsetInCU: 0xA74C2, offset: 0xA74C2, size: 0x8, addend: 0x0, symName: __ZN2pm5aliasIRKNS_6MatrixINS_8RationalEEELNS_10alias_kindE2EE10get_objectEv, symObjAddr: 0xA444, symBinAddr: 0x10000B7E0, symSize: 0x14 }
  - { offsetInCU: 0xA74E8, offset: 0xA74E8, size: 0x8, addend: 0x0, symName: __ZNK2pm18matrix_row_methodsINS_6MatrixINS_8RationalEEENSt3__120forward_iterator_tagEE12stretch_rowsEl, symObjAddr: 0xA458, symBinAddr: 0x10000B7F4, symSize: 0x6C }
  - { offsetInCU: 0xA7518, offset: 0xA7518, size: 0x8, addend: 0x0, symName: __ZN2pm4perl5Value3putINS_11BlockMatrixIN8polymake5mlistIJKNS_11RepeatedColINS_17SameElementVectorIRKNS_8RationalEEEEERKNS_6MatrixIS8_EEEEENSt3__117integral_constantIbLb0EEEEEJEEEvOT_DpOT0_, symObjAddr: 0xA4F0, symBinAddr: 0x10000B88C, symSize: 0x34 }
  - { offsetInCU: 0xA756A, offset: 0xA756A, size: 0x8, addend: 0x0, symName: __ZN2pm4perl5Value7put_valINS_11BlockMatrixIN8polymake5mlistIJKNS_11RepeatedColINS_17SameElementVectorIRKNS_8RationalEEEEERKNS_6MatrixIS8_EEEEENSt3__117integral_constantIbLb0EEEEEEENSJ_9enable_ifIXaasr17is_class_or_unionIu11__remove_cvIu20__remove_reference_tIT_EEEE5valuentoooooosr19is_derived_from_anyISQ_NS5_IJNS0_9UndefinedENS4_9AnyStringENSJ_12basic_stringIcNSJ_11char_traitsIcEENSJ_9allocatorIcEEEENS0_9BigObjectENS0_13BigObjectTypeENS0_13PropertyValueENS0_6ScalarENS0_10ArrayOwnerIS1_EENS0_4HashENS0_10ListReturnENS_5ArrayISZ_JEEEEEEEE5valuesr20represents_BigObjectISQ_EE5valuesr17is_optional_valueISQ_EE5valuentsr3std7is_sameINS_13object_traitsISQ_NS_22redirect_object_traitsISQ_E5modelEE9proxy_forEvEE5valueEPNS1_6AnchorEE4typeEOSO_i, symObjAddr: 0xA524, symBinAddr: 0x10000B8C0, symSize: 0x9C }
  - { offsetInCU: 0xA75B7, offset: 0xA75B7, size: 0x8, addend: 0x0, symName: __ZN2pm4perl5Value18store_canned_valueINS_11BlockMatrixIN8polymake5mlistIJKNS_11RepeatedColINS_17SameElementVectorIRKNS_8RationalEEEEERKNS_6MatrixIS8_EEEEENSt3__117integral_constantIbLb0EEEEEEEPNS1_6AnchorEOT_iSL_SL_SL_, symObjAddr: 0xA5E8, symBinAddr: 0x10000B984, symSize: 0x9C }
  - { offsetInCU: 0xA7625, offset: 0xA7625, size: 0x8, addend: 0x0, symName: __ZN2pm4perl5Value16store_canned_refINS_11BlockMatrixIN8polymake5mlistIJKNS_11RepeatedColINS_17SameElementVectorIRKNS_8RationalEEEEERKNS_6MatrixIS8_EEEEENSt3__117integral_constantIbLb0EEEEENS_13is_masqueradeISM_vEEEEPNS1_6AnchorERKT_iT0_SL_SL_, symObjAddr: 0xA684, symBinAddr: 0x10000BA20, symSize: 0x9C }
  - { offsetInCU: 0xA769C, offset: 0xA769C, size: 0x8, addend: 0x0, symName: __ZN2pm4perl5Value18store_canned_valueINS_11BlockMatrixIN8polymake5mlistIJKNS_11RepeatedColINS_17SameElementVectorIRKNS_8RationalEEEEERKNS_6MatrixIS8_EEEEENSt3__117integral_constantIbLb0EEEEESM_EEPNS1_6AnchorEOT0_P2svi, symObjAddr: 0xA720, symBinAddr: 0x10000BABC, symSize: 0x94 }
  - { offsetInCU: 0xA771F, offset: 0xA771F, size: 0x8, addend: 0x0, symName: __ZN2pm4perl10type_cacheINS_11BlockMatrixIN8polymake5mlistIJKNS_11RepeatedColINS_17SameElementVectorIRKNS_8RationalEEEEERKNS_6MatrixIS7_EEEEENSt3__117integral_constantIbLb0EEEEEE9get_descrEP2sv, symObjAddr: 0xA7B4, symBinAddr: 0x10000BB50, symSize: 0x34 }
  - { offsetInCU: 0xA7742, offset: 0xA7742, size: 0x8, addend: 0x0, symName: __ZN2pm4perl5Value18store_canned_valueINS_6MatrixINS_8RationalEEENS_11BlockMatrixIN8polymake5mlistIJKNS_11RepeatedColINS_17SameElementVectorIRKS4_EEEERKS5_EEENSt3__117integral_constantIbLb0EEEEEEEPNS1_6AnchorEOT0_P2svi, symObjAddr: 0xA7E8, symBinAddr: 0x10000BB84, symSize: 0x94 }
  - { offsetInCU: 0xA77C5, offset: 0xA77C5, size: 0x8, addend: 0x0, symName: __ZN2pm4perl10type_cacheINS_6MatrixINS_8RationalEEEE9get_descrEP2sv, symObjAddr: 0xA87C, symBinAddr: 0x10000BC18, symSize: 0x34 }
  - { offsetInCU: 0xA77E8, offset: 0xA77E8, size: 0x8, addend: 0x0, symName: __ZN2pm11BlockMatrixIN8polymake5mlistIJKNS_11RepeatedColINS_17SameElementVectorIRKNS_8RationalEEEEERKNS_6MatrixIS5_EEEEENSt3__117integral_constantIbLb0EEEEC1EOSJ_, symObjAddr: 0xA8B0, symBinAddr: 0x10000BC4C, symSize: 0x34 }
  - { offsetInCU: 0xA781D, offset: 0xA781D, size: 0x8, addend: 0x0, symName: __ZN2pm4perl5Value13store_as_perlINS_11BlockMatrixIN8polymake5mlistIJKNS_11RepeatedColINS_17SameElementVectorIRKNS_8RationalEEEEERKNS_6MatrixIS8_EEEEENSt3__117integral_constantIbLb0EEEEEEEvRKT_, symObjAddr: 0xA8E4, symBinAddr: 0x10000BC80, symSize: 0x2C }
  - { offsetInCU: 0xA785B, offset: 0xA785B, size: 0x8, addend: 0x0, symName: __ZN2pm11BlockMatrixIN8polymake5mlistIJKNS_11RepeatedColINS_17SameElementVectorIRKNS_8RationalEEEEERKNS_6MatrixIS5_EEEEENSt3__117integral_constantIbLb0EEEEC2EOSJ_, symObjAddr: 0xA910, symBinAddr: 0x10000BCAC, symSize: 0x68 }
  - { offsetInCU: 0xA7890, offset: 0xA7890, size: 0x8, addend: 0x0, symName: __ZN2pm11alias_tupleIN8polymake5mlistIJKNS_11RepeatedColINS_17SameElementVectorIRKNS_8RationalEEEEERKNS_6MatrixIS5_EEEEEEC2EOSG_, symObjAddr: 0xA978, symBinAddr: 0x10000BD14, symSize: 0x34 }
  - { offsetInCU: 0xA78C5, offset: 0xA78C5, size: 0x8, addend: 0x0, symName: __ZN2pm13GenericMatrixINS_11BlockMatrixIN8polymake5mlistIJKNS_11RepeatedColINS_17SameElementVectorIRKNS_8RationalEEEEERKNS_6MatrixIS6_EEEEENSt3__117integral_constantIbLb0EEEEES6_EC2ERKSL_, symObjAddr: 0xA9AC, symBinAddr: 0x10000BD48, symSize: 0x18 }
  - { offsetInCU: 0xA78F9, offset: 0xA78F9, size: 0x8, addend: 0x0, symName: __ZNSt3__15tupleIJN2pm5aliasIKNS1_11RepeatedColINS1_17SameElementVectorIRKNS1_8RationalEEEEELNS1_10alias_kindE0EEENS2_IRKNS1_6MatrixIS5_EELSB_2EEEEEC1EOSI_, symObjAddr: 0xA9C4, symBinAddr: 0x10000BD60, symSize: 0x34 }
  - { offsetInCU: 0xA792E, offset: 0xA792E, size: 0x8, addend: 0x0, symName: __ZNSt3__15tupleIJN2pm5aliasIKNS1_11RepeatedColINS1_17SameElementVectorIRKNS1_8RationalEEEEELNS1_10alias_kindE0EEENS2_IRKNS1_6MatrixIS5_EELSB_2EEEEEC2EOSI_, symObjAddr: 0xA9F8, symBinAddr: 0x10000BD94, symSize: 0x34 }
  - { offsetInCU: 0xA7963, offset: 0xA7963, size: 0x8, addend: 0x0, symName: __ZNSt3__112__tuple_implINS_15__tuple_indicesIJLm0ELm1EEEEJN2pm5aliasIKNS3_11RepeatedColINS3_17SameElementVectorIRKNS3_8RationalEEEEELNS3_10alias_kindE0EEENS4_IRKNS3_6MatrixIS7_EELSD_2EEEEEC1EOSK_, symObjAddr: 0xAA2C, symBinAddr: 0x10000BDC8, symSize: 0x34 }
  - { offsetInCU: 0xA7998, offset: 0xA7998, size: 0x8, addend: 0x0, symName: __ZNSt3__112__tuple_implINS_15__tuple_indicesIJLm0ELm1EEEEJN2pm5aliasIKNS3_11RepeatedColINS3_17SameElementVectorIRKNS3_8RationalEEEEELNS3_10alias_kindE0EEENS4_IRKNS3_6MatrixIS7_EELSD_2EEEEEC2EOSK_, symObjAddr: 0xAA60, symBinAddr: 0x10000BDFC, symSize: 0x48 }
  - { offsetInCU: 0xA79CD, offset: 0xA79CD, size: 0x8, addend: 0x0, symName: __ZNSt3__112__tuple_leafILm0EN2pm5aliasIKNS1_11RepeatedColINS1_17SameElementVectorIRKNS1_8RationalEEEEELNS1_10alias_kindE0EEELb0EEC2B8ue170006EOSD_, symObjAddr: 0xAAA8, symBinAddr: 0x10000BE44, symSize: 0x34 }
  - { offsetInCU: 0xA7A06, offset: 0xA7A06, size: 0x8, addend: 0x0, symName: __ZNSt3__112__tuple_leafILm1EN2pm5aliasIRKNS1_6MatrixINS1_8RationalEEELNS1_10alias_kindE2EEELb0EEC2B8ue170006EOSA_, symObjAddr: 0xAADC, symBinAddr: 0x10000BE78, symSize: 0x34 }
  - { offsetInCU: 0xA7A3F, offset: 0xA7A3F, size: 0x8, addend: 0x0, symName: __ZN2pm5aliasIKNS_11RepeatedColINS_17SameElementVectorIRKNS_8RationalEEEEELNS_10alias_kindE0EEC1EOSA_, symObjAddr: 0xAB10, symBinAddr: 0x10000BEAC, symSize: 0x34 }
  - { offsetInCU: 0xA7A77, offset: 0xA7A77, size: 0x8, addend: 0x0, symName: __ZN2pm5aliasIKNS_11RepeatedColINS_17SameElementVectorIRKNS_8RationalEEEEELNS_10alias_kindE0EEC2EOSA_, symObjAddr: 0xAB44, symBinAddr: 0x10000BEE0, symSize: 0x34 }
  - { offsetInCU: 0xA7AAF, offset: 0xA7AAF, size: 0x8, addend: 0x0, symName: __ZN2pm5aliasIRKNS_6MatrixINS_8RationalEEELNS_10alias_kindE2EEC1ERKS7_, symObjAddr: 0xAB78, symBinAddr: 0x10000BF14, symSize: 0x34 }
  - { offsetInCU: 0xA7AE3, offset: 0xA7AE3, size: 0x8, addend: 0x0, symName: __ZN2pm5aliasIRKNS_6MatrixINS_8RationalEEELNS_10alias_kindE2EEC2ERKS7_, symObjAddr: 0xABAC, symBinAddr: 0x10000BF48, symSize: 0x34 }
  - { offsetInCU: 0xA7B68, offset: 0xA7B68, size: 0x8, addend: 0x0, symName: __ZN2pm17GenericOutputImplINS_4perl11ValueOutputIN8polymake5mlistIJEEEEEElsINS_11BlockMatrixINS4_IJKNS_11RepeatedColINS_17SameElementVectorIRKNS_8RationalEEEEERKNS_6MatrixISC_EEEEENSt3__117integral_constantIbLb0EEEEEEERS6_RKT_, symObjAddr: 0xABE0, symBinAddr: 0x10000BF7C, symSize: 0x44 }
  - { offsetInCU: 0xA7BA6, offset: 0xA7BA6, size: 0x8, addend: 0x0, symName: __ZN2pm17GenericOutputImplINS_4perl11ValueOutputIN8polymake5mlistIJEEEEEE19dispatch_generic_ioINS_11BlockMatrixINS4_IJKNS_11RepeatedColINS_17SameElementVectorIRKNS_8RationalEEEEERKNS_6MatrixISC_EEEEENSt3__117integral_constantIbLb0EEEEEEEvRKT_SP_, symObjAddr: 0xAC24, symBinAddr: 0x10000BFC0, symSize: 0x2C }
  - { offsetInCU: 0xA7BEF, offset: 0xA7BEF, size: 0x8, addend: 0x0, symName: __ZN2pm13GenericOutputINS_4perl11ValueOutputIN8polymake5mlistIJEEEEEE3topEv, symObjAddr: 0xAC64, symBinAddr: 0x10000C000, symSize: 0x14 }
  - { offsetInCU: 0xA7C15, offset: 0xA7C15, size: 0x8, addend: 0x0, symName: __ZN2pm17GenericOutputImplINS_4perl11ValueOutputIN8polymake5mlistIJEEEEEE19dispatch_serializedINS_11BlockMatrixINS4_IJKNS_11RepeatedColINS_17SameElementVectorIRKNS_8RationalEEEEERKNS_6MatrixISC_EEEEENSt3__117integral_constantIbLb0EEEEEEEvRKT_SP_NSO_IbLb1EEE, symObjAddr: 0xAC78, symBinAddr: 0x10000C014, symSize: 0x2C }
  - { offsetInCU: 0xA7C69, offset: 0xA7C69, size: 0x8, addend: 0x0, symName: __ZN2pm17GenericOutputImplINS_4perl11ValueOutputIN8polymake5mlistIJEEEEEE14dispatch_storeINS_11BlockMatrixINS4_IJKNS_11RepeatedColINS_17SameElementVectorIRKNS_8RationalEEEEERKNS_6MatrixISC_EEEEENSt3__117integral_constantIbLb0EEEEEEEvRKT_NS_12is_containerE, symObjAddr: 0xACA4, symBinAddr: 0x10000C040, symSize: 0x2C }
  - { offsetInCU: 0xA7CB2, offset: 0xA7CB2, size: 0x8, addend: 0x0, symName: __ZN2pm17GenericOutputImplINS_4perl11ValueOutputIN8polymake5mlistIJEEEEEE18dispatch_containerINS_11BlockMatrixINS4_IJKNS_11RepeatedColINS_17SameElementVectorIRKNS_8RationalEEEEERKNS_6MatrixISC_EEEEENSt3__117integral_constantIbLb0EEEEEEEvRKT_NSO_IiLi2EEE, symObjAddr: 0xACD0, symBinAddr: 0x10000C06C, symSize: 0x3C }
  - { offsetInCU: 0xA7CFB, offset: 0xA7CFB, size: 0x8, addend: 0x0, symName: __ZN2pm17GenericOutputImplINS_4perl11ValueOutputIN8polymake5mlistIJEEEEEE14dispatch_storeINS_4RowsINS_11BlockMatrixINS4_IJKNS_11RepeatedColINS_17SameElementVectorIRKNS_8RationalEEEEERKNS_6MatrixISD_EEEEENSt3__117integral_constantIbLb0EEEEEEEEEvRKT_NS_12is_containerE, symObjAddr: 0xAD0C, symBinAddr: 0x10000C0A8, symSize: 0x2C }
  - { offsetInCU: 0xA7D44, offset: 0xA7D44, size: 0x8, addend: 0x0, symName: __ZN2pm17GenericOutputImplINS_4perl11ValueOutputIN8polymake5mlistIJEEEEEE18dispatch_containerINS_4RowsINS_11BlockMatrixINS4_IJKNS_11RepeatedColINS_17SameElementVectorIRKNS_8RationalEEEEERKNS_6MatrixISD_EEEEENSt3__117integral_constantIbLb0EEEEEEEEEvRKT_NSP_IiLi1EEE, symObjAddr: 0xAD60, symBinAddr: 0x10000C0FC, symSize: 0x2C }
  - { offsetInCU: 0xA7D8D, offset: 0xA7D8D, size: 0x8, addend: 0x0, symName: __ZN2pm17GenericOutputImplINS_4perl11ValueOutputIN8polymake5mlistIJEEEEEE15store_containerINS_4RowsINS_11BlockMatrixINS4_IJKNS_11RepeatedColINS_17SameElementVectorIRKNS_8RationalEEEEERKNS_6MatrixISD_EEEEENSt3__117integral_constantIbLb0EEEEEEEEEvRKT_SQ_, symObjAddr: 0xAD8C, symBinAddr: 0x10000C128, symSize: 0x2C }
  - { offsetInCU: 0xA7DD6, offset: 0xA7DD6, size: 0x8, addend: 0x0, symName: __ZN2pm17GenericOutputImplINS_4perl11ValueOutputIN8polymake5mlistIJEEEEEE10store_listINS_4RowsINS_11BlockMatrixINS4_IJKNS_11RepeatedColINS_17SameElementVectorIRKNS_8RationalEEEEERKNS_6MatrixISD_EEEEENSt3__117integral_constantIbLb0EEEEEEEEEvRKT_, symObjAddr: 0xADB8, symBinAddr: 0x10000C154, symSize: 0x2C }
  - { offsetInCU: 0xA7E14, offset: 0xA7E14, size: 0x8, addend: 0x0, symName: __ZN2pm17GenericOutputImplINS_4perl11ValueOutputIN8polymake5mlistIJEEEEEE13store_list_asINS_4RowsINS_11BlockMatrixINS4_IJKNS_11RepeatedColINS_17SameElementVectorIRKNS_8RationalEEEEERKNS_6MatrixISD_EEEEENSt3__117integral_constantIbLb0EEEEEEESS_EEvRKT0_, symObjAddr: 0xADE4, symBinAddr: 0x10000C180, symSize: 0x100 }
  - { offsetInCU: 0xA7E83, offset: 0xA7E83, size: 0x8, addend: 0x0, symName: __ZN2pm4perl11ValueOutputIN8polymake5mlistIJEEEE10begin_listINS_4RowsINS_11BlockMatrixINS3_IJKNS_11RepeatedColINS_17SameElementVectorIRKNS_8RationalEEEEERKNS_6MatrixISB_EEEEENSt3__117integral_constantIbLb0EEEEEEEEERNS0_15ListValueOutputIS4_Lb0EEEPKT_, symObjAddr: 0xAEE4, symBinAddr: 0x10000C280, symSize: 0x70 }
  - { offsetInCU: 0xA7ED0, offset: 0xA7ED0, size: 0x8, addend: 0x0, symName: __ZNK2pm24tuple_transform_iteratorIN8polymake5mlistIJNS_24unary_transform_iteratorINS_25binary_transform_iteratorINS_13iterator_pairINS_19same_value_iteratorIRKNS_8RationalEEENS_14iterator_rangeINS_17sequence_iteratorIlLb1EEEEENS2_IJNS_20FeaturesViaSecondTagINS2_IJNS_13end_sensitiveEEEEEEEEEEENSt3__14pairINS_7nothingENS_10operations6apply2INS_12BuildUnaryItINSO_11dereferenceEEEvEEEELb0EEENSO_24construct_unary_with_argINS_17SameElementVectorElvEEEENS4_INS5_INS6_IRKNS_11Matrix_baseIS7_EEEENS_15series_iteratorIlLb1EEENS2_IJEEEEENS_19matrix_line_factoryILb1EvEELb0EEEEEENS1_10operations12concat_tupleINS_11VectorChainEEEE6at_endEv, symObjAddr: 0xAF8C, symBinAddr: 0x10000C328, symSize: 0x34 }
  - { offsetInCU: 0xA7F05, offset: 0xA7F05, size: 0x8, addend: 0x0, symName: __ZN2pm4perl15ListValueOutputIN8polymake5mlistIJEEELb0EElsINS_11VectorChainINS3_IJKNS_17SameElementVectorIRKNS_8RationalEEEKNS_12IndexedSliceINS_10masqueradeINS_10ConcatRowsERKNS_11Matrix_baseIS9_EEEEKNS_6SeriesIlLb1EEES4_EEEEEEEEERS5_OT_, symObjAddr: 0xAFC0, symBinAddr: 0x10000C35C, symSize: 0x54 }
  - { offsetInCU: 0xA7F54, offset: 0xA7F54, size: 0x8, addend: 0x0, symName: __ZNK2pm24tuple_transform_iteratorIN8polymake5mlistIJNS_24unary_transform_iteratorINS_25binary_transform_iteratorINS_13iterator_pairINS_19same_value_iteratorIRKNS_8RationalEEENS_14iterator_rangeINS_17sequence_iteratorIlLb1EEEEENS2_IJNS_20FeaturesViaSecondTagINS2_IJNS_13end_sensitiveEEEEEEEEEEENSt3__14pairINS_7nothingENS_10operations6apply2INS_12BuildUnaryItINSO_11dereferenceEEEvEEEELb0EEENSO_24construct_unary_with_argINS_17SameElementVectorElvEEEENS4_INS5_INS6_IRKNS_11Matrix_baseIS7_EEEENS_15series_iteratorIlLb1EEENS2_IJEEEEENS_19matrix_line_factoryILb1EvEELb0EEEEEENS1_10operations12concat_tupleINS_11VectorChainEEEEdeEv, symObjAddr: 0xB014, symBinAddr: 0x10000C3B0, symSize: 0x44 }
  - { offsetInCU: 0xA7F7A, offset: 0xA7F7A, size: 0x8, addend: 0x0, symName: __ZN2pm11VectorChainIN8polymake5mlistIJKNS_17SameElementVectorIRKNS_8RationalEEEKNS_12IndexedSliceINS_10masqueradeINS_10ConcatRowsERKNS_11Matrix_baseIS4_EEEEKNS_6SeriesIlLb1EEENS2_IJEEEEEEEEED1Ev, symObjAddr: 0xB058, symBinAddr: 0x10000C3F4, symSize: 0x2C }
  - { offsetInCU: 0xA7FA7, offset: 0xA7FA7, size: 0x8, addend: 0x0, symName: __ZN2pm24tuple_transform_iteratorIN8polymake5mlistIJNS_24unary_transform_iteratorINS_25binary_transform_iteratorINS_13iterator_pairINS_19same_value_iteratorIRKNS_8RationalEEENS_14iterator_rangeINS_17sequence_iteratorIlLb1EEEEENS2_IJNS_20FeaturesViaSecondTagINS2_IJNS_13end_sensitiveEEEEEEEEEEENSt3__14pairINS_7nothingENS_10operations6apply2INS_12BuildUnaryItINSO_11dereferenceEEEvEEEELb0EEENSO_24construct_unary_with_argINS_17SameElementVectorElvEEEENS4_INS5_INS6_IRKNS_11Matrix_baseIS7_EEEENS_15series_iteratorIlLb1EEENS2_IJEEEEENS_19matrix_line_factoryILb1EvEELb0EEEEEENS1_10operations12concat_tupleINS_11VectorChainEEEEppEv, symObjAddr: 0xB084, symBinAddr: 0x10000C420, symSize: 0x30 }
  - { offsetInCU: 0xA800F, offset: 0xA800F, size: 0x8, addend: 0x0, symName: __ZN2pm24tuple_transform_iteratorIN8polymake5mlistIJNS_24unary_transform_iteratorINS_25binary_transform_iteratorINS_13iterator_pairINS_19same_value_iteratorIRKNS_8RationalEEENS_14iterator_rangeINS_17sequence_iteratorIlLb1EEEEENS2_IJNS_20FeaturesViaSecondTagINS2_IJNS_13end_sensitiveEEEEEEEEEEENSt3__14pairINS_7nothingENS_10operations6apply2INS_12BuildUnaryItINSO_11dereferenceEEEvEEEELb0EEENSO_24construct_unary_with_argINS_17SameElementVectorElvEEEENS4_INS5_INS6_IRKNS_11Matrix_baseIS7_EEEENS_15series_iteratorIlLb1EEENS2_IJEEEEENS_19matrix_line_factoryILb1EvEELb0EEEEEENS1_10operations12concat_tupleINS_11VectorChainEEEED1Ev, symObjAddr: 0xB0B4, symBinAddr: 0x10000C450, symSize: 0x2C }
  - { offsetInCU: 0xA803C, offset: 0xA803C, size: 0x8, addend: 0x0, symName: __ZNK2pm4perl15ListValueOutputIN8polymake5mlistIJEEELb0EE6finishEv, symObjAddr: 0xB0E0, symBinAddr: 0x10000C47C, symSize: 0x10 }
  - { offsetInCU: 0xA8062, offset: 0xA8062, size: 0x8, addend: 0x0, symName: __ZNK2pm29modified_container_tuple_implINS_4RowsINS_11BlockMatrixIN8polymake5mlistIJKNS_11RepeatedColINS_17SameElementVectorIRKNS_8RationalEEEEERKNS_6MatrixIS7_EEEEENSt3__117integral_constantIbLb0EEEEEEENS4_IJNS_15ContainerRefTagINS4_IJNS_10masqueradeIS1_SC_EENSO_IS1_SG_EEEEEEENS_12OperationTagINS3_10operations12concat_tupleINS_11VectorChainEEEEENS_9HiddenTagINSJ_IbLb1EEEEEEEENSI_20forward_iterator_tagEE4sizeEv, symObjAddr: 0xB0F0, symBinAddr: 0x10000C48C, symSize: 0x2C }
  - { offsetInCU: 0xA8088, offset: 0xA8088, size: 0x8, addend: 0x0, symName: __ZNK2pm19manip_container_topINS_4RowsINS_11BlockMatrixIN8polymake5mlistIJKNS_11RepeatedColINS_17SameElementVectorIRKNS_8RationalEEEEERKNS_6MatrixIS7_EEEEENSt3__117integral_constantIbLb0EEEEEEENS4_IJNS_15ContainerRefTagINS4_IJNS_10masqueradeIS1_SC_EENSO_IS1_SG_EEEEEEENS_12OperationTagINS3_10operations12concat_tupleINS_11VectorChainEEEEENS_9HiddenTagINSJ_IbLb1EEEEEEEELb0EE9manip_topEv, symObjAddr: 0xB11C, symBinAddr: 0x10000C4B8, symSize: 0x14 }
  - { offsetInCU: 0xA80BA, offset: 0xA80BA, size: 0x8, addend: 0x0, symName: __ZNK2pm4RowsINS_11BlockMatrixIN8polymake5mlistIJKNS_11RepeatedColINS_17SameElementVectorIRKNS_8RationalEEEEERKNS_6MatrixIS6_EEEEENSt3__117integral_constantIbLb0EEEEEE13get_containerILm0EEEDcNSI_ImXT_EEE, symObjAddr: 0xB130, symBinAddr: 0x10000C4CC, symSize: 0x2C }
  - { offsetInCU: 0xA80F5, offset: 0xA80F5, size: 0x8, addend: 0x0, symName: __ZNK2pm19manip_container_topINS_4RowsINS_11BlockMatrixIN8polymake5mlistIJKNS_11RepeatedColINS_17SameElementVectorIRKNS_8RationalEEEEERKNS_6MatrixIS7_EEEEENSt3__117integral_constantIbLb0EEEEEEENS4_IJNS_15ContainerRefTagINS4_IJNS_10masqueradeIS1_SC_EENSO_IS1_SG_EEEEEEENS_12OperationTagINS3_10operations12concat_tupleINS_11VectorChainEEEEENS_9HiddenTagINSJ_IbLb1EEEEEEEELb1EE6hiddenEv, symObjAddr: 0xB15C, symBinAddr: 0x10000C4F8, symSize: 0x24 }
  - { offsetInCU: 0xA8121, offset: 0xA8121, size: 0x8, addend: 0x0, symName: __ZNK2pm11alias_tupleIN8polymake5mlistIJKNS_11RepeatedColINS_17SameElementVectorIRKNS_8RationalEEEEERKNS_6MatrixIS5_EEEEEE13get_containerILm0EEEDcNSt3__117integral_constantImXT_EEE, symObjAddr: 0xB180, symBinAddr: 0x10000C51C, symSize: 0x28 }
  - { offsetInCU: 0xA815C, offset: 0xA815C, size: 0x8, addend: 0x0, symName: __ZNKR2pm11alias_tupleIN8polymake5mlistIJKNS_11RepeatedColINS_17SameElementVectorIRKNS_8RationalEEEEERKNS_6MatrixIS5_EEEEEE9get_aliasILm0EEEDcNSt3__117integral_constantImXT_EEE, symObjAddr: 0xB1A8, symBinAddr: 0x10000C544, symSize: 0x24 }
  - { offsetInCU: 0xA8197, offset: 0xA8197, size: 0x8, addend: 0x0, symName: __ZNKR2pm5aliasIKNS_11RepeatedColINS_17SameElementVectorIRKNS_8RationalEEEEELNS_10alias_kindE0EEdeEv, symObjAddr: 0xB1CC, symBinAddr: 0x10000C568, symSize: 0x14 }
  - { offsetInCU: 0xA81BD, offset: 0xA81BD, size: 0x8, addend: 0x0, symName: __ZNKSt3__112__tuple_leafILm0EN2pm5aliasIKNS1_11RepeatedColINS1_17SameElementVectorIRKNS1_8RationalEEEEELNS1_10alias_kindE0EEELb0EE3getB8ue170006Ev, symObjAddr: 0xB204, symBinAddr: 0x10000C5A0, symSize: 0x14 }
  - { offsetInCU: 0xA81E3, offset: 0xA81E3, size: 0x8, addend: 0x0, symName: __ZNK2pm29modified_container_tuple_implINS_23manip_feature_collectorINS_4RowsINS_11BlockMatrixIN8polymake5mlistIJKNS_11RepeatedColINS_17SameElementVectorIRKNS_8RationalEEEEERKNS_6MatrixIS8_EEEEENSt3__117integral_constantIbLb0EEEEEEENS5_IJNS_13end_sensitiveEEEEEENS5_IJNS_15ContainerRefTagINS5_IJNS_10masqueradeIS2_SD_EENSS_IS2_SH_EEEEEEENS_12OperationTagINS4_10operations12concat_tupleINS_11VectorChainEEEEENS_9HiddenTagINSK_IbLb1EEEEEEEENSJ_20forward_iterator_tagEE5beginEv, symObjAddr: 0xB22C, symBinAddr: 0x10000C5C8, symSize: 0x3C }
  - { offsetInCU: 0xA8209, offset: 0xA8209, size: 0x8, addend: 0x0, symName: __ZNK2pm29modified_container_tuple_implINS_23manip_feature_collectorINS_4RowsINS_11BlockMatrixIN8polymake5mlistIJKNS_11RepeatedColINS_17SameElementVectorIRKNS_8RationalEEEEERKNS_6MatrixIS8_EEEEENSt3__117integral_constantIbLb0EEEEEEENS5_IJNS_13end_sensitiveEEEEEENS5_IJNS_15ContainerRefTagINS5_IJNS_10masqueradeIS2_SD_EENSS_IS2_SH_EEEEEEENS_12OperationTagINS4_10operations12concat_tupleINS_11VectorChainEEEEENS_9HiddenTagINSK_IbLb1EEEEEEEENSJ_20forward_iterator_tagEE10make_beginIJLm0ELm1EEJNS_19ExpectedFeaturesTagISP_EENS1A_INS5_IJEEEEEEEENS_24tuple_transform_iteratorINS5_IJNS_24unary_transform_iteratorINS_25binary_transform_iteratorINS_13iterator_pairINS_19same_value_iteratorISA_EENS_14iterator_rangeINS_17sequence_iteratorIlLb1EEEEENS5_IJNS_20FeaturesViaSecondTagISP_EEEEEEENSJ_4pairINS_7nothingENS_10operations6apply2INS_12BuildUnaryItINS1U_11dereferenceEEEvEEEELb0EEENS1U_24construct_unary_with_argIS7_lvEEEENS1G_INS1H_INS1I_IRKNS_11Matrix_baseIS8_EEEENS_15series_iteratorIlLb1EEES1C_EENS_19matrix_line_factoryILb1EvEELb0EEEEEES11_EENSJ_16integer_sequenceImJXspT_EEEENS5_IJDpT0_EEE, symObjAddr: 0xB268, symBinAddr: 0x10000C604, symSize: 0xBC }
  - { offsetInCU: 0xA8267, offset: 0xA8267, size: 0x8, addend: 0x0, symName: __ZN2pm33modified_container_tuple_typebaseINS_23manip_feature_collectorINS_4RowsINS_11BlockMatrixIN8polymake5mlistIJKNS_11RepeatedColINS_17SameElementVectorIRKNS_8RationalEEEEERKNS_6MatrixIS8_EEEEENSt3__117integral_constantIbLb0EEEEEEENS5_IJNS_13end_sensitiveEEEEEENS5_IJNS_15ContainerRefTagINS5_IJNS_10masqueradeIS2_SD_EENSS_IS2_SH_EEEEEEENS_12OperationTagINS4_10operations12concat_tupleINS_11VectorChainEEEEENS_9HiddenTagINSK_IbLb1EEEEEEEEE13tuple_indexesEv, symObjAddr: 0xB324, symBinAddr: 0x10000C6C0, symSize: 0x4 }
  - { offsetInCU: 0xA827B, offset: 0xA827B, size: 0x8, addend: 0x0, symName: __ZNK2pm19manip_container_topINS_23manip_feature_collectorINS_4RowsINS_11BlockMatrixIN8polymake5mlistIJKNS_11RepeatedColINS_17SameElementVectorIRKNS_8RationalEEEEERKNS_6MatrixIS8_EEEEENSt3__117integral_constantIbLb0EEEEEEENS5_IJNS_13end_sensitiveEEEEEENS5_IJNS_15ContainerRefTagINS5_IJNS_10masqueradeIS2_SD_EENSS_IS2_SH_EEEEEEENS_12OperationTagINS4_10operations12concat_tupleINS_11VectorChainEEEEENS_9HiddenTagINSK_IbLb1EEEEEEEELb0EE9manip_topEv, symObjAddr: 0xB328, symBinAddr: 0x10000C6C4, symSize: 0x14 }
  - { offsetInCU: 0xA82A1, offset: 0xA82A1, size: 0x8, addend: 0x0, symName: __ZN2pm4RowsINS_11BlockMatrixIN8polymake5mlistIJKNS_11RepeatedColINS_17SameElementVectorIRKNS_8RationalEEEEERKNS_6MatrixIS6_EEEEENSt3__117integral_constantIbLb0EEEEEE13get_operationEv, symObjAddr: 0xB33C, symBinAddr: 0x10000C6D8, symSize: 0x4 }
  - { offsetInCU: 0xA82B5, offset: 0xA82B5, size: 0x8, addend: 0x0, symName: __ZNK2pm23modified_container_implINS_23manip_feature_collectorINS_4RowsINS_11RepeatedColINS_17SameElementVectorIRKNS_8RationalEEEEEEEN8polymake5mlistIJNS_13end_sensitiveEEEEEENSC_IJNS_15ContainerRefTagIKS8_EENS_12OperationTagINS_10operations24construct_unary_with_argIS4_lvEEEENS_9HiddenTagINS_20repeated_line_matrixIS8_EEEEEEELb0EE5beginEv, symObjAddr: 0xB354, symBinAddr: 0x10000C6F0, symSize: 0x68 }
  - { offsetInCU: 0xA82DB, offset: 0xA82DB, size: 0x8, addend: 0x0, symName: __ZNK2pm4RowsINS_11BlockMatrixIN8polymake5mlistIJKNS_11RepeatedColINS_17SameElementVectorIRKNS_8RationalEEEEERKNS_6MatrixIS6_EEEEENSt3__117integral_constantIbLb0EEEEEE13get_containerILm1EEEDcNSI_ImXT_EEE, symObjAddr: 0xB3D0, symBinAddr: 0x10000C76C, symSize: 0x2C }
  - { offsetInCU: 0xA8316, offset: 0xA8316, size: 0x8, addend: 0x0, symName: __ZNK2pm28modified_container_pair_implINS_4RowsINS_6MatrixINS_8RationalEEEEEN8polymake5mlistIJNS_13Container1TagINS_20same_value_containerIRNS_11Matrix_baseIS3_EEEEEENS_13Container2TagINS_6SeriesIlLb0EEEEENS_12OperationTagINS_19matrix_line_factoryILb1EvEEEENS_9HiddenTagINSt3__117integral_constantIbLb1EEEEEEEELb0EE5beginEv, symObjAddr: 0xB3FC, symBinAddr: 0x10000C798, symSize: 0x110 }
  - { offsetInCU: 0xA8353, offset: 0xA8353, size: 0x8, addend: 0x0, symName: __ZN2pm24tuple_transform_iteratorIN8polymake5mlistIJNS_24unary_transform_iteratorINS_25binary_transform_iteratorINS_13iterator_pairINS_19same_value_iteratorIRKNS_8RationalEEENS_14iterator_rangeINS_17sequence_iteratorIlLb1EEEEENS2_IJNS_20FeaturesViaSecondTagINS2_IJNS_13end_sensitiveEEEEEEEEEEENSt3__14pairINS_7nothingENS_10operations6apply2INS_12BuildUnaryItINSO_11dereferenceEEEvEEEELb0EEENSO_24construct_unary_with_argINS_17SameElementVectorElvEEEENS4_INS5_INS6_IRKNS_11Matrix_baseIS7_EEEENS_15series_iteratorIlLb1EEENS2_IJEEEEENS_19matrix_line_factoryILb1EvEELb0EEEEEENS1_10operations12concat_tupleINS_11VectorChainEEEEC1IJSZ_S1B_EvEERKS1G_DpOT_, symObjAddr: 0xB50C, symBinAddr: 0x10000C8A8, symSize: 0x44 }
  - { offsetInCU: 0xA83BB, offset: 0xA83BB, size: 0x8, addend: 0x0, symName: __ZN2pm25binary_transform_iteratorINS_13iterator_pairINS_19same_value_iteratorIRKNS_11Matrix_baseINS_8RationalEEEEENS_15series_iteratorIlLb1EEEN8polymake5mlistIJEEEEENS_19matrix_line_factoryILb1EvEELb0EED1Ev, symObjAddr: 0xB550, symBinAddr: 0x10000C8EC, symSize: 0x2C }
  - { offsetInCU: 0xA83E8, offset: 0xA83E8, size: 0x8, addend: 0x0, symName: __ZNK2pm19manip_container_topINS_23manip_feature_collectorINS_4RowsINS_11RepeatedColINS_17SameElementVectorIRKNS_8RationalEEEEEEEN8polymake5mlistIJNS_13end_sensitiveEEEEEENSC_IJNS_15ContainerRefTagIKS8_EENS_12OperationTagINS_10operations24construct_unary_with_argIS4_lvEEEENS_9HiddenTagINS_20repeated_line_matrixIS8_EEEEEEELb0EE9manip_topEv, symObjAddr: 0xB590, symBinAddr: 0x10000C92C, symSize: 0x14 }
  - { offsetInCU: 0xA840E, offset: 0xA840E, size: 0x8, addend: 0x0, symName: __ZNK2pm28modified_container_pair_implINS_23manip_feature_collectorINS_17SameElementVectorIRKNS_8RationalEEEN8polymake5mlistIJNS_13end_sensitiveEEEEEENS8_IJNS_16Container1RefTagINS_20same_value_containerIS5_EEEENS_16Container2RefTagINS_9SeriesRawIlLb1EEEEENS_12OperationTagINSt3__14pairINS_7nothingENS_10operations6apply2INS_12BuildUnaryItINSO_11dereferenceEEEvEEEEEEEEELb0EE5beginEv, symObjAddr: 0xB5A4, symBinAddr: 0x10000C940, symSize: 0x98 }
  - { offsetInCU: 0xA8434, offset: 0xA8434, size: 0x8, addend: 0x0, symName: __ZNK2pm20repeated_line_acrossINS_17SameElementVectorIRKNS_8RationalEEELb0EE13get_operationEv, symObjAddr: 0xB63C, symBinAddr: 0x10000C9D8, symSize: 0x3C }
  - { offsetInCU: 0xA8465, offset: 0xA8465, size: 0x8, addend: 0x0, symName: __ZN2pm24unary_transform_iteratorINS_25binary_transform_iteratorINS_13iterator_pairINS_19same_value_iteratorIRKNS_8RationalEEENS_14iterator_rangeINS_17sequence_iteratorIlLb1EEEEEN8polymake5mlistIJNS_20FeaturesViaSecondTagINSD_IJNS_13end_sensitiveEEEEEEEEEEENSt3__14pairINS_7nothingENS_10operations6apply2INS_12BuildUnaryItINSN_11dereferenceEEEvEEEELb0EEENSN_24construct_unary_with_argINS_17SameElementVectorElvEEEC1ISU_vEERKT_RKSX_, symObjAddr: 0xB678, symBinAddr: 0x10000CA14, symSize: 0x3C }
  - { offsetInCU: 0xA84B7, offset: 0xA84B7, size: 0x8, addend: 0x0, symName: __ZNK2pm19manip_container_topINS_23manip_feature_collectorINS_17SameElementVectorIRKNS_8RationalEEEN8polymake5mlistIJNS_13end_sensitiveEEEEEENS8_IJNS_16Container1RefTagINS_20same_value_containerIS5_EEEENS_16Container2RefTagINS_9SeriesRawIlLb1EEEEENS_12OperationTagINSt3__14pairINS_7nothingENS_10operations6apply2INS_12BuildUnaryItINSO_11dereferenceEEEvEEEEEEEEELb0EE9manip_topEv, symObjAddr: 0xB6C8, symBinAddr: 0x10000CA64, symSize: 0x14 }
  - { offsetInCU: 0xA84DD, offset: 0xA84DD, size: 0x8, addend: 0x0, symName: __ZNK2pm29repeated_value_container_implINS_24repeated_value_containerIRKNS_8RationalEEES4_N8polymake5mlistIJEEEE14get_container1Ev, symObjAddr: 0xB6DC, symBinAddr: 0x10000CA78, symSize: 0x2C }
  - { offsetInCU: 0xA8503, offset: 0xA8503, size: 0x8, addend: 0x0, symName: __ZNKR2pm20same_value_containerIRKNS_8RationalEE5beginEv, symObjAddr: 0xB708, symBinAddr: 0x10000CAA4, symSize: 0x2C }
  - { offsetInCU: 0xA8529, offset: 0xA8529, size: 0x8, addend: 0x0, symName: __ZNK2pm29repeated_value_container_implINS_24repeated_value_containerIRKNS_8RationalEEES4_N8polymake5mlistIJEEEE14get_container2Ev, symObjAddr: 0xB748, symBinAddr: 0x10000CAE4, symSize: 0x58 }
  - { offsetInCU: 0xA854F, offset: 0xA854F, size: 0x8, addend: 0x0, symName: __ZN2pm23construct_end_sensitiveINS_9SeriesRawIlLb1EEELb0EE5beginEv, symObjAddr: 0xB7A0, symBinAddr: 0x10000CB3C, symSize: 0x58 }
  - { offsetInCU: 0xA8575, offset: 0xA8575, size: 0x8, addend: 0x0, symName: __ZNK2pm28modified_container_pair_implINS_24repeated_value_containerIRKNS_8RationalEEEN8polymake5mlistIJNS_16Container1RefTagINS_20same_value_containerIS4_EEEENS_16Container2RefTagINS_9SeriesRawIlLb1EEEEENS_12OperationTagINSt3__14pairINS_7nothingENS_10operations6apply2INS_12BuildUnaryItINSK_11dereferenceEEEvEEEEEEEEELb0EE13get_operationEv, symObjAddr: 0xB7F8, symBinAddr: 0x10000CB94, symSize: 0x10 }
  - { offsetInCU: 0xA85A6, offset: 0xA85A6, size: 0x8, addend: 0x0, symName: __ZN2pm25binary_transform_iteratorINS_13iterator_pairINS_19same_value_iteratorIRKNS_8RationalEEENS_14iterator_rangeINS_17sequence_iteratorIlLb1EEEEEN8polymake5mlistIJNS_20FeaturesViaSecondTagINSC_IJNS_13end_sensitiveEEEEEEEEEEENSt3__14pairINS_7nothingENS_10operations6apply2INS_12BuildUnaryItINSM_11dereferenceEEEvEEEELb0EEC1IS6_SA_vvEERKT_RKT0_RKSR_, symObjAddr: 0xB808, symBinAddr: 0x10000CBA4, symSize: 0x44 }
  - { offsetInCU: 0xA8611, offset: 0xA8611, size: 0x8, addend: 0x0, symName: __ZNK2pm19manip_container_topINS_24repeated_value_containerIRKNS_8RationalEEEN8polymake5mlistIJNS_16Container1RefTagINS_20same_value_containerIS4_EEEENS_16Container2RefTagINS_9SeriesRawIlLb1EEEEENS_12OperationTagINSt3__14pairINS_7nothingENS_10operations6apply2INS_12BuildUnaryItINSK_11dereferenceEEEvEEEEEEEEELb0EE9manip_topEv, symObjAddr: 0xB870, symBinAddr: 0x10000CC0C, symSize: 0x14 }
  - { offsetInCU: 0xA8637, offset: 0xA8637, size: 0x8, addend: 0x0, symName: __ZNK2pm24repeated_value_containerIRKNS_8RationalEE14get_elem_aliasEv, symObjAddr: 0xB884, symBinAddr: 0x10000CC20, symSize: 0x14 }
  - { offsetInCU: 0xA865D, offset: 0xA865D, size: 0x8, addend: 0x0, symName: __ZN2pm20same_value_containerIRKNS_8RationalEE9cast_fromERKNS_5aliasIS3_LNS_10alias_kindE1EEE, symObjAddr: 0xB898, symBinAddr: 0x10000CC34, symSize: 0x28 }
  - { offsetInCU: 0xA8680, offset: 0xA8680, size: 0x8, addend: 0x0, symName: __ZN2pm19same_value_iteratorIRKNS_8RationalEEC1IRKNS_5aliasIS3_LNS_10alias_kindE1EEEvEEOT_, symObjAddr: 0xB900, symBinAddr: 0x10000CC9C, symSize: 0x34 }
  - { offsetInCU: 0xA86C2, offset: 0xA86C2, size: 0x8, addend: 0x0, symName: __ZN2pm19same_value_iteratorIRKNS_8RationalEEC2IRKNS_5aliasIS3_LNS_10alias_kindE1EEEvEEOT_, symObjAddr: 0xB934, symBinAddr: 0x10000CCD0, symSize: 0x24 }
  - { offsetInCU: 0xA8704, offset: 0xA8704, size: 0x8, addend: 0x0, symName: __ZN2pm9SeriesRawIlLb1EEC1ERKlll, symObjAddr: 0xB958, symBinAddr: 0x10000CCF4, symSize: 0x44 }
  - { offsetInCU: 0xA8754, offset: 0xA8754, size: 0x8, addend: 0x0, symName: __ZNK2pm9SeriesRawIlLb1EE5beginEv, symObjAddr: 0xB99C, symBinAddr: 0x10000CD38, symSize: 0x38 }
  - { offsetInCU: 0xA877A, offset: 0xA877A, size: 0x8, addend: 0x0, symName: __ZNK2pm9SeriesRawIlLb1EE3endEv, symObjAddr: 0xB9D4, symBinAddr: 0x10000CD70, symSize: 0x4C }
  - { offsetInCU: 0xA87A0, offset: 0xA87A0, size: 0x8, addend: 0x0, symName: __ZN2pm14iterator_rangeINS_17sequence_iteratorIlLb1EEEEC1IS2_S2_vEERKT_RKT0_, symObjAddr: 0xBA20, symBinAddr: 0x10000CDBC, symSize: 0x3C }
  - { offsetInCU: 0xA87FB, offset: 0xA87FB, size: 0x8, addend: 0x0, symName: __ZN2pm17sequence_iteratorIlLb1EEC1ERKl, symObjAddr: 0xBA5C, symBinAddr: 0x10000CDF8, symSize: 0x34 }
  - { offsetInCU: 0xA8833, offset: 0xA8833, size: 0x8, addend: 0x0, symName: __ZN2pm17sequence_iteratorIlLb1EEC2ERKl, symObjAddr: 0xBA90, symBinAddr: 0x10000CE2C, symSize: 0x24 }
  - { offsetInCU: 0xA886B, offset: 0xA886B, size: 0x8, addend: 0x0, symName: __ZN2pm17sequence_iteratorIlLb1EEC1EOl, symObjAddr: 0xBAB4, symBinAddr: 0x10000CE50, symSize: 0x34 }
  - { offsetInCU: 0xA88A3, offset: 0xA88A3, size: 0x8, addend: 0x0, symName: __ZN2pm17sequence_iteratorIlLb1EEC2EOl, symObjAddr: 0xBAE8, symBinAddr: 0x10000CE84, symSize: 0x24 }
  - { offsetInCU: 0xA88DB, offset: 0xA88DB, size: 0x8, addend: 0x0, symName: __ZN2pm14iterator_rangeINS_17sequence_iteratorIlLb1EEEEC2IS2_S2_vEERKT_RKT0_, symObjAddr: 0xBB0C, symBinAddr: 0x10000CEA8, symSize: 0x48 }
  - { offsetInCU: 0xA8936, offset: 0xA8936, size: 0x8, addend: 0x0, symName: __ZN2pm17sequence_iteratorIlLb1EEC2ERKS1_, symObjAddr: 0xBB54, symBinAddr: 0x10000CEF0, symSize: 0x24 }
  - { offsetInCU: 0xA896E, offset: 0xA896E, size: 0x8, addend: 0x0, symName: __ZN2pm17sequence_iteratorIlLb1EEC1ERKS1_, symObjAddr: 0xBB78, symBinAddr: 0x10000CF14, symSize: 0x34 }
  - { offsetInCU: 0xA89A6, offset: 0xA89A6, size: 0x8, addend: 0x0, symName: __ZN2pm25binary_transform_iteratorINS_13iterator_pairINS_19same_value_iteratorIRKNS_8RationalEEENS_14iterator_rangeINS_17sequence_iteratorIlLb1EEEEEN8polymake5mlistIJNS_20FeaturesViaSecondTagINSC_IJNS_13end_sensitiveEEEEEEEEEEENSt3__14pairINS_7nothingENS_10operations6apply2INS_12BuildUnaryItINSM_11dereferenceEEEvEEEELb0EEC2IS6_SA_vvEERKT_RKT0_RKSR_, symObjAddr: 0xBBAC, symBinAddr: 0x10000CF48, symSize: 0x68 }
  - { offsetInCU: 0xA8A11, offset: 0xA8A11, size: 0x8, addend: 0x0, symName: __ZN2pm21binary_transform_evalINS_13iterator_pairINS_19same_value_iteratorIRKNS_8RationalEEENS_14iterator_rangeINS_17sequence_iteratorIlLb1EEEEEN8polymake5mlistIJNS_20FeaturesViaSecondTagINSC_IJNS_13end_sensitiveEEEEEEEEEEENSt3__14pairINS_7nothingENS_10operations6apply2INS_12BuildUnaryItINSM_11dereferenceEEEvEEEELb0EEC2IS6_SA_EERKT_RKT0_RKSR_, symObjAddr: 0xBC44, symBinAddr: 0x10000CFE0, symSize: 0x48 }
  - { offsetInCU: 0xA8A7A, offset: 0xA8A7A, size: 0x8, addend: 0x0, symName: __ZN2pm13iterator_pairINS_19same_value_iteratorIRKNS_8RationalEEENS_14iterator_rangeINS_17sequence_iteratorIlLb1EEEEEN8polymake5mlistIJNS_20FeaturesViaSecondTagINSB_IJNS_13end_sensitiveEEEEEEEEEEC2IS5_S9_vvEERKT_RKT0_, symObjAddr: 0xBC8C, symBinAddr: 0x10000D028, symSize: 0x68 }
  - { offsetInCU: 0xA8AE1, offset: 0xA8AE1, size: 0x8, addend: 0x0, symName: __ZN2pm16empty_op_builderINS_10operations6apply2INS1_11dereferenceIRKNS_14iterator_rangeINS_17sequence_iteratorIlLb1EEEEEEENS_19same_value_iteratorIRKNS_8RationalEEEEEE6createINS2_INS_12BuildUnaryItIS3_EEvEEEESG_RKT_, symObjAddr: 0xBCF4, symBinAddr: 0x10000D090, symSize: 0x28 }
  - { offsetInCU: 0xA8B0A, offset: 0xA8B0A, size: 0x8, addend: 0x0, symName: __ZN2pm14iterator_rangeINS_17sequence_iteratorIlLb1EEEEC1ERKS3_, symObjAddr: 0xBD1C, symBinAddr: 0x10000D0B8, symSize: 0x34 }
  - { offsetInCU: 0xA8B43, offset: 0xA8B43, size: 0x8, addend: 0x0, symName: __ZN2pm14iterator_rangeINS_17sequence_iteratorIlLb1EEEEC2ERKS3_, symObjAddr: 0xBD50, symBinAddr: 0x10000D0EC, symSize: 0x48 }
  - { offsetInCU: 0xA8B7C, offset: 0xA8B7C, size: 0x8, addend: 0x0, symName: __ZN2pm10operations6apply2INS0_11dereferenceIRKNS_14iterator_rangeINS_17sequence_iteratorIlLb1EEEEEEENS_19same_value_iteratorIRKNS_8RationalEEEEC1ERKS9_, symObjAddr: 0xBD98, symBinAddr: 0x10000D134, symSize: 0x34 }
  - { offsetInCU: 0xA8BB5, offset: 0xA8BB5, size: 0x8, addend: 0x0, symName: __ZN2pm10operations6apply2INS0_11dereferenceIRKNS_14iterator_rangeINS_17sequence_iteratorIlLb1EEEEEEENS_19same_value_iteratorIRKNS_8RationalEEEEC2ERKS9_, symObjAddr: 0xBDCC, symBinAddr: 0x10000D168, symSize: 0x18 }
  - { offsetInCU: 0xA8BEE, offset: 0xA8BEE, size: 0x8, addend: 0x0, symName: __ZNK2pm20repeated_line_matrixINS_17SameElementVectorIRKNS_8RationalEEEE9get_countEv, symObjAddr: 0xBDE4, symBinAddr: 0x10000D180, symSize: 0x24 }
  - { offsetInCU: 0xA8C14, offset: 0xA8C14, size: 0x8, addend: 0x0, symName: __ZN2pm10operations24construct_unary_with_argINS_17SameElementVectorElvEC1ERKl, symObjAddr: 0xBE08, symBinAddr: 0x10000D1A4, symSize: 0x34 }
  - { offsetInCU: 0xA8C4D, offset: 0xA8C4D, size: 0x8, addend: 0x0, symName: __ZNK2pm24repeated_value_containerINS_17SameElementVectorIRKNS_8RationalEEEE4sizeEv, symObjAddr: 0xBE3C, symBinAddr: 0x10000D1D8, symSize: 0x18 }
  - { offsetInCU: 0xA8C73, offset: 0xA8C73, size: 0x8, addend: 0x0, symName: __ZN2pm10operations24construct_unary_with_argINS_17SameElementVectorElvEC2ERKl, symObjAddr: 0xBE54, symBinAddr: 0x10000D1F0, symSize: 0x24 }
  - { offsetInCU: 0xA8CAC, offset: 0xA8CAC, size: 0x8, addend: 0x0, symName: __ZN2pm24unary_transform_iteratorINS_25binary_transform_iteratorINS_13iterator_pairINS_19same_value_iteratorIRKNS_8RationalEEENS_14iterator_rangeINS_17sequence_iteratorIlLb1EEEEEN8polymake5mlistIJNS_20FeaturesViaSecondTagINSD_IJNS_13end_sensitiveEEEEEEEEEEENSt3__14pairINS_7nothingENS_10operations6apply2INS_12BuildUnaryItINSN_11dereferenceEEEvEEEELb0EEENSN_24construct_unary_with_argINS_17SameElementVectorElvEEEC2ISU_vEERKT_RKSX_, symObjAddr: 0xBE78, symBinAddr: 0x10000D214, symSize: 0x4C }
  - { offsetInCU: 0xA8CFE, offset: 0xA8CFE, size: 0x8, addend: 0x0, symName: __ZN2pm20unary_transform_evalINS_25binary_transform_iteratorINS_13iterator_pairINS_19same_value_iteratorIRKNS_8RationalEEENS_14iterator_rangeINS_17sequence_iteratorIlLb1EEEEEN8polymake5mlistIJNS_20FeaturesViaSecondTagINSD_IJNS_13end_sensitiveEEEEEEEEEEENSt3__14pairINS_7nothingENS_10operations6apply2INS_12BuildUnaryItINSN_11dereferenceEEEvEEEELb0EEENSN_24construct_unary_with_argINS_17SameElementVectorElvEEEC2ISU_EERKT_RKSX_, symObjAddr: 0xBEDC, symBinAddr: 0x10000D278, symSize: 0x4C }
  - { offsetInCU: 0xA8D4F, offset: 0xA8D4F, size: 0x8, addend: 0x0, symName: __ZN2pm25binary_transform_iteratorINS_13iterator_pairINS_19same_value_iteratorIRKNS_8RationalEEENS_14iterator_rangeINS_17sequence_iteratorIlLb1EEEEEN8polymake5mlistIJNS_20FeaturesViaSecondTagINSC_IJNS_13end_sensitiveEEEEEEEEEEENSt3__14pairINS_7nothingENS_10operations6apply2INS_12BuildUnaryItINSM_11dereferenceEEEvEEEELb0EEC2ERKST_, symObjAddr: 0xBF28, symBinAddr: 0x10000D2C4, symSize: 0x34 }
  - { offsetInCU: 0xA8D85, offset: 0xA8D85, size: 0x8, addend: 0x0, symName: __ZN2pm16unary_op_builderINS_10operations24construct_unary_with_argINS_17SameElementVectorElvEENS_25binary_transform_iteratorINS_13iterator_pairINS_19same_value_iteratorIRKNS_8RationalEEENS_14iterator_rangeINS_17sequence_iteratorIlLb1EEEEEN8polymake5mlistIJNS_20FeaturesViaSecondTagINSH_IJNS_13end_sensitiveEEEEEEEEEEENSt3__14pairINS_7nothingENS1_6apply2INS_12BuildUnaryItINS1_11dereferenceEEEvEEEELb0EEESA_vE6createERKl, symObjAddr: 0xBF5C, symBinAddr: 0x10000D2F8, symSize: 0x2C }
  - { offsetInCU: 0xA8DA9, offset: 0xA8DA9, size: 0x8, addend: 0x0, symName: __ZNK2pm10operations24construct_unary_with_argINS_17SameElementVectorElvEcvRKlEv, symObjAddr: 0xBF88, symBinAddr: 0x10000D324, symSize: 0x14 }
  - { offsetInCU: 0xA8DD5, offset: 0xA8DD5, size: 0x8, addend: 0x0, symName: __ZN2pm21binary_transform_evalINS_13iterator_pairINS_19same_value_iteratorIRKNS_8RationalEEENS_14iterator_rangeINS_17sequence_iteratorIlLb1EEEEEN8polymake5mlistIJNS_20FeaturesViaSecondTagINSC_IJNS_13end_sensitiveEEEEEEEEEEENSt3__14pairINS_7nothingENS_10operations6apply2INS_12BuildUnaryItINSM_11dereferenceEEEvEEEELb0EEC2ERKST_, symObjAddr: 0xBF9C, symBinAddr: 0x10000D338, symSize: 0x34 }
  - { offsetInCU: 0xA8E11, offset: 0xA8E11, size: 0x8, addend: 0x0, symName: __ZN2pm13iterator_pairINS_19same_value_iteratorIRKNS_8RationalEEENS_14iterator_rangeINS_17sequence_iteratorIlLb1EEEEEN8polymake5mlistIJNS_20FeaturesViaSecondTagINSB_IJNS_13end_sensitiveEEEEEEEEEEC2ERKSH_, symObjAddr: 0xBFD0, symBinAddr: 0x10000D36C, symSize: 0x48 }
  - { offsetInCU: 0xA8E47, offset: 0xA8E47, size: 0x8, addend: 0x0, symName: __ZN2pm10operations24construct_unary_with_argINS_17SameElementVectorElRKNS_8RationalEEC1ERKl, symObjAddr: 0xC018, symBinAddr: 0x10000D3B4, symSize: 0x34 }
  - { offsetInCU: 0xA8E80, offset: 0xA8E80, size: 0x8, addend: 0x0, symName: __ZN2pm10operations24construct_unary_with_argINS_17SameElementVectorElRKNS_8RationalEEC2ERKl, symObjAddr: 0xC04C, symBinAddr: 0x10000D3E8, symSize: 0x24 }
  - { offsetInCU: 0xA8EB9, offset: 0xA8EB9, size: 0x8, addend: 0x0, symName: __ZNK2pm11alias_tupleIN8polymake5mlistIJKNS_11RepeatedColINS_17SameElementVectorIRKNS_8RationalEEEEERKNS_6MatrixIS5_EEEEEE13get_containerILm1EEEDcNSt3__117integral_constantImXT_EEE, symObjAddr: 0xC070, symBinAddr: 0x10000D40C, symSize: 0x28 }
  - { offsetInCU: 0xA8EF4, offset: 0xA8EF4, size: 0x8, addend: 0x0, symName: __ZNKR2pm11alias_tupleIN8polymake5mlistIJKNS_11RepeatedColINS_17SameElementVectorIRKNS_8RationalEEEEERKNS_6MatrixIS5_EEEEEE9get_aliasILm1EEEDcNSt3__117integral_constantImXT_EEE, symObjAddr: 0xC098, symBinAddr: 0x10000D434, symSize: 0x24 }
  - { offsetInCU: 0xA8F2F, offset: 0xA8F2F, size: 0x8, addend: 0x0, symName: __ZNK2pm5aliasIRKNS_6MatrixINS_8RationalEEELNS_10alias_kindE2EEdeEv, symObjAddr: 0xC0BC, symBinAddr: 0x10000D458, symSize: 0x14 }
  - { offsetInCU: 0xA8F55, offset: 0xA8F55, size: 0x8, addend: 0x0, symName: __ZNKSt3__112__tuple_leafILm1EN2pm5aliasIRKNS1_6MatrixINS1_8RationalEEELNS1_10alias_kindE2EEELb0EE3getB8ue170006Ev, symObjAddr: 0xC0F8, symBinAddr: 0x10000D494, symSize: 0x14 }
  - { offsetInCU: 0xA8F7B, offset: 0xA8F7B, size: 0x8, addend: 0x0, symName: __ZNK2pm4RowsINS_6MatrixINS_8RationalEEEE14get_container1Ev, symObjAddr: 0xC120, symBinAddr: 0x10000D4BC, symSize: 0x38 }
  - { offsetInCU: 0xA8FA1, offset: 0xA8FA1, size: 0x8, addend: 0x0, symName: __ZNO2pm20same_value_containerIRKNS_11Matrix_baseINS_8RationalEEEE5beginEv, symObjAddr: 0xC158, symBinAddr: 0x10000D4F4, symSize: 0x38 }
  - { offsetInCU: 0xA8FC7, offset: 0xA8FC7, size: 0x8, addend: 0x0, symName: __ZNK2pm9SeriesRawIlLb0EE5beginEv, symObjAddr: 0xC1A4, symBinAddr: 0x10000D540, symSize: 0x40 }
  - { offsetInCU: 0xA8FF8, offset: 0xA8FF8, size: 0x8, addend: 0x0, symName: __ZN2pm25binary_transform_iteratorINS_13iterator_pairINS_19same_value_iteratorIRKNS_11Matrix_baseINS_8RationalEEEEENS_15series_iteratorIlLb1EEEN8polymake5mlistIJEEEEENS_19matrix_line_factoryILb1EvEELb0EEC1IS8_SA_vvEERKT_RKT0_RKSG_, symObjAddr: 0xC1E4, symBinAddr: 0x10000D580, symSize: 0x44 }
  - { offsetInCU: 0xA9063, offset: 0xA9063, size: 0x8, addend: 0x0, symName: __ZN2pm19same_value_iteratorIRKNS_11Matrix_baseINS_8RationalEEEED1Ev, symObjAddr: 0xC228, symBinAddr: 0x10000D5C4, symSize: 0x2C }
  - { offsetInCU: 0xA908F, offset: 0xA908F, size: 0x8, addend: 0x0, symName: __ZN2pm20same_value_containerIRKNS_11Matrix_baseINS_8RationalEEEED1Ev, symObjAddr: 0xC254, symBinAddr: 0x10000D5F0, symSize: 0x2C }
  - { offsetInCU: 0xA90BB, offset: 0xA90BB, size: 0x8, addend: 0x0, symName: __ZN2pm20same_value_containerIRKNS_11Matrix_baseINS_8RationalEEEEC1IJS5_EvEEDpOT_, symObjAddr: 0xC280, symBinAddr: 0x10000D61C, symSize: 0x34 }
  - { offsetInCU: 0xA90FF, offset: 0xA90FF, size: 0x8, addend: 0x0, symName: __ZN2pm20same_value_containerIRKNS_11Matrix_baseINS_8RationalEEEEC2IJS5_EvEEDpOT_, symObjAddr: 0xC2B4, symBinAddr: 0x10000D650, symSize: 0x34 }
  - { offsetInCU: 0xA9143, offset: 0xA9143, size: 0x8, addend: 0x0, symName: __ZN2pm5aliasIRKNS_11Matrix_baseINS_8RationalEEELNS_10alias_kindE2EEC1ES5_, symObjAddr: 0xC2E8, symBinAddr: 0x10000D684, symSize: 0x34 }
  - { offsetInCU: 0xA917B, offset: 0xA917B, size: 0x8, addend: 0x0, symName: __ZN2pm5aliasIRKNS_11Matrix_baseINS_8RationalEEELNS_10alias_kindE2EEC2ES5_, symObjAddr: 0xC31C, symBinAddr: 0x10000D6B8, symSize: 0x68 }
  - { offsetInCU: 0xA91B9, offset: 0xA91B9, size: 0x8, addend: 0x0, symName: __ZN2pm19same_value_iteratorIRKNS_11Matrix_baseINS_8RationalEEEEC1INS_5aliasIS5_LNS_10alias_kindE2EEEvEEOT_, symObjAddr: 0xC398, symBinAddr: 0x10000D734, symSize: 0x34 }
  - { offsetInCU: 0xA91FB, offset: 0xA91FB, size: 0x8, addend: 0x0, symName: __ZN2pm19same_value_iteratorIRKNS_11Matrix_baseINS_8RationalEEEEC2INS_5aliasIS5_LNS_10alias_kindE2EEEvEEOT_, symObjAddr: 0xC3CC, symBinAddr: 0x10000D768, symSize: 0x34 }
  - { offsetInCU: 0xA923D, offset: 0xA923D, size: 0x8, addend: 0x0, symName: __ZN2pm5aliasIRKNS_11Matrix_baseINS_8RationalEEELNS_10alias_kindE2EEC1ERKS7_, symObjAddr: 0xC400, symBinAddr: 0x10000D79C, symSize: 0x34 }
  - { offsetInCU: 0xA9271, offset: 0xA9271, size: 0x8, addend: 0x0, symName: __ZN2pm5aliasIRKNS_11Matrix_baseINS_8RationalEEELNS_10alias_kindE2EEC2ERKS7_, symObjAddr: 0xC434, symBinAddr: 0x10000D7D0, symSize: 0x34 }
  - { offsetInCU: 0xA92A5, offset: 0xA92A5, size: 0x8, addend: 0x0, symName: __ZN2pm15series_iteratorIlLb1EEC1ERKlS3_, symObjAddr: 0xC468, symBinAddr: 0x10000D804, symSize: 0x3C }
  - { offsetInCU: 0xA92EB, offset: 0xA92EB, size: 0x8, addend: 0x0, symName: __ZN2pm15series_iteratorIlLb1EEC2ERKlS3_, symObjAddr: 0xC4A4, symBinAddr: 0x10000D840, symSize: 0x44 }
  - { offsetInCU: 0xA9331, offset: 0xA9331, size: 0x8, addend: 0x0, symName: __ZN2pm25binary_transform_iteratorINS_13iterator_pairINS_19same_value_iteratorIRKNS_11Matrix_baseINS_8RationalEEEEENS_15series_iteratorIlLb1EEEN8polymake5mlistIJEEEEENS_19matrix_line_factoryILb1EvEELb0EEC2IS8_SA_vvEERKT_RKT0_RKSG_, symObjAddr: 0xC4E8, symBinAddr: 0x10000D884, symSize: 0x68 }
  - { offsetInCU: 0xA939C, offset: 0xA939C, size: 0x8, addend: 0x0, symName: __ZN2pm21binary_transform_evalINS_13iterator_pairINS_19same_value_iteratorIRKNS_11Matrix_baseINS_8RationalEEEEENS_15series_iteratorIlLb1EEEN8polymake5mlistIJEEEEENS_19matrix_line_factoryILb1EvEELb0EEC2IS8_SA_EERKT_RKT0_RKSG_, symObjAddr: 0xC580, symBinAddr: 0x10000D91C, symSize: 0x70 }
  - { offsetInCU: 0xA9405, offset: 0xA9405, size: 0x8, addend: 0x0, symName: __ZN2pm13iterator_pairINS_19same_value_iteratorIRKNS_11Matrix_baseINS_8RationalEEEEENS_15series_iteratorIlLb1EEEN8polymake5mlistIJEEEEC2IS7_S9_vvEERKT_RKT0_, symObjAddr: 0xC5F0, symBinAddr: 0x10000D98C, symSize: 0x90 }
  - { offsetInCU: 0xA9461, offset: 0xA9461, size: 0x8, addend: 0x0, symName: __ZN2pm16empty_op_builderINS_19matrix_line_factoryILb1ERKNS_11Matrix_baseINS_8RationalEEEEEE6createINS1_ILb1EvEEEES7_RKT_, symObjAddr: 0xC680, symBinAddr: 0x10000DA1C, symSize: 0x10 }
  - { offsetInCU: 0xA948A, offset: 0xA948A, size: 0x8, addend: 0x0, symName: __ZN2pm13iterator_pairINS_19same_value_iteratorIRKNS_11Matrix_baseINS_8RationalEEEEENS_15series_iteratorIlLb1EEEN8polymake5mlistIJEEEED2Ev, symObjAddr: 0xC690, symBinAddr: 0x10000DA2C, symSize: 0x2C }
  - { offsetInCU: 0xA94B7, offset: 0xA94B7, size: 0x8, addend: 0x0, symName: __ZN2pm19same_value_iteratorIRKNS_11Matrix_baseINS_8RationalEEEEC2ERKS6_, symObjAddr: 0xC6BC, symBinAddr: 0x10000DA58, symSize: 0x34 }
  - { offsetInCU: 0xA94EB, offset: 0xA94EB, size: 0x8, addend: 0x0, symName: __ZN2pm15series_iteratorIlLb1EEC1ERKS1_, symObjAddr: 0xC6F0, symBinAddr: 0x10000DA8C, symSize: 0x34 }
  - { offsetInCU: 0xA9523, offset: 0xA9523, size: 0x8, addend: 0x0, symName: __ZN2pm19same_value_iteratorIRKNS_11Matrix_baseINS_8RationalEEEED2Ev, symObjAddr: 0xC724, symBinAddr: 0x10000DAC0, symSize: 0x2C }
  - { offsetInCU: 0xA954F, offset: 0xA954F, size: 0x8, addend: 0x0, symName: __ZN2pm15series_iteratorIlLb1EEC2ERKS1_, symObjAddr: 0xC750, symBinAddr: 0x10000DAEC, symSize: 0x40 }
  - { offsetInCU: 0xA9587, offset: 0xA9587, size: 0x8, addend: 0x0, symName: __ZN2pm5aliasIRKNS_11Matrix_baseINS_8RationalEEELNS_10alias_kindE2EED1Ev, symObjAddr: 0xC790, symBinAddr: 0x10000DB2C, symSize: 0x2C }
  - { offsetInCU: 0xA95B3, offset: 0xA95B3, size: 0x8, addend: 0x0, symName: __ZN2pm5aliasIRKNS_11Matrix_baseINS_8RationalEEELNS_10alias_kindE2EED2Ev, symObjAddr: 0xC7BC, symBinAddr: 0x10000DB58, symSize: 0x2C }
  - { offsetInCU: 0xA95DF, offset: 0xA95DF, size: 0x8, addend: 0x0, symName: __ZN2pm20same_value_containerIRKNS_11Matrix_baseINS_8RationalEEEED2Ev, symObjAddr: 0xC7E8, symBinAddr: 0x10000DB84, symSize: 0x2C }
  - { offsetInCU: 0xA960B, offset: 0xA960B, size: 0x8, addend: 0x0, symName: __ZN2pm24tuple_transform_iteratorIN8polymake5mlistIJNS_24unary_transform_iteratorINS_25binary_transform_iteratorINS_13iterator_pairINS_19same_value_iteratorIRKNS_8RationalEEENS_14iterator_rangeINS_17sequence_iteratorIlLb1EEEEENS2_IJNS_20FeaturesViaSecondTagINS2_IJNS_13end_sensitiveEEEEEEEEEEENSt3__14pairINS_7nothingENS_10operations6apply2INS_12BuildUnaryItINSO_11dereferenceEEEvEEEELb0EEENSO_24construct_unary_with_argINS_17SameElementVectorElvEEEENS4_INS5_INS6_IRKNS_11Matrix_baseIS7_EEEENS_15series_iteratorIlLb1EEENS2_IJEEEEENS_19matrix_line_factoryILb1EvEELb0EEEEEENS1_10operations12concat_tupleINS_11VectorChainEEEEC2IJSZ_S1B_EvEERKS1G_DpOT_, symObjAddr: 0xC814, symBinAddr: 0x10000DBB0, symSize: 0x40 }
  - { offsetInCU: 0xA9673, offset: 0xA9673, size: 0x8, addend: 0x0, symName: __ZN2pm6chains14iterator_storeIN8polymake5mlistIJNS_24unary_transform_iteratorINS_25binary_transform_iteratorINS_13iterator_pairINS_19same_value_iteratorIRKNS_8RationalEEENS_14iterator_rangeINS_17sequence_iteratorIlLb1EEEEENS3_IJNS_20FeaturesViaSecondTagINS3_IJNS_13end_sensitiveEEEEEEEEEEENSt3__14pairINS_7nothingENS_10operations6apply2INS_12BuildUnaryItINSP_11dereferenceEEEvEEEELb0EEENSP_24construct_unary_with_argINS_17SameElementVectorElvEEEENS5_INS6_INS7_IRKNS_11Matrix_baseIS8_EEEENS_15series_iteratorIlLb1EEENS3_IJEEEEENS_19matrix_line_factoryILb1EvEELb0EEEEEELb0EEC2IJS10_S1C_EvEEDpOT_, symObjAddr: 0xC854, symBinAddr: 0x10000DBF0, symSize: 0x3C }
  - { offsetInCU: 0xA96CA, offset: 0xA96CA, size: 0x8, addend: 0x0, symName: __ZNSt3__15tupleIJN2pm24unary_transform_iteratorINS1_25binary_transform_iteratorINS1_13iterator_pairINS1_19same_value_iteratorIRKNS1_8RationalEEENS1_14iterator_rangeINS1_17sequence_iteratorIlLb1EEEEEN8polymake5mlistIJNS1_20FeaturesViaSecondTagINSF_IJNS1_13end_sensitiveEEEEEEEEEEENS_4pairINS1_7nothingENS1_10operations6apply2INS1_12BuildUnaryItINSO_11dereferenceEEEvEEEELb0EEENSO_24construct_unary_with_argINS1_17SameElementVectorElvEEEENS3_INS4_INS5_IRKNS1_11Matrix_baseIS6_EEEENS1_15series_iteratorIlLb1EEENSF_IJEEEEENS1_19matrix_line_factoryILb1EvEELb0EEEEEC1B8ue170006IJSZ_S1B_ELi0EEEDpOT_, symObjAddr: 0xC890, symBinAddr: 0x10000DC2C, symSize: 0x3C }
  - { offsetInCU: 0xA9729, offset: 0xA9729, size: 0x8, addend: 0x0, symName: __ZNSt3__15tupleIJN2pm24unary_transform_iteratorINS1_25binary_transform_iteratorINS1_13iterator_pairINS1_19same_value_iteratorIRKNS1_8RationalEEENS1_14iterator_rangeINS1_17sequence_iteratorIlLb1EEEEEN8polymake5mlistIJNS1_20FeaturesViaSecondTagINSF_IJNS1_13end_sensitiveEEEEEEEEEEENS_4pairINS1_7nothingENS1_10operations6apply2INS1_12BuildUnaryItINSO_11dereferenceEEEvEEEELb0EEENSO_24construct_unary_with_argINS1_17SameElementVectorElvEEEENS3_INS4_INS5_IRKNS1_11Matrix_baseIS6_EEEENS1_15series_iteratorIlLb1EEENSF_IJEEEEENS1_19matrix_line_factoryILb1EvEELb0EEEEEC2B8ue170006IJSZ_S1B_ELi0EEEDpOT_, symObjAddr: 0xC8CC, symBinAddr: 0x10000DC68, symSize: 0x3C }
  - { offsetInCU: 0xA9788, offset: 0xA9788, size: 0x8, addend: 0x0, symName: __ZNSt3__112__tuple_implINS_15__tuple_indicesIJLm0ELm1EEEEJN2pm24unary_transform_iteratorINS3_25binary_transform_iteratorINS3_13iterator_pairINS3_19same_value_iteratorIRKNS3_8RationalEEENS3_14iterator_rangeINS3_17sequence_iteratorIlLb1EEEEEN8polymake5mlistIJNS3_20FeaturesViaSecondTagINSH_IJNS3_13end_sensitiveEEEEEEEEEEENS_4pairINS3_7nothingENS3_10operations6apply2INS3_12BuildUnaryItINSQ_11dereferenceEEEvEEEELb0EEENSQ_24construct_unary_with_argINS3_17SameElementVectorElvEEEENS5_INS6_INS7_IRKNS3_11Matrix_baseIS8_EEEENS3_15series_iteratorIlLb1EEENSH_IJEEEEENS3_19matrix_line_factoryILb1EvEELb0EEEEEC1B8ue170006IJLm0ELm1EEJS11_S1D_EJEJEJS11_S1D_EEENS1_IJXspT_EEEENS_13__tuple_typesIJDpT0_EEENS1_IJXspT1_EEEENS1H_IJDpT2_EEEDpOT3_, symObjAddr: 0xC908, symBinAddr: 0x10000DCA4, symSize: 0x3C }
  - { offsetInCU: 0xA9838, offset: 0xA9838, size: 0x8, addend: 0x0, symName: __ZNSt3__112__tuple_implINS_15__tuple_indicesIJLm0ELm1EEEEJN2pm24unary_transform_iteratorINS3_25binary_transform_iteratorINS3_13iterator_pairINS3_19same_value_iteratorIRKNS3_8RationalEEENS3_14iterator_rangeINS3_17sequence_iteratorIlLb1EEEEEN8polymake5mlistIJNS3_20FeaturesViaSecondTagINSH_IJNS3_13end_sensitiveEEEEEEEEEEENS_4pairINS3_7nothingENS3_10operations6apply2INS3_12BuildUnaryItINSQ_11dereferenceEEEvEEEELb0EEENSQ_24construct_unary_with_argINS3_17SameElementVectorElvEEEENS5_INS6_INS7_IRKNS3_11Matrix_baseIS8_EEEENS3_15series_iteratorIlLb1EEENSH_IJEEEEENS3_19matrix_line_factoryILb1EvEELb0EEEEEC2B8ue170006IJLm0ELm1EEJS11_S1D_EJEJEJS11_S1D_EEENS1_IJXspT_EEEENS_13__tuple_typesIJDpT0_EEENS1_IJXspT1_EEEENS1H_IJDpT2_EEEDpOT3_, symObjAddr: 0xC944, symBinAddr: 0x10000DCE0, symSize: 0x48 }
  - { offsetInCU: 0xA98E8, offset: 0xA98E8, size: 0x8, addend: 0x0, symName: __ZNSt3__112__tuple_leafILm0EN2pm24unary_transform_iteratorINS1_25binary_transform_iteratorINS1_13iterator_pairINS1_19same_value_iteratorIRKNS1_8RationalEEENS1_14iterator_rangeINS1_17sequence_iteratorIlLb1EEEEEN8polymake5mlistIJNS1_20FeaturesViaSecondTagINSF_IJNS1_13end_sensitiveEEEEEEEEEEENS_4pairINS1_7nothingENS1_10operations6apply2INS1_12BuildUnaryItINSO_11dereferenceEEEvEEEELb0EEENSO_24construct_unary_with_argINS1_17SameElementVectorElvEEEELb0EEC2B8ue170006ISZ_vEEOT_, symObjAddr: 0xC98C, symBinAddr: 0x10000DD28, symSize: 0x34 }
  - { offsetInCU: 0xA992B, offset: 0xA992B, size: 0x8, addend: 0x0, symName: __ZNSt3__112__tuple_leafILm1EN2pm25binary_transform_iteratorINS1_13iterator_pairINS1_19same_value_iteratorIRKNS1_11Matrix_baseINS1_8RationalEEEEENS1_15series_iteratorIlLb1EEEN8polymake5mlistIJEEEEENS1_19matrix_line_factoryILb1EvEELb0EEELb0EEC2B8ue170006ISJ_vEEOT_, symObjAddr: 0xC9C0, symBinAddr: 0x10000DD5C, symSize: 0x34 }
  - { offsetInCU: 0xA996E, offset: 0xA996E, size: 0x8, addend: 0x0, symName: __ZN2pm24unary_transform_iteratorINS_25binary_transform_iteratorINS_13iterator_pairINS_19same_value_iteratorIRKNS_8RationalEEENS_14iterator_rangeINS_17sequence_iteratorIlLb1EEEEEN8polymake5mlistIJNS_20FeaturesViaSecondTagINSD_IJNS_13end_sensitiveEEEEEEEEEEENSt3__14pairINS_7nothingENS_10operations6apply2INS_12BuildUnaryItINSN_11dereferenceEEEvEEEELb0EEENSN_24construct_unary_with_argINS_17SameElementVectorElvEEEC1EOSY_, symObjAddr: 0xC9F4, symBinAddr: 0x10000DD90, symSize: 0x34 }
  - { offsetInCU: 0xA99A4, offset: 0xA99A4, size: 0x8, addend: 0x0, symName: __ZN2pm24unary_transform_iteratorINS_25binary_transform_iteratorINS_13iterator_pairINS_19same_value_iteratorIRKNS_8RationalEEENS_14iterator_rangeINS_17sequence_iteratorIlLb1EEEEEN8polymake5mlistIJNS_20FeaturesViaSecondTagINSD_IJNS_13end_sensitiveEEEEEEEEEEENSt3__14pairINS_7nothingENS_10operations6apply2INS_12BuildUnaryItINSN_11dereferenceEEEvEEEELb0EEENSN_24construct_unary_with_argINS_17SameElementVectorElvEEEC2EOSY_, symObjAddr: 0xCA28, symBinAddr: 0x10000DDC4, symSize: 0x34 }
  - { offsetInCU: 0xA99E0, offset: 0xA99E0, size: 0x8, addend: 0x0, symName: __ZN2pm20unary_transform_evalINS_25binary_transform_iteratorINS_13iterator_pairINS_19same_value_iteratorIRKNS_8RationalEEENS_14iterator_rangeINS_17sequence_iteratorIlLb1EEEEEN8polymake5mlistIJNS_20FeaturesViaSecondTagINSD_IJNS_13end_sensitiveEEEEEEEEEEENSt3__14pairINS_7nothingENS_10operations6apply2INS_12BuildUnaryItINSN_11dereferenceEEEvEEEELb0EEENSN_24construct_unary_with_argINS_17SameElementVectorElvEEEC2EOSY_, symObjAddr: 0xCA5C, symBinAddr: 0x10000DDF8, symSize: 0x40 }
  - { offsetInCU: 0xA9A1C, offset: 0xA9A1C, size: 0x8, addend: 0x0, symName: __ZN2pm25binary_transform_iteratorINS_13iterator_pairINS_19same_value_iteratorIRKNS_8RationalEEENS_14iterator_rangeINS_17sequence_iteratorIlLb1EEEEEN8polymake5mlistIJNS_20FeaturesViaSecondTagINSC_IJNS_13end_sensitiveEEEEEEEEEEENSt3__14pairINS_7nothingENS_10operations6apply2INS_12BuildUnaryItINSM_11dereferenceEEEvEEEELb0EEC2EOST_, symObjAddr: 0xCA9C, symBinAddr: 0x10000DE38, symSize: 0x34 }
  - { offsetInCU: 0xA9A58, offset: 0xA9A58, size: 0x8, addend: 0x0, symName: __ZN2pm21binary_transform_evalINS_13iterator_pairINS_19same_value_iteratorIRKNS_8RationalEEENS_14iterator_rangeINS_17sequence_iteratorIlLb1EEEEEN8polymake5mlistIJNS_20FeaturesViaSecondTagINSC_IJNS_13end_sensitiveEEEEEEEEEEENSt3__14pairINS_7nothingENS_10operations6apply2INS_12BuildUnaryItINSM_11dereferenceEEEvEEEELb0EEC2EOST_, symObjAddr: 0xCAD0, symBinAddr: 0x10000DE6C, symSize: 0x34 }
  - { offsetInCU: 0xA9A94, offset: 0xA9A94, size: 0x8, addend: 0x0, symName: __ZN2pm13iterator_pairINS_19same_value_iteratorIRKNS_8RationalEEENS_14iterator_rangeINS_17sequence_iteratorIlLb1EEEEEN8polymake5mlistIJNS_20FeaturesViaSecondTagINSB_IJNS_13end_sensitiveEEEEEEEEEEC2EOSH_, symObjAddr: 0xCB04, symBinAddr: 0x10000DEA0, symSize: 0x48 }
  - { offsetInCU: 0xA9ACA, offset: 0xA9ACA, size: 0x8, addend: 0x0, symName: __ZN2pm25binary_transform_iteratorINS_13iterator_pairINS_19same_value_iteratorIRKNS_11Matrix_baseINS_8RationalEEEEENS_15series_iteratorIlLb1EEEN8polymake5mlistIJEEEEENS_19matrix_line_factoryILb1EvEELb0EEC1EOSH_, symObjAddr: 0xCB4C, symBinAddr: 0x10000DEE8, symSize: 0x34 }
  - { offsetInCU: 0xA9B00, offset: 0xA9B00, size: 0x8, addend: 0x0, symName: __ZN2pm25binary_transform_iteratorINS_13iterator_pairINS_19same_value_iteratorIRKNS_11Matrix_baseINS_8RationalEEEEENS_15series_iteratorIlLb1EEEN8polymake5mlistIJEEEEENS_19matrix_line_factoryILb1EvEELb0EEC2EOSH_, symObjAddr: 0xCB80, symBinAddr: 0x10000DF1C, symSize: 0x34 }
  - { offsetInCU: 0xA9B3C, offset: 0xA9B3C, size: 0x8, addend: 0x0, symName: __ZN2pm21binary_transform_evalINS_13iterator_pairINS_19same_value_iteratorIRKNS_11Matrix_baseINS_8RationalEEEEENS_15series_iteratorIlLb1EEEN8polymake5mlistIJEEEEENS_19matrix_line_factoryILb1EvEELb0EEC2EOSH_, symObjAddr: 0xCBB4, symBinAddr: 0x10000DF50, symSize: 0x34 }
  - { offsetInCU: 0xA9B78, offset: 0xA9B78, size: 0x8, addend: 0x0, symName: __ZN2pm13iterator_pairINS_19same_value_iteratorIRKNS_11Matrix_baseINS_8RationalEEEEENS_15series_iteratorIlLb1EEEN8polymake5mlistIJEEEEC2EOSD_, symObjAddr: 0xCBE8, symBinAddr: 0x10000DF84, symSize: 0x70 }
  - { offsetInCU: 0xA9BAE, offset: 0xA9BAE, size: 0x8, addend: 0x0, symName: __ZN2pm19same_value_iteratorIRKNS_11Matrix_baseINS_8RationalEEEEC2EOS6_, symObjAddr: 0xCC58, symBinAddr: 0x10000DFF4, symSize: 0x34 }
  - { offsetInCU: 0xA9BE2, offset: 0xA9BE2, size: 0x8, addend: 0x0, symName: __ZN2pm25binary_transform_iteratorINS_13iterator_pairINS_19same_value_iteratorIRKNS_11Matrix_baseINS_8RationalEEEEENS_15series_iteratorIlLb1EEEN8polymake5mlistIJEEEEENS_19matrix_line_factoryILb1EvEELb0EED2Ev, symObjAddr: 0xCC8C, symBinAddr: 0x10000E028, symSize: 0x2C }
  - { offsetInCU: 0xA9C0F, offset: 0xA9C0F, size: 0x8, addend: 0x0, symName: __ZN2pm21binary_transform_evalINS_13iterator_pairINS_19same_value_iteratorIRKNS_11Matrix_baseINS_8RationalEEEEENS_15series_iteratorIlLb1EEEN8polymake5mlistIJEEEEENS_19matrix_line_factoryILb1EvEELb0EED2Ev, symObjAddr: 0xCCB8, symBinAddr: 0x10000E054, symSize: 0x2C }
  - { offsetInCU: 0xA9C3C, offset: 0xA9C3C, size: 0x8, addend: 0x0, symName: __ZNK2pm6chains14iterator_storeIN8polymake5mlistIJNS_24unary_transform_iteratorINS_25binary_transform_iteratorINS_13iterator_pairINS_19same_value_iteratorIRKNS_8RationalEEENS_14iterator_rangeINS_17sequence_iteratorIlLb1EEEEENS3_IJNS_20FeaturesViaSecondTagINS3_IJNS_13end_sensitiveEEEEEEEEEEENSt3__14pairINS_7nothingENS_10operations6apply2INS_12BuildUnaryItINSP_11dereferenceEEEvEEEELb0EEENSP_24construct_unary_with_argINS_17SameElementVectorElvEEEENS5_INS6_INS7_IRKNS_11Matrix_baseIS8_EEEENS_15series_iteratorIlLb1EEENS3_IJEEEEENS_19matrix_line_factoryILb1EvEELb0EEEEEELb0EE12get_it_tupleEv, symObjAddr: 0xCD08, symBinAddr: 0x10000E0A4, symSize: 0x14 }
  - { offsetInCU: 0xA9C62, offset: 0xA9C62, size: 0x8, addend: 0x0, symName: __ZNK2pm13iterator_pairINS_19same_value_iteratorIRKNS_8RationalEEENS_14iterator_rangeINS_17sequence_iteratorIlLb1EEEEEN8polymake5mlistIJNS_20FeaturesViaSecondTagINSB_IJNS_13end_sensitiveEEEEEEEEEE6at_endEv, symObjAddr: 0xCD1C, symBinAddr: 0x10000E0B8, symSize: 0x28 }
  - { offsetInCU: 0xA9C88, offset: 0xA9C88, size: 0x8, addend: 0x0, symName: __ZNKSt3__112__tuple_leafILm0EN2pm24unary_transform_iteratorINS1_25binary_transform_iteratorINS1_13iterator_pairINS1_19same_value_iteratorIRKNS1_8RationalEEENS1_14iterator_rangeINS1_17sequence_iteratorIlLb1EEEEEN8polymake5mlistIJNS1_20FeaturesViaSecondTagINSF_IJNS1_13end_sensitiveEEEEEEEEEEENS_4pairINS1_7nothingENS1_10operations6apply2INS1_12BuildUnaryItINSO_11dereferenceEEEvEEEELb0EEENSO_24construct_unary_with_argINS1_17SameElementVectorElvEEEELb0EE3getB8ue170006Ev, symObjAddr: 0xCD44, symBinAddr: 0x10000E0E0, symSize: 0x14 }
  - { offsetInCU: 0xA9CAE, offset: 0xA9CAE, size: 0x8, addend: 0x0, symName: __ZNK2pm13iterator_pairINS_19same_value_iteratorIRKNS_8RationalEEENS_14iterator_rangeINS_17sequence_iteratorIlLb1EEEEEN8polymake5mlistIJNS_20FeaturesViaSecondTagINSB_IJNS_13end_sensitiveEEEEEEEEEE11at_end_implENSt3__117integral_constantIbLb1EEE, symObjAddr: 0xCD58, symBinAddr: 0x10000E0F4, symSize: 0x2C }
  - { offsetInCU: 0xA9CDF, offset: 0xA9CDF, size: 0x8, addend: 0x0, symName: __ZNK2pm14iterator_rangeINS_17sequence_iteratorIlLb1EEEE6at_endEv, symObjAddr: 0xCD84, symBinAddr: 0x10000E120, symSize: 0x30 }
  - { offsetInCU: 0xA9D05, offset: 0xA9D05, size: 0x8, addend: 0x0, symName: __ZNK2pm17sequence_iteratorIlLb1EEeqILb1EEEbRKNS0_IlXT_EEE, symObjAddr: 0xCDB4, symBinAddr: 0x10000E150, symSize: 0x30 }
  - { offsetInCU: 0xA9D43, offset: 0xA9D43, size: 0x8, addend: 0x0, symName: __ZN2pm4perl11ArrayHolder4pushERKNS0_8SVHolderE, symObjAddr: 0xCE10, symBinAddr: 0x10000E1AC, symSize: 0x3C }
  - { offsetInCU: 0xA9D77, offset: 0xA9D77, size: 0x8, addend: 0x0, symName: __ZN2pm4perl5Value3putINS_11VectorChainIN8polymake5mlistIJKNS_17SameElementVectorIRKNS_8RationalEEEKNS_12IndexedSliceINS_10masqueradeINS_10ConcatRowsERKNS_11Matrix_baseIS7_EEEEKNS_6SeriesIlLb1EEENS5_IJEEEEEEEEEEJEEEvOT_DpOT0_, symObjAddr: 0xCE4C, symBinAddr: 0x10000E1E8, symSize: 0x34 }
  - { offsetInCU: 0xA9DC9, offset: 0xA9DC9, size: 0x8, addend: 0x0, symName: __ZN2pm4perl5Value7put_valINS_11VectorChainIN8polymake5mlistIJKNS_17SameElementVectorIRKNS_8RationalEEEKNS_12IndexedSliceINS_10masqueradeINS_10ConcatRowsERKNS_11Matrix_baseIS7_EEEEKNS_6SeriesIlLb1EEENS5_IJEEEEEEEEEEEENSt3__19enable_ifIXaasr17is_class_or_unionIu11__remove_cvIu20__remove_reference_tIT_EEEE5valuentoooooosr19is_derived_from_anyISW_NS5_IJNS0_9UndefinedENS4_9AnyStringENSS_12basic_stringIcNSS_11char_traitsIcEENSS_9allocatorIcEEEENS0_9BigObjectENS0_13BigObjectTypeENS0_13PropertyValueENS0_6ScalarENS0_10ArrayOwnerIS1_EENS0_4HashENS0_10ListReturnENS_5ArrayIS15_JEEEEEEEE5valuesr20represents_BigObjectISW_EE5valuesr17is_optional_valueISW_EE5valuentsr3std7is_sameINS_13object_traitsISW_NS_22redirect_object_traitsISW_E5modelEE9proxy_forEvEE5valueEPNS1_6AnchorEE4typeEOSU_i, symObjAddr: 0xCE80, symBinAddr: 0x10000E21C, symSize: 0x9C }
  - { offsetInCU: 0xA9E16, offset: 0xA9E16, size: 0x8, addend: 0x0, symName: __ZN2pm4perl5Value18store_canned_valueINS_11VectorChainIN8polymake5mlistIJKNS_17SameElementVectorIRKNS_8RationalEEEKNS_12IndexedSliceINS_10masqueradeINS_10ConcatRowsERKNS_11Matrix_baseIS7_EEEEKNS_6SeriesIlLb1EEENS5_IJEEEEEEEEEEEEPNS1_6AnchorEOT_iNSt3__117integral_constantIbLb0EEESY_SY_, symObjAddr: 0xCF1C, symBinAddr: 0x10000E2B8, symSize: 0x9C }
  - { offsetInCU: 0xA9E84, offset: 0xA9E84, size: 0x8, addend: 0x0, symName: __ZN2pm4perl5Value16store_canned_refINS_11VectorChainIN8polymake5mlistIJKNS_17SameElementVectorIRKNS_8RationalEEEKNS_12IndexedSliceINS_10masqueradeINS_10ConcatRowsERKNS_11Matrix_baseIS7_EEEEKNS_6SeriesIlLb1EEENS5_IJEEEEEEEEEENS_13is_masqueradeISR_vEEEEPNS1_6AnchorERKT_iT0_NSt3__117integral_constantIbLb0EEES12_, symObjAddr: 0xCFB8, symBinAddr: 0x10000E354, symSize: 0x9C }
  - { offsetInCU: 0xA9EFB, offset: 0xA9EFB, size: 0x8, addend: 0x0, symName: __ZN2pm4perl5Value18store_canned_valueINS_11VectorChainIN8polymake5mlistIJKNS_17SameElementVectorIRKNS_8RationalEEEKNS_12IndexedSliceINS_10masqueradeINS_10ConcatRowsERKNS_11Matrix_baseIS7_EEEEKNS_6SeriesIlLb1EEENS5_IJEEEEEEEEEESR_EEPNS1_6AnchorEOT0_P2svi, symObjAddr: 0xD054, symBinAddr: 0x10000E3F0, symSize: 0x94 }
  - { offsetInCU: 0xA9F7E, offset: 0xA9F7E, size: 0x8, addend: 0x0, symName: __ZN2pm4perl10type_cacheINS_11VectorChainIN8polymake5mlistIJKNS_17SameElementVectorIRKNS_8RationalEEEKNS_12IndexedSliceINS_10masqueradeINS_10ConcatRowsERKNS_11Matrix_baseIS6_EEEEKNS_6SeriesIlLb1EEENS4_IJEEEEEEEEEEE9get_descrEP2sv, symObjAddr: 0xD0E8, symBinAddr: 0x10000E484, symSize: 0x34 }
  - { offsetInCU: 0xA9FA1, offset: 0xA9FA1, size: 0x8, addend: 0x0, symName: __ZN2pm4perl5Value18store_canned_valueINS_6VectorINS_8RationalEEENS_11VectorChainIN8polymake5mlistIJKNS_17SameElementVectorIRKS4_EEKNS_12IndexedSliceINS_10masqueradeINS_10ConcatRowsERKNS_11Matrix_baseIS4_EEEEKNS_6SeriesIlLb1EEENS8_IJEEEEEEEEEEEEPNS1_6AnchorEOT0_P2svi, symObjAddr: 0xD11C, symBinAddr: 0x10000E4B8, symSize: 0x94 }
  - { offsetInCU: 0xAA024, offset: 0xAA024, size: 0x8, addend: 0x0, symName: __ZN2pm4perl10type_cacheINS_6VectorINS_8RationalEEEE9get_descrEP2sv, symObjAddr: 0xD1B0, symBinAddr: 0x10000E54C, symSize: 0x34 }
  - { offsetInCU: 0xAA047, offset: 0xAA047, size: 0x8, addend: 0x0, symName: __ZN2pm11VectorChainIN8polymake5mlistIJKNS_17SameElementVectorIRKNS_8RationalEEEKNS_12IndexedSliceINS_10masqueradeINS_10ConcatRowsERKNS_11Matrix_baseIS4_EEEEKNS_6SeriesIlLb1EEENS2_IJEEEEEEEEEC1EOSO_, symObjAddr: 0xD1E4, symBinAddr: 0x10000E580, symSize: 0x34 }
  - { offsetInCU: 0xAA07C, offset: 0xAA07C, size: 0x8, addend: 0x0, symName: __ZN2pm4perl5Value13store_as_perlINS_11VectorChainIN8polymake5mlistIJKNS_17SameElementVectorIRKNS_8RationalEEEKNS_12IndexedSliceINS_10masqueradeINS_10ConcatRowsERKNS_11Matrix_baseIS7_EEEEKNS_6SeriesIlLb1EEENS5_IJEEEEEEEEEEEEvRKT_, symObjAddr: 0xD218, symBinAddr: 0x10000E5B4, symSize: 0x2C }
  - { offsetInCU: 0xAA0BA, offset: 0xAA0BA, size: 0x8, addend: 0x0, symName: __ZN2pm11VectorChainIN8polymake5mlistIJKNS_17SameElementVectorIRKNS_8RationalEEEKNS_12IndexedSliceINS_10masqueradeINS_10ConcatRowsERKNS_11Matrix_baseIS4_EEEEKNS_6SeriesIlLb1EEENS2_IJEEEEEEEEEC2EOSO_, symObjAddr: 0xD244, symBinAddr: 0x10000E5E0, symSize: 0x68 }
  - { offsetInCU: 0xAA0FB, offset: 0xAA0FB, size: 0x8, addend: 0x0, symName: __ZN2pm14ContainerChainIN8polymake5mlistIJKNS_17SameElementVectorIRKNS_8RationalEEEKNS_12IndexedSliceINS_10masqueradeINS_10ConcatRowsERKNS_11Matrix_baseIS4_EEEEKNS_6SeriesIlLb1EEENS2_IJEEEEEEEEEC2EOSO_, symObjAddr: 0xD2AC, symBinAddr: 0x10000E648, symSize: 0x34 }
  - { offsetInCU: 0xAA131, offset: 0xAA131, size: 0x8, addend: 0x0, symName: __ZN2pm13GenericVectorINS_11VectorChainIN8polymake5mlistIJKNS_17SameElementVectorIRKNS_8RationalEEEKNS_12IndexedSliceINS_10masqueradeINS_10ConcatRowsERKNS_11Matrix_baseIS5_EEEEKNS_6SeriesIlLb1EEENS3_IJEEEEEEEEEES5_EC2ERKSQ_, symObjAddr: 0xD2E0, symBinAddr: 0x10000E67C, symSize: 0x18 }
  - { offsetInCU: 0xAA165, offset: 0xAA165, size: 0x8, addend: 0x0, symName: __ZN2pm14ContainerChainIN8polymake5mlistIJKNS_17SameElementVectorIRKNS_8RationalEEEKNS_12IndexedSliceINS_10masqueradeINS_10ConcatRowsERKNS_11Matrix_baseIS4_EEEEKNS_6SeriesIlLb1EEENS2_IJEEEEEEEEED2Ev, symObjAddr: 0xD2F8, symBinAddr: 0x10000E694, symSize: 0x2C }
  - { offsetInCU: 0xAA192, offset: 0xAA192, size: 0x8, addend: 0x0, symName: __ZN2pm11alias_tupleIN8polymake5mlistIJKNS_17SameElementVectorIRKNS_8RationalEEEKNS_12IndexedSliceINS_10masqueradeINS_10ConcatRowsERKNS_11Matrix_baseIS4_EEEEKNS_6SeriesIlLb1EEENS2_IJEEEEEEEEEC2EOSO_, symObjAddr: 0xD324, symBinAddr: 0x10000E6C0, symSize: 0x34 }
  - { offsetInCU: 0xAA1C7, offset: 0xAA1C7, size: 0x8, addend: 0x0, symName: __ZNSt3__15tupleIJN2pm5aliasIKNS1_17SameElementVectorIRKNS1_8RationalEEELNS1_10alias_kindE0EEENS2_IKNS1_12IndexedSliceINS1_10masqueradeINS1_10ConcatRowsERKNS1_11Matrix_baseIS4_EEEEKNS1_6SeriesIlLb1EEEN8polymake5mlistIJEEEEELS9_0EEEEEC1EOSS_, symObjAddr: 0xD358, symBinAddr: 0x10000E6F4, symSize: 0x34 }
  - { offsetInCU: 0xAA1FC, offset: 0xAA1FC, size: 0x8, addend: 0x0, symName: __ZNSt3__15tupleIJN2pm5aliasIKNS1_17SameElementVectorIRKNS1_8RationalEEELNS1_10alias_kindE0EEENS2_IKNS1_12IndexedSliceINS1_10masqueradeINS1_10ConcatRowsERKNS1_11Matrix_baseIS4_EEEEKNS1_6SeriesIlLb1EEEN8polymake5mlistIJEEEEELS9_0EEEEEC2EOSS_, symObjAddr: 0xD38C, symBinAddr: 0x10000E728, symSize: 0x34 }
  - { offsetInCU: 0xAA231, offset: 0xAA231, size: 0x8, addend: 0x0, symName: __ZNSt3__112__tuple_implINS_15__tuple_indicesIJLm0ELm1EEEEJN2pm5aliasIKNS3_17SameElementVectorIRKNS3_8RationalEEELNS3_10alias_kindE0EEENS4_IKNS3_12IndexedSliceINS3_10masqueradeINS3_10ConcatRowsERKNS3_11Matrix_baseIS6_EEEEKNS3_6SeriesIlLb1EEEN8polymake5mlistIJEEEEELSB_0EEEEEC1EOSU_, symObjAddr: 0xD3C0, symBinAddr: 0x10000E75C, symSize: 0x34 }
  - { offsetInCU: 0xAA266, offset: 0xAA266, size: 0x8, addend: 0x0, symName: __ZNSt3__112__tuple_implINS_15__tuple_indicesIJLm0ELm1EEEEJN2pm5aliasIKNS3_17SameElementVectorIRKNS3_8RationalEEELNS3_10alias_kindE0EEENS4_IKNS3_12IndexedSliceINS3_10masqueradeINS3_10ConcatRowsERKNS3_11Matrix_baseIS6_EEEEKNS3_6SeriesIlLb1EEEN8polymake5mlistIJEEEEELSB_0EEEEEC2EOSU_, symObjAddr: 0xD3F4, symBinAddr: 0x10000E790, symSize: 0x48 }
  - { offsetInCU: 0xAA29B, offset: 0xAA29B, size: 0x8, addend: 0x0, symName: __ZNSt3__112__tuple_leafILm0EN2pm5aliasIKNS1_17SameElementVectorIRKNS1_8RationalEEELNS1_10alias_kindE0EEELb0EEC2B8ue170006EOSB_, symObjAddr: 0xD43C, symBinAddr: 0x10000E7D8, symSize: 0x34 }
  - { offsetInCU: 0xAA2D4, offset: 0xAA2D4, size: 0x8, addend: 0x0, symName: __ZNSt3__112__tuple_leafILm1EN2pm5aliasIKNS1_12IndexedSliceINS1_10masqueradeINS1_10ConcatRowsERKNS1_11Matrix_baseINS1_8RationalEEEEEKNS1_6SeriesIlLb1EEEN8polymake5mlistIJEEEEELNS1_10alias_kindE0EEELb0EEC2B8ue170006EOSM_, symObjAddr: 0xD470, symBinAddr: 0x10000E80C, symSize: 0x34 }
  - { offsetInCU: 0xAA30D, offset: 0xAA30D, size: 0x8, addend: 0x0, symName: __ZN2pm5aliasIKNS_17SameElementVectorIRKNS_8RationalEEELNS_10alias_kindE0EEC1EOS8_, symObjAddr: 0xD4A4, symBinAddr: 0x10000E840, symSize: 0x34 }
  - { offsetInCU: 0xAA345, offset: 0xAA345, size: 0x8, addend: 0x0, symName: __ZN2pm5aliasIKNS_17SameElementVectorIRKNS_8RationalEEELNS_10alias_kindE0EEC2EOS8_, symObjAddr: 0xD4D8, symBinAddr: 0x10000E874, symSize: 0x34 }
  - { offsetInCU: 0xAA37D, offset: 0xAA37D, size: 0x8, addend: 0x0, symName: __ZN2pm5aliasIKNS_12IndexedSliceINS_10masqueradeINS_10ConcatRowsERKNS_11Matrix_baseINS_8RationalEEEEEKNS_6SeriesIlLb1EEEN8polymake5mlistIJEEEEELNS_10alias_kindE0EEC1EOSJ_, symObjAddr: 0xD50C, symBinAddr: 0x10000E8A8, symSize: 0x34 }
  - { offsetInCU: 0xAA3B5, offset: 0xAA3B5, size: 0x8, addend: 0x0, symName: __ZN2pm5aliasIKNS_12IndexedSliceINS_10masqueradeINS_10ConcatRowsERKNS_11Matrix_baseINS_8RationalEEEEEKNS_6SeriesIlLb1EEEN8polymake5mlistIJEEEEELNS_10alias_kindE0EEC2EOSJ_, symObjAddr: 0xD540, symBinAddr: 0x10000E8DC, symSize: 0x34 }
  - { offsetInCU: 0xAA3ED, offset: 0xAA3ED, size: 0x8, addend: 0x0, symName: __ZN2pm12IndexedSliceINS_10masqueradeINS_10ConcatRowsERKNS_11Matrix_baseINS_8RationalEEEEEKNS_6SeriesIlLb1EEEN8polymake5mlistIJEEEEC1ERKSF_, symObjAddr: 0xD574, symBinAddr: 0x10000E910, symSize: 0x34 }
  - { offsetInCU: 0xAA423, offset: 0xAA423, size: 0x8, addend: 0x0, symName: __ZN2pm12IndexedSliceINS_10masqueradeINS_10ConcatRowsERKNS_11Matrix_baseINS_8RationalEEEEEKNS_6SeriesIlLb1EEEN8polymake5mlistIJEEEEC2ERKSF_, symObjAddr: 0xD5A8, symBinAddr: 0x10000E944, symSize: 0x68 }
  - { offsetInCU: 0xAA45F, offset: 0xAA45F, size: 0x8, addend: 0x0, symName: __ZN2pm19container_pair_baseINS_10masqueradeINS_10ConcatRowsERKNS_11Matrix_baseINS_8RationalEEEEEKNS_6SeriesIlLb1EEEEC2ERKSC_, symObjAddr: 0xD610, symBinAddr: 0x10000E9AC, symSize: 0x40 }
  - { offsetInCU: 0xAA4A6, offset: 0xAA4A6, size: 0x8, addend: 0x0, symName: __ZN2pm24generic_of_indexed_sliceINS_10masqueradeINS_10ConcatRowsERKNS_11Matrix_baseINS_8RationalEEEEEKNS_6SeriesIlLb1EEEN8polymake5mlistIJEEENS_13GenericVectorINS2_IS5_EES4_EENS_10GenericSetISA_lNS_10operations3cmpEEEEC2ERKSM_, symObjAddr: 0xD650, symBinAddr: 0x10000E9EC, symSize: 0x34 }
  - { offsetInCU: 0xAA4DC, offset: 0xAA4DC, size: 0x8, addend: 0x0, symName: __ZN2pm19container_pair_baseINS_10masqueradeINS_10ConcatRowsERKNS_11Matrix_baseINS_8RationalEEEEEKNS_6SeriesIlLb1EEEED2Ev, symObjAddr: 0xD684, symBinAddr: 0x10000EA20, symSize: 0x2C }
  - { offsetInCU: 0xAA509, offset: 0xAA509, size: 0x8, addend: 0x0, symName: __ZN2pm5aliasINS_10masqueradeINS_10ConcatRowsERKNS_11Matrix_baseINS_8RationalEEEEELNS_10alias_kindE5EEC1ERKSA_, symObjAddr: 0xD6B0, symBinAddr: 0x10000EA4C, symSize: 0x34 }
  - { offsetInCU: 0xAA53E, offset: 0xAA53E, size: 0x8, addend: 0x0, symName: __ZN2pm5aliasINS_10masqueradeINS_10ConcatRowsERKNS_11Matrix_baseINS_8RationalEEEEELNS_10alias_kindE5EEC2ERKSA_, symObjAddr: 0xD6E4, symBinAddr: 0x10000EA80, symSize: 0x34 }
  - { offsetInCU: 0xAA573, offset: 0xAA573, size: 0x8, addend: 0x0, symName: __ZN2pm13GenericVectorINS_12IndexedSliceINS_10masqueradeINS_10ConcatRowsERKNS_11Matrix_baseINS_8RationalEEEEEKNS_6SeriesIlLb1EEEN8polymake5mlistIJEEEEES5_EC2ERKSH_, symObjAddr: 0xD718, symBinAddr: 0x10000EAB4, symSize: 0x18 }
  - { offsetInCU: 0xAA5A7, offset: 0xAA5A7, size: 0x8, addend: 0x0, symName: __ZN2pm5aliasINS_10masqueradeINS_10ConcatRowsERKNS_11Matrix_baseINS_8RationalEEEEELNS_10alias_kindE5EED1Ev, symObjAddr: 0xD730, symBinAddr: 0x10000EACC, symSize: 0x2C }
  - { offsetInCU: 0xAA5D3, offset: 0xAA5D3, size: 0x8, addend: 0x0, symName: __ZN2pm5aliasINS_10masqueradeINS_10ConcatRowsERKNS_11Matrix_baseINS_8RationalEEEEELNS_10alias_kindE5EED2Ev, symObjAddr: 0xD75C, symBinAddr: 0x10000EAF8, symSize: 0x2C }
  - { offsetInCU: 0xAA5FF, offset: 0xAA5FF, size: 0x8, addend: 0x0, symName: __ZN2pm11alias_tupleIN8polymake5mlistIJKNS_17SameElementVectorIRKNS_8RationalEEEKNS_12IndexedSliceINS_10masqueradeINS_10ConcatRowsERKNS_11Matrix_baseIS4_EEEEKNS_6SeriesIlLb1EEENS2_IJEEEEEEEEED2Ev, symObjAddr: 0xD788, symBinAddr: 0x10000EB24, symSize: 0x2C }
  - { offsetInCU: 0xAA62C, offset: 0xAA62C, size: 0x8, addend: 0x0, symName: __ZNSt3__15tupleIJN2pm5aliasIKNS1_17SameElementVectorIRKNS1_8RationalEEELNS1_10alias_kindE0EEENS2_IKNS1_12IndexedSliceINS1_10masqueradeINS1_10ConcatRowsERKNS1_11Matrix_baseIS4_EEEEKNS1_6SeriesIlLb1EEEN8polymake5mlistIJEEEEELS9_0EEEEED1Ev, symObjAddr: 0xD7B4, symBinAddr: 0x10000EB50, symSize: 0x2C }
  - { offsetInCU: 0xAA659, offset: 0xAA659, size: 0x8, addend: 0x0, symName: __ZNSt3__15tupleIJN2pm5aliasIKNS1_17SameElementVectorIRKNS1_8RationalEEELNS1_10alias_kindE0EEENS2_IKNS1_12IndexedSliceINS1_10masqueradeINS1_10ConcatRowsERKNS1_11Matrix_baseIS4_EEEEKNS1_6SeriesIlLb1EEEN8polymake5mlistIJEEEEELS9_0EEEEED2Ev, symObjAddr: 0xD7E0, symBinAddr: 0x10000EB7C, symSize: 0x2C }
  - { offsetInCU: 0xAA686, offset: 0xAA686, size: 0x8, addend: 0x0, symName: __ZNSt3__112__tuple_implINS_15__tuple_indicesIJLm0ELm1EEEEJN2pm5aliasIKNS3_17SameElementVectorIRKNS3_8RationalEEELNS3_10alias_kindE0EEENS4_IKNS3_12IndexedSliceINS3_10masqueradeINS3_10ConcatRowsERKNS3_11Matrix_baseIS6_EEEEKNS3_6SeriesIlLb1EEEN8polymake5mlistIJEEEEELSB_0EEEEED1Ev, symObjAddr: 0xD80C, symBinAddr: 0x10000EBA8, symSize: 0x2C }
  - { offsetInCU: 0xAA6B3, offset: 0xAA6B3, size: 0x8, addend: 0x0, symName: __ZNSt3__112__tuple_implINS_15__tuple_indicesIJLm0ELm1EEEEJN2pm5aliasIKNS3_17SameElementVectorIRKNS3_8RationalEEELNS3_10alias_kindE0EEENS4_IKNS3_12IndexedSliceINS3_10masqueradeINS3_10ConcatRowsERKNS3_11Matrix_baseIS6_EEEEKNS3_6SeriesIlLb1EEEN8polymake5mlistIJEEEEELSB_0EEEEED2Ev, symObjAddr: 0xD838, symBinAddr: 0x10000EBD4, symSize: 0x30 }
  - { offsetInCU: 0xAA6E0, offset: 0xAA6E0, size: 0x8, addend: 0x0, symName: __ZNSt3__112__tuple_leafILm1EN2pm5aliasIKNS1_12IndexedSliceINS1_10masqueradeINS1_10ConcatRowsERKNS1_11Matrix_baseINS1_8RationalEEEEEKNS1_6SeriesIlLb1EEEN8polymake5mlistIJEEEEELNS1_10alias_kindE0EEELb0EED2Ev, symObjAddr: 0xD868, symBinAddr: 0x10000EC04, symSize: 0x2C }
  - { offsetInCU: 0xAA70D, offset: 0xAA70D, size: 0x8, addend: 0x0, symName: __ZN2pm5aliasIKNS_12IndexedSliceINS_10masqueradeINS_10ConcatRowsERKNS_11Matrix_baseINS_8RationalEEEEEKNS_6SeriesIlLb1EEEN8polymake5mlistIJEEEEELNS_10alias_kindE0EED1Ev, symObjAddr: 0xD894, symBinAddr: 0x10000EC30, symSize: 0x2C }
  - { offsetInCU: 0xAA739, offset: 0xAA739, size: 0x8, addend: 0x0, symName: __ZN2pm5aliasIKNS_12IndexedSliceINS_10masqueradeINS_10ConcatRowsERKNS_11Matrix_baseINS_8RationalEEEEEKNS_6SeriesIlLb1EEEN8polymake5mlistIJEEEEELNS_10alias_kindE0EED2Ev, symObjAddr: 0xD8C0, symBinAddr: 0x10000EC5C, symSize: 0x2C }
  - { offsetInCU: 0xAA765, offset: 0xAA765, size: 0x8, addend: 0x0, symName: __ZN2pm12IndexedSliceINS_10masqueradeINS_10ConcatRowsERKNS_11Matrix_baseINS_8RationalEEEEEKNS_6SeriesIlLb1EEEN8polymake5mlistIJEEEED1Ev, symObjAddr: 0xD8EC, symBinAddr: 0x10000EC88, symSize: 0x2C }
  - { offsetInCU: 0xAA792, offset: 0xAA792, size: 0x8, addend: 0x0, symName: __ZN2pm12IndexedSliceINS_10masqueradeINS_10ConcatRowsERKNS_11Matrix_baseINS_8RationalEEEEEKNS_6SeriesIlLb1EEEN8polymake5mlistIJEEEED2Ev, symObjAddr: 0xD918, symBinAddr: 0x10000ECB4, symSize: 0x2C }
  - { offsetInCU: 0xAA7BF, offset: 0xAA7BF, size: 0x8, addend: 0x0, symName: __ZN2pm17GenericOutputImplINS_4perl11ValueOutputIN8polymake5mlistIJEEEEEElsINS_11VectorChainINS4_IJKNS_17SameElementVectorIRKNS_8RationalEEEKNS_12IndexedSliceINS_10masqueradeINS_10ConcatRowsERKNS_11Matrix_baseISB_EEEEKNS_6SeriesIlLb1EEES5_EEEEEEEEERS6_RKT_, symObjAddr: 0xD944, symBinAddr: 0x10000ECE0, symSize: 0x44 }
  - { offsetInCU: 0xAA7FD, offset: 0xAA7FD, size: 0x8, addend: 0x0, symName: __ZN2pm17GenericOutputImplINS_4perl11ValueOutputIN8polymake5mlistIJEEEEEE19dispatch_generic_ioINS_11VectorChainINS4_IJKNS_17SameElementVectorIRKNS_8RationalEEEKNS_12IndexedSliceINS_10masqueradeINS_10ConcatRowsERKNS_11Matrix_baseISB_EEEEKNS_6SeriesIlLb1EEES5_EEEEEEEEEvRKT_NSt3__117integral_constantIbLb0EEE, symObjAddr: 0xD988, symBinAddr: 0x10000ED24, symSize: 0x2C }
  - { offsetInCU: 0xAA846, offset: 0xAA846, size: 0x8, addend: 0x0, symName: __ZN2pm17GenericOutputImplINS_4perl11ValueOutputIN8polymake5mlistIJEEEEEE19dispatch_serializedINS_11VectorChainINS4_IJKNS_17SameElementVectorIRKNS_8RationalEEEKNS_12IndexedSliceINS_10masqueradeINS_10ConcatRowsERKNS_11Matrix_baseISB_EEEEKNS_6SeriesIlLb1EEES5_EEEEEEEEEvRKT_NSt3__117integral_constantIbLb0EEENSZ_IbLb1EEE, symObjAddr: 0xD9C8, symBinAddr: 0x10000ED64, symSize: 0x2C }
  - { offsetInCU: 0xAA89A, offset: 0xAA89A, size: 0x8, addend: 0x0, symName: __ZN2pm17GenericOutputImplINS_4perl11ValueOutputIN8polymake5mlistIJEEEEEE14dispatch_storeINS_11VectorChainINS4_IJKNS_17SameElementVectorIRKNS_8RationalEEEKNS_12IndexedSliceINS_10masqueradeINS_10ConcatRowsERKNS_11Matrix_baseISB_EEEEKNS_6SeriesIlLb1EEES5_EEEEEEEEEvRKT_NS_12is_containerE, symObjAddr: 0xD9F4, symBinAddr: 0x10000ED90, symSize: 0x2C }
  - { offsetInCU: 0xAA8E3, offset: 0xAA8E3, size: 0x8, addend: 0x0, symName: __ZN2pm17GenericOutputImplINS_4perl11ValueOutputIN8polymake5mlistIJEEEEEE18dispatch_containerINS_11VectorChainINS4_IJKNS_17SameElementVectorIRKNS_8RationalEEEKNS_12IndexedSliceINS_10masqueradeINS_10ConcatRowsERKNS_11Matrix_baseISB_EEEEKNS_6SeriesIlLb1EEES5_EEEEEEEEEvRKT_NSt3__117integral_constantIiLi1EEE, symObjAddr: 0xDA20, symBinAddr: 0x10000EDBC, symSize: 0x2C }
  - { offsetInCU: 0xAA92C, offset: 0xAA92C, size: 0x8, addend: 0x0, symName: __ZN2pm17GenericOutputImplINS_4perl11ValueOutputIN8polymake5mlistIJEEEEEE15store_containerINS_11VectorChainINS4_IJKNS_17SameElementVectorIRKNS_8RationalEEEKNS_12IndexedSliceINS_10masqueradeINS_10ConcatRowsERKNS_11Matrix_baseISB_EEEEKNS_6SeriesIlLb1EEES5_EEEEEEEEEvRKT_NSt3__117integral_constantIbLb0EEE, symObjAddr: 0xDA4C, symBinAddr: 0x10000EDE8, symSize: 0x2C }
  - { offsetInCU: 0xAA975, offset: 0xAA975, size: 0x8, addend: 0x0, symName: __ZN2pm17GenericOutputImplINS_4perl11ValueOutputIN8polymake5mlistIJEEEEEE10store_listINS_11VectorChainINS4_IJKNS_17SameElementVectorIRKNS_8RationalEEEKNS_12IndexedSliceINS_10masqueradeINS_10ConcatRowsERKNS_11Matrix_baseISB_EEEEKNS_6SeriesIlLb1EEES5_EEEEEEEEEvRKT_, symObjAddr: 0xDA78, symBinAddr: 0x10000EE14, symSize: 0x2C }
  - { offsetInCU: 0xAA9B3, offset: 0xAA9B3, size: 0x8, addend: 0x0, symName: __ZN2pm17GenericOutputImplINS_4perl11ValueOutputIN8polymake5mlistIJEEEEEE13store_list_asINS_11VectorChainINS4_IJKNS_17SameElementVectorIRKNS_8RationalEEEKNS_12IndexedSliceINS_10masqueradeINS_10ConcatRowsERKNS_11Matrix_baseISB_EEEEKNS_6SeriesIlLb1EEES5_EEEEEEESU_EEvRKT0_, symObjAddr: 0xDAA4, symBinAddr: 0x10000EE40, symSize: 0xC0 }
  - { offsetInCU: 0xAAA29, offset: 0xAAA29, size: 0x8, addend: 0x0, symName: __ZN2pm4perl11ValueOutputIN8polymake5mlistIJEEEE10begin_listINS_11VectorChainINS3_IJKNS_17SameElementVectorIRKNS_8RationalEEEKNS_12IndexedSliceINS_10masqueradeINS_10ConcatRowsERKNS_11Matrix_baseIS9_EEEEKNS_6SeriesIlLb1EEES4_EEEEEEEEERNS0_15ListValueOutputIS4_Lb0EEEPKT_, symObjAddr: 0xDB64, symBinAddr: 0x10000EF00, symSize: 0x74 }
  - { offsetInCU: 0xAAA76, offset: 0xAAA76, size: 0x8, addend: 0x0, symName: __ZNK2pm14iterator_chainIN8polymake5mlistIJNS_25binary_transform_iteratorINS_13iterator_pairINS_19same_value_iteratorIRKNS_8RationalEEENS_14iterator_rangeINS_17sequence_iteratorIlLb1EEEEENS2_IJNS_20FeaturesViaSecondTagINS2_IJNS_13end_sensitiveEEEEEEEEEEENSt3__14pairINS_7nothingENS_10operations6apply2INS_12BuildUnaryItINSN_11dereferenceEEEvEEEELb0EEENSA_INS_11ptr_wrapperIS7_Lb0EEEEEEEELb0EE6at_endEv, symObjAddr: 0xDC14, symBinAddr: 0x10000EFB0, symSize: 0x24 }
  - { offsetInCU: 0xAAA9C, offset: 0xAAA9C, size: 0x8, addend: 0x0, symName: __ZN2pm4perl15ListValueOutputIN8polymake5mlistIJEEELb0EElsIRKNS_8RationalEEERS5_OT_, symObjAddr: 0xDC38, symBinAddr: 0x10000EFD4, symSize: 0x54 }
  - { offsetInCU: 0xAAAEB, offset: 0xAAAEB, size: 0x8, addend: 0x0, symName: __ZNK2pm14iterator_chainIN8polymake5mlistIJNS_25binary_transform_iteratorINS_13iterator_pairINS_19same_value_iteratorIRKNS_8RationalEEENS_14iterator_rangeINS_17sequence_iteratorIlLb1EEEEENS2_IJNS_20FeaturesViaSecondTagINS2_IJNS_13end_sensitiveEEEEEEEEEEENSt3__14pairINS_7nothingENS_10operations6apply2INS_12BuildUnaryItINSN_11dereferenceEEEvEEEELb0EEENSA_INS_11ptr_wrapperIS7_Lb0EEEEEEEELb0EEdeEv, symObjAddr: 0xDC8C, symBinAddr: 0x10000F028, symSize: 0x28 }
  - { offsetInCU: 0xAAB11, offset: 0xAAB11, size: 0x8, addend: 0x0, symName: __ZN2pm14iterator_chainIN8polymake5mlistIJNS_25binary_transform_iteratorINS_13iterator_pairINS_19same_value_iteratorIRKNS_8RationalEEENS_14iterator_rangeINS_17sequence_iteratorIlLb1EEEEENS2_IJNS_20FeaturesViaSecondTagINS2_IJNS_13end_sensitiveEEEEEEEEEEENSt3__14pairINS_7nothingENS_10operations6apply2INS_12BuildUnaryItINSN_11dereferenceEEEvEEEELb0EEENSA_INS_11ptr_wrapperIS7_Lb0EEEEEEEELb0EEppEv, symObjAddr: 0xDCB4, symBinAddr: 0x10000F050, symSize: 0x50 }
  - { offsetInCU: 0xAAB37, offset: 0xAAB37, size: 0x8, addend: 0x0, symName: __ZNK2pm20container_chain_implINS_14ContainerChainIN8polymake5mlistIJKNS_17SameElementVectorIRKNS_8RationalEEEKNS_12IndexedSliceINS_10masqueradeINS_10ConcatRowsERKNS_11Matrix_baseIS5_EEEEKNS_6SeriesIlLb1EEENS3_IJEEEEEEEEEENS3_IJNS_15ContainerRefTagISO_EEEEENSt3__118input_iterator_tagEE4sizeEv, symObjAddr: 0xDD04, symBinAddr: 0x10000F0A0, symSize: 0x24 }
  - { offsetInCU: 0xAAB68, offset: 0xAAB68, size: 0x8, addend: 0x0, symName: __ZNK2pm20container_chain_implINS_14ContainerChainIN8polymake5mlistIJKNS_17SameElementVectorIRKNS_8RationalEEEKNS_12IndexedSliceINS_10masqueradeINS_10ConcatRowsERKNS_11Matrix_baseIS5_EEEEKNS_6SeriesIlLb1EEENS3_IJEEEEEEEEEENS3_IJNS_15ContainerRefTagISO_EEEEENSt3__118input_iterator_tagEE5size_ILm2EEElNST_17integral_constantImXT_EEE, symObjAddr: 0xDD28, symBinAddr: 0x10000F0C4, symSize: 0x4C }
  - { offsetInCU: 0xAABA3, offset: 0xAABA3, size: 0x8, addend: 0x0, symName: __ZNK2pm19manip_container_topINS_14ContainerChainIN8polymake5mlistIJKNS_17SameElementVectorIRKNS_8RationalEEEKNS_12IndexedSliceINS_10masqueradeINS_10ConcatRowsERKNS_11Matrix_baseIS5_EEEEKNS_6SeriesIlLb1EEENS3_IJEEEEEEEEEENS3_IJNS_15ContainerRefTagISO_EEEEELb0EE9manip_topEv, symObjAddr: 0xDD74, symBinAddr: 0x10000F110, symSize: 0x18 }
  - { offsetInCU: 0xAABCF, offset: 0xAABCF, size: 0x8, addend: 0x0, symName: __ZNK2pm11alias_tupleIN8polymake5mlistIJKNS_17SameElementVectorIRKNS_8RationalEEEKNS_12IndexedSliceINS_10masqueradeINS_10ConcatRowsERKNS_11Matrix_baseIS4_EEEEKNS_6SeriesIlLb1EEENS2_IJEEEEEEEEE13get_containerILm1EEEDcNSt3__117integral_constantImXT_EEE, symObjAddr: 0xDD8C, symBinAddr: 0x10000F128, symSize: 0x28 }
  - { offsetInCU: 0xAAC0A, offset: 0xAAC0A, size: 0x8, addend: 0x0, symName: __ZNK2pm23indexed_subset_typebaseINS_12IndexedSliceINS_10masqueradeINS_10ConcatRowsERKNS_11Matrix_baseINS_8RationalEEEEEKNS_6SeriesIlLb1EEEN8polymake5mlistIJEEEEENSE_IJNS_16Container1RefTagIS9_EENS_16Container2RefTagISC_EENS_11RenumberTagINSt3__117integral_constantIbLb1EEEEEEEEE4sizeEv, symObjAddr: 0xDDB4, symBinAddr: 0x10000F150, symSize: 0x2C }
  - { offsetInCU: 0xAAC30, offset: 0xAAC30, size: 0x8, addend: 0x0, symName: __ZNK2pm20container_chain_implINS_14ContainerChainIN8polymake5mlistIJKNS_17SameElementVectorIRKNS_8RationalEEEKNS_12IndexedSliceINS_10masqueradeINS_10ConcatRowsERKNS_11Matrix_baseIS5_EEEEKNS_6SeriesIlLb1EEENS3_IJEEEEEEEEEENS3_IJNS_15ContainerRefTagISO_EEEEENSt3__118input_iterator_tagEE5size_ILm1EEElNST_17integral_constantImXT_EEE, symObjAddr: 0xDDE0, symBinAddr: 0x10000F17C, symSize: 0x40 }
  - { offsetInCU: 0xAAC6B, offset: 0xAAC6B, size: 0x8, addend: 0x0, symName: __ZNKR2pm11alias_tupleIN8polymake5mlistIJKNS_17SameElementVectorIRKNS_8RationalEEEKNS_12IndexedSliceINS_10masqueradeINS_10ConcatRowsERKNS_11Matrix_baseIS4_EEEEKNS_6SeriesIlLb1EEENS2_IJEEEEEEEEE9get_aliasILm1EEEDcNSt3__117integral_constantImXT_EEE, symObjAddr: 0xDE20, symBinAddr: 0x10000F1BC, symSize: 0x24 }
  - { offsetInCU: 0xAACA6, offset: 0xAACA6, size: 0x8, addend: 0x0, symName: __ZNKR2pm5aliasIKNS_12IndexedSliceINS_10masqueradeINS_10ConcatRowsERKNS_11Matrix_baseINS_8RationalEEEEEKNS_6SeriesIlLb1EEEN8polymake5mlistIJEEEEELNS_10alias_kindE0EEdeEv, symObjAddr: 0xDE44, symBinAddr: 0x10000F1E0, symSize: 0x14 }
  - { offsetInCU: 0xAACCC, offset: 0xAACCC, size: 0x8, addend: 0x0, symName: __ZNKSt3__112__tuple_leafILm1EN2pm5aliasIKNS1_12IndexedSliceINS1_10masqueradeINS1_10ConcatRowsERKNS1_11Matrix_baseINS1_8RationalEEEEEKNS1_6SeriesIlLb1EEEN8polymake5mlistIJEEEEELNS1_10alias_kindE0EEELb0EE3getB8ue170006Ev, symObjAddr: 0xDE80, symBinAddr: 0x10000F21C, symSize: 0x14 }
  - { offsetInCU: 0xAACF2, offset: 0xAACF2, size: 0x8, addend: 0x0, symName: __ZNK2pm19manip_container_topINS_12IndexedSliceINS_10masqueradeINS_10ConcatRowsERKNS_11Matrix_baseINS_8RationalEEEEEKNS_6SeriesIlLb1EEEN8polymake5mlistIJEEEEENSE_IJNS_16Container1RefTagIS9_EENS_16Container2RefTagISC_EENS_11RenumberTagINSt3__117integral_constantIbLb1EEEEEEEELb0EE9manip_topEv, symObjAddr: 0xDE94, symBinAddr: 0x10000F230, symSize: 0x14 }
  - { offsetInCU: 0xAAD18, offset: 0xAAD18, size: 0x8, addend: 0x0, symName: __ZNK2pm19container_pair_baseINS_10masqueradeINS_10ConcatRowsERKNS_11Matrix_baseINS_8RationalEEEEEKNS_6SeriesIlLb1EEEE14get_container2Ev, symObjAddr: 0xDEA8, symBinAddr: 0x10000F244, symSize: 0x28 }
  - { offsetInCU: 0xAAD3E, offset: 0xAAD3E, size: 0x8, addend: 0x0, symName: __ZNK2pm9SeriesRawIlLb1EE4sizeEv, symObjAddr: 0xDED0, symBinAddr: 0x10000F26C, symSize: 0x18 }
  - { offsetInCU: 0xAAD64, offset: 0xAAD64, size: 0x8, addend: 0x0, symName: __ZNKR2pm5aliasIKNS_6SeriesIlLb1EEELNS_10alias_kindE0EEdeEv, symObjAddr: 0xDEE8, symBinAddr: 0x10000F284, symSize: 0x14 }
  - { offsetInCU: 0xAAD8A, offset: 0xAAD8A, size: 0x8, addend: 0x0, symName: __ZNK2pm11alias_tupleIN8polymake5mlistIJKNS_17SameElementVectorIRKNS_8RationalEEEKNS_12IndexedSliceINS_10masqueradeINS_10ConcatRowsERKNS_11Matrix_baseIS4_EEEEKNS_6SeriesIlLb1EEENS2_IJEEEEEEEEE13get_containerILm0EEEDcNSt3__117integral_constantImXT_EEE, symObjAddr: 0xDEFC, symBinAddr: 0x10000F298, symSize: 0x28 }
  - { offsetInCU: 0xAADC5, offset: 0xAADC5, size: 0x8, addend: 0x0, symName: __ZN2pm20container_chain_implINS_14ContainerChainIN8polymake5mlistIJKNS_17SameElementVectorIRKNS_8RationalEEEKNS_12IndexedSliceINS_10masqueradeINS_10ConcatRowsERKNS_11Matrix_baseIS5_EEEEKNS_6SeriesIlLb1EEENS3_IJEEEEEEEEEENS3_IJNS_15ContainerRefTagISO_EEEEENSt3__118input_iterator_tagEE5size_ENST_17integral_constantImLm0EEE, symObjAddr: 0xDF24, symBinAddr: 0x10000F2C0, symSize: 0x10 }
  - { offsetInCU: 0xAADE5, offset: 0xAADE5, size: 0x8, addend: 0x0, symName: __ZNKR2pm11alias_tupleIN8polymake5mlistIJKNS_17SameElementVectorIRKNS_8RationalEEEKNS_12IndexedSliceINS_10masqueradeINS_10ConcatRowsERKNS_11Matrix_baseIS4_EEEEKNS_6SeriesIlLb1EEENS2_IJEEEEEEEEE9get_aliasILm0EEEDcNSt3__117integral_constantImXT_EEE, symObjAddr: 0xDF34, symBinAddr: 0x10000F2D0, symSize: 0x24 }
  - { offsetInCU: 0xAAE20, offset: 0xAAE20, size: 0x8, addend: 0x0, symName: __ZNKR2pm5aliasIKNS_17SameElementVectorIRKNS_8RationalEEELNS_10alias_kindE0EEdeEv, symObjAddr: 0xDF58, symBinAddr: 0x10000F2F4, symSize: 0x14 }
  - { offsetInCU: 0xAAE46, offset: 0xAAE46, size: 0x8, addend: 0x0, symName: __ZNKSt3__112__tuple_leafILm0EN2pm5aliasIKNS1_17SameElementVectorIRKNS1_8RationalEEELNS1_10alias_kindE0EEELb0EE3getB8ue170006Ev, symObjAddr: 0xDF90, symBinAddr: 0x10000F32C, symSize: 0x14 }
  - { offsetInCU: 0xAAE6C, offset: 0xAAE6C, size: 0x8, addend: 0x0, symName: __ZNK2pm20container_chain_implINS_14ContainerChainIN8polymake5mlistIJKNS_17SameElementVectorIRKNS_8RationalEEEKNS_12IndexedSliceINS_10masqueradeINS_10ConcatRowsERKNS_11Matrix_baseIS5_EEEEKNS_6SeriesIlLb1EEENS3_IJEEEEEEEEEENS3_IJNS_15ContainerRefTagISO_EEEEENSt3__118input_iterator_tagEE5beginEv, symObjAddr: 0xDFB8, symBinAddr: 0x10000F354, symSize: 0x68 }
  - { offsetInCU: 0xAAEFA, offset: 0xAAEFA, size: 0x8, addend: 0x0, symName: __ZNK2pm24container_chain_typebaseINS_14ContainerChainIN8polymake5mlistIJKNS_17SameElementVectorIRKNS_8RationalEEEKNS_12IndexedSliceINS_10masqueradeINS_10ConcatRowsERKNS_11Matrix_baseIS5_EEEEKNS_6SeriesIlLb1EEENS3_IJEEEEEEEEEENS3_IJNS_15ContainerRefTagISO_EEEEEE13make_iteratorINS_14iterator_chainINS3_IJNS_25binary_transform_iteratorINS_13iterator_pairINS_19same_value_iteratorIS7_EENS_14iterator_rangeINS_17sequence_iteratorIlLb1EEEEENS3_IJNS_20FeaturesViaSecondTagINS3_IJNS_13end_sensitiveEEEEEEEEEEENSt3__14pairINS_7nothingENS_10operations6apply2INS_12BuildUnaryItINS1D_11dereferenceEEEvEEEELb0EEENS10_INS_11ptr_wrapperIS6_Lb0EEEEEEEELb0EEEZNST_10make_beginEvEUlOT_E_JLm0ELm1EEDnEES1Q_iRKT0_NS1A_16integer_sequenceImJXspT1_EEEEOT2_, symObjAddr: 0xE020, symBinAddr: 0x10000F3BC, symSize: 0xAC }
  - { offsetInCU: 0xAAF94, offset: 0xAAF94, size: 0x8, addend: 0x0, symName: __ZN2pm24container_chain_typebaseINS_14ContainerChainIN8polymake5mlistIJKNS_17SameElementVectorIRKNS_8RationalEEEKNS_12IndexedSliceINS_10masqueradeINS_10ConcatRowsERKNS_11Matrix_baseIS5_EEEEKNS_6SeriesIlLb1EEENS3_IJEEEEEEEEEENS3_IJNS_15ContainerRefTagISO_EEEEEE10make_beginEv, symObjAddr: 0xE0CC, symBinAddr: 0x10000F468, symSize: 0x4 }
  - { offsetInCU: 0xAAFA8, offset: 0xAAFA8, size: 0x8, addend: 0x0, symName: __ZN2pm24container_chain_typebaseINS_14ContainerChainIN8polymake5mlistIJKNS_17SameElementVectorIRKNS_8RationalEEEKNS_12IndexedSliceINS_10masqueradeINS_10ConcatRowsERKNS_11Matrix_baseIS5_EEEEKNS_6SeriesIlLb1EEENS3_IJEEEEEEEEEENS3_IJNS_15ContainerRefTagISO_EEEEEE13tuple_indexesEv, symObjAddr: 0xE0D0, symBinAddr: 0x10000F46C, symSize: 0x4 }
  - { offsetInCU: 0xAAFBC, offset: 0xAAFBC, size: 0x8, addend: 0x0, symName: __ZNK2pm24container_chain_typebaseINS_14ContainerChainIN8polymake5mlistIJKNS_17SameElementVectorIRKNS_8RationalEEEKNS_12IndexedSliceINS_10masqueradeINS_10ConcatRowsERKNS_11Matrix_baseIS5_EEEEKNS_6SeriesIlLb1EEENS3_IJEEEEEEEEEENS3_IJNS_15ContainerRefTagISO_EEEEEE18make_index_offsetsEb, symObjAddr: 0xE0D4, symBinAddr: 0x10000F470, symSize: 0x3C }
  - { offsetInCU: 0xAAFF7, offset: 0xAAFF7, size: 0x8, addend: 0x0, symName: __ZZN2pm24container_chain_typebaseINS_14ContainerChainIN8polymake5mlistIJKNS_17SameElementVectorIRKNS_8RationalEEEKNS_12IndexedSliceINS_10masqueradeINS_10ConcatRowsERKNS_11Matrix_baseIS5_EEEEKNS_6SeriesIlLb1EEENS3_IJEEEEEEEEEENS3_IJNS_15ContainerRefTagISO_EEEEEE10make_beginEvENKUlOT_E_clIRS9_EEDaSV_, symObjAddr: 0xE110, symBinAddr: 0x10000F4AC, symSize: 0x38 }
  - { offsetInCU: 0xAB039, offset: 0xAB039, size: 0x8, addend: 0x0, symName: __ZZN2pm24container_chain_typebaseINS_14ContainerChainIN8polymake5mlistIJKNS_17SameElementVectorIRKNS_8RationalEEEKNS_12IndexedSliceINS_10masqueradeINS_10ConcatRowsERKNS_11Matrix_baseIS5_EEEEKNS_6SeriesIlLb1EEENS3_IJEEEEEEEEEENS3_IJNS_15ContainerRefTagISO_EEEEEE10make_beginEvENKUlOT_E_clIRSN_EEDaSV_, symObjAddr: 0xE148, symBinAddr: 0x10000F4E4, symSize: 0x3C }
  - { offsetInCU: 0xAB081, offset: 0xAB081, size: 0x8, addend: 0x0, symName: __ZN2pm14iterator_chainIN8polymake5mlistIJNS_25binary_transform_iteratorINS_13iterator_pairINS_19same_value_iteratorIRKNS_8RationalEEENS_14iterator_rangeINS_17sequence_iteratorIlLb1EEEEENS2_IJNS_20FeaturesViaSecondTagINS2_IJNS_13end_sensitiveEEEEEEEEEEENSt3__14pairINS_7nothingENS_10operations6apply2INS_12BuildUnaryItINSN_11dereferenceEEEvEEEELb0EEENSA_INS_11ptr_wrapperIS7_Lb0EEEEEEEELb0EEC1IJSU_SX_EEEiDnDpOT_, symObjAddr: 0xE184, symBinAddr: 0x10000F520, symSize: 0x4C }
  - { offsetInCU: 0xAB0F3, offset: 0xAB0F3, size: 0x8, addend: 0x0, symName: __ZNK2pm26indexed_subset_elem_accessINS_23manip_feature_collectorINS_12IndexedSliceINS_10masqueradeINS_10ConcatRowsERKNS_11Matrix_baseINS_8RationalEEEEEKNS_6SeriesIlLb1EEEN8polymake5mlistIJEEEEENSF_IJNS_13end_sensitiveEEEEEENSF_IJNS_16Container1RefTagISA_EENS_16Container2RefTagISD_EENS_11RenumberTagINSt3__117integral_constantIbLb1EEEEEEEELNS_17subset_classifier4kindE4ENSQ_18input_iterator_tagEE5beginEv, symObjAddr: 0xE1E4, symBinAddr: 0x10000F580, symSize: 0xAC }
  - { offsetInCU: 0xAB146, offset: 0xAB146, size: 0x8, addend: 0x0, symName: __ZNK2pm19manip_container_topINS_23manip_feature_collectorINS_12IndexedSliceINS_10masqueradeINS_10ConcatRowsERKNS_11Matrix_baseINS_8RationalEEEEEKNS_6SeriesIlLb1EEEN8polymake5mlistIJEEEEENSF_IJNS_13end_sensitiveEEEEEENSF_IJNS_16Container1RefTagISA_EENS_16Container2RefTagISD_EENS_11RenumberTagINSt3__117integral_constantIbLb1EEEEEEEELb0EE9manip_topEv, symObjAddr: 0xE290, symBinAddr: 0x10000F62C, symSize: 0x14 }
  - { offsetInCU: 0xAB16C, offset: 0xAB16C, size: 0x8, addend: 0x0, symName: __ZNK2pm19container_pair_baseINS_10masqueradeINS_10ConcatRowsERKNS_11Matrix_baseINS_8RationalEEEEEKNS_6SeriesIlLb1EEEE14get_container1Ev, symObjAddr: 0xE2A4, symBinAddr: 0x10000F640, symSize: 0x24 }
  - { offsetInCU: 0xAB192, offset: 0xAB192, size: 0x8, addend: 0x0, symName: __ZNK2pm23construct_end_sensitiveINS_10ConcatRowsINS_11Matrix_baseINS_8RationalEEEEELb0EE5beginEv, symObjAddr: 0xE2DC, symBinAddr: 0x10000F678, symSize: 0x5C }
  - { offsetInCU: 0xAB1B8, offset: 0xAB1B8, size: 0x8, addend: 0x0, symName: __ZN2pm14iterator_rangeINS_11ptr_wrapperIKNS_8RationalELb0EEEE8contractEbll, symObjAddr: 0xE338, symBinAddr: 0x10000F6D4, symSize: 0x68 }
  - { offsetInCU: 0xAB20B, offset: 0xAB20B, size: 0x8, addend: 0x0, symName: __ZNK2pm9SeriesRawIlLb1EE5frontEv, symObjAddr: 0xE3A0, symBinAddr: 0x10000F73C, symSize: 0x18 }
  - { offsetInCU: 0xAB231, offset: 0xAB231, size: 0x8, addend: 0x0, symName: __ZNK2pm10ConcatRowsINS_11Matrix_baseINS_8RationalEEEE4sizeEv, symObjAddr: 0xE3B8, symBinAddr: 0x10000F754, symSize: 0x28 }
  - { offsetInCU: 0xAB257, offset: 0xAB257, size: 0x8, addend: 0x0, symName: __ZNK2pm9SeriesRawIlLb1EE4backEv, symObjAddr: 0xE3E0, symBinAddr: 0x10000F77C, symSize: 0x24 }
  - { offsetInCU: 0xAB27D, offset: 0xAB27D, size: 0x8, addend: 0x0, symName: __ZNK2pm5aliasINS_10masqueradeINS_10ConcatRowsERKNS_11Matrix_baseINS_8RationalEEEEELNS_10alias_kindE5EEdeEv, symObjAddr: 0xE404, symBinAddr: 0x10000F7A0, symSize: 0x24 }
  - { offsetInCU: 0xAB2A3, offset: 0xAB2A3, size: 0x8, addend: 0x0, symName: __ZNK2pm5aliasIRKNS_11Matrix_baseINS_8RationalEEELNS_10alias_kindE2EEdeEv, symObjAddr: 0xE428, symBinAddr: 0x10000F7C4, symSize: 0x14 }
  - { offsetInCU: 0xAB2C9, offset: 0xAB2C9, size: 0x8, addend: 0x0, symName: __ZNK2pm11plain_arrayINS_10ConcatRowsINS_11Matrix_baseINS_8RationalEEEEES3_E5beginEv, symObjAddr: 0xE43C, symBinAddr: 0x10000F7D8, symSize: 0x34 }
  - { offsetInCU: 0xAB2EF, offset: 0xAB2EF, size: 0x8, addend: 0x0, symName: __ZNK2pm11plain_arrayINS_10ConcatRowsINS_11Matrix_baseINS_8RationalEEEEES3_E3endEv, symObjAddr: 0xE470, symBinAddr: 0x10000F80C, symSize: 0x50 }
  - { offsetInCU: 0xAB31B, offset: 0xAB31B, size: 0x8, addend: 0x0, symName: __ZN2pm14iterator_rangeINS_11ptr_wrapperIKNS_8RationalELb0EEEEC1IS4_S4_vEERKT_RKT0_, symObjAddr: 0xE4C0, symBinAddr: 0x10000F85C, symSize: 0x3C }
  - { offsetInCU: 0xAB376, offset: 0xAB376, size: 0x8, addend: 0x0, symName: __ZNK2pm10ConcatRowsINS_11Matrix_baseINS_8RationalEEEE8get_dataEv, symObjAddr: 0xE4FC, symBinAddr: 0x10000F898, symSize: 0x28 }
  - { offsetInCU: 0xAB39C, offset: 0xAB39C, size: 0x8, addend: 0x0, symName: __ZN2pm11ptr_wrapperIKNS_8RationalELb0EEC1EPS2_, symObjAddr: 0xE524, symBinAddr: 0x10000F8C0, symSize: 0x34 }
  - { offsetInCU: 0xAB3D5, offset: 0xAB3D5, size: 0x8, addend: 0x0, symName: __ZNK2pm10ConcatRowsINS_11Matrix_baseINS_8RationalEEEE6hiddenEv, symObjAddr: 0xE558, symBinAddr: 0x10000F8F4, symSize: 0x14 }
  - { offsetInCU: 0xAB3FB, offset: 0xAB3FB, size: 0x8, addend: 0x0, symName: __ZNK2pm12shared_arrayINS_8RationalEJNS_13PrefixDataTagINS_11Matrix_baseIS1_E5dim_tEEENS_15AliasHandlerTagINS_20shared_alias_handlerEEEEEdeEv, symObjAddr: 0xE56C, symBinAddr: 0x10000F908, symSize: 0x1C }
  - { offsetInCU: 0xAB421, offset: 0xAB421, size: 0x8, addend: 0x0, symName: __ZN2pm11ptr_wrapperIKNS_8RationalELb0EEC2EPS2_, symObjAddr: 0xE588, symBinAddr: 0x10000F924, symSize: 0x20 }
  - { offsetInCU: 0xAB45A, offset: 0xAB45A, size: 0x8, addend: 0x0, symName: __ZN2pm14iterator_rangeINS_11ptr_wrapperIKNS_8RationalELb0EEEEC2IS4_S4_vEERKT_RKT0_, symObjAddr: 0xE5A8, symBinAddr: 0x10000F944, symSize: 0x34 }
  - { offsetInCU: 0xAB4B5, offset: 0xAB4B5, size: 0x8, addend: 0x0, symName: __ZN2pm14iterator_rangeINS_11ptr_wrapperIKNS_8RationalELb0EEEE14contract1_implEbllNSt3__117integral_constantIbLb0EEE, symObjAddr: 0xE5DC, symBinAddr: 0x10000F978, symSize: 0x38 }
  - { offsetInCU: 0xAB50B, offset: 0xAB50B, size: 0x8, addend: 0x0, symName: __ZN2pm21accompanying_iteratorINS_11ptr_wrapperIKNS_8RationalELb0EEEE7advanceERS4_RKS4_l, symObjAddr: 0xE614, symBinAddr: 0x10000F9B0, symSize: 0x30 }
  - { offsetInCU: 0xAB549, offset: 0xAB549, size: 0x8, addend: 0x0, symName: __ZN2pm11ptr_wrapperIKNS_8RationalELb0EEpLEl, symObjAddr: 0xE6BC, symBinAddr: 0x10000FA58, symSize: 0x28 }
  - { offsetInCU: 0xAB57E, offset: 0xAB57E, size: 0x8, addend: 0x0, symName: __ZNK2pm12shared_arrayINS_8RationalEJNS_13PrefixDataTagINS_11Matrix_baseIS1_E5dim_tEEENS_15AliasHandlerTagINS_20shared_alias_handlerEEEEE4sizeEv, symObjAddr: 0xE6E4, symBinAddr: 0x10000FA80, symSize: 0x1C }
  - { offsetInCU: 0xAB5A4, offset: 0xAB5A4, size: 0x8, addend: 0x0, symName: __ZN2pm14iterator_chainIN8polymake5mlistIJNS_25binary_transform_iteratorINS_13iterator_pairINS_19same_value_iteratorIRKNS_8RationalEEENS_14iterator_rangeINS_17sequence_iteratorIlLb1EEEEENS2_IJNS_20FeaturesViaSecondTagINS2_IJNS_13end_sensitiveEEEEEEEEEEENSt3__14pairINS_7nothingENS_10operations6apply2INS_12BuildUnaryItINSN_11dereferenceEEEvEEEELb0EEENSA_INS_11ptr_wrapperIS7_Lb0EEEEEEEELb0EEC2IJSU_SX_EEEiDnDpOT_, symObjAddr: 0xE700, symBinAddr: 0x10000FA9C, symSize: 0x54 }
  - { offsetInCU: 0xAB616, offset: 0xAB616, size: 0x8, addend: 0x0, symName: __ZN2pm6chains14iterator_storeIN8polymake5mlistIJNS_25binary_transform_iteratorINS_13iterator_pairINS_19same_value_iteratorIRKNS_8RationalEEENS_14iterator_rangeINS_17sequence_iteratorIlLb1EEEEENS3_IJNS_20FeaturesViaSecondTagINS3_IJNS_13end_sensitiveEEEEEEEEEEENSt3__14pairINS_7nothingENS_10operations6apply2INS_12BuildUnaryItINSO_11dereferenceEEEvEEEELb0EEENSB_INS_11ptr_wrapperIS8_Lb0EEEEEEEELb0EEC2IJSV_SY_EvEEDpOT_, symObjAddr: 0xE754, symBinAddr: 0x10000FAF0, symSize: 0x3C }
  - { offsetInCU: 0xAB66D, offset: 0xAB66D, size: 0x8, addend: 0x0, symName: __ZN2pm14iterator_chainIN8polymake5mlistIJNS_25binary_transform_iteratorINS_13iterator_pairINS_19same_value_iteratorIRKNS_8RationalEEENS_14iterator_rangeINS_17sequence_iteratorIlLb1EEEEENS2_IJNS_20FeaturesViaSecondTagINS2_IJNS_13end_sensitiveEEEEEEEEEEENSt3__14pairINS_7nothingENS_10operations6apply2INS_12BuildUnaryItINSN_11dereferenceEEEvEEEELb0EEENSA_INS_11ptr_wrapperIS7_Lb0EEEEEEEELb0EE14valid_positionEv, symObjAddr: 0xE790, symBinAddr: 0x10000FB2C, symSize: 0x74 }
  - { offsetInCU: 0xAB693, offset: 0xAB693, size: 0x8, addend: 0x0, symName: __ZNSt3__15tupleIJN2pm25binary_transform_iteratorINS1_13iterator_pairINS1_19same_value_iteratorIRKNS1_8RationalEEENS1_14iterator_rangeINS1_17sequence_iteratorIlLb1EEEEEN8polymake5mlistIJNS1_20FeaturesViaSecondTagINSE_IJNS1_13end_sensitiveEEEEEEEEEEENS_4pairINS1_7nothingENS1_10operations6apply2INS1_12BuildUnaryItINSN_11dereferenceEEEvEEEELb0EEENS9_INS1_11ptr_wrapperIS6_Lb0EEEEEEEC1B8ue170006IJSU_SX_ELi0EEEDpOT_, symObjAddr: 0xE804, symBinAddr: 0x10000FBA0, symSize: 0x3C }
  - { offsetInCU: 0xAB6F2, offset: 0xAB6F2, size: 0x8, addend: 0x0, symName: __ZNSt3__15tupleIJN2pm25binary_transform_iteratorINS1_13iterator_pairINS1_19same_value_iteratorIRKNS1_8RationalEEENS1_14iterator_rangeINS1_17sequence_iteratorIlLb1EEEEEN8polymake5mlistIJNS1_20FeaturesViaSecondTagINSE_IJNS1_13end_sensitiveEEEEEEEEEEENS_4pairINS1_7nothingENS1_10operations6apply2INS1_12BuildUnaryItINSN_11dereferenceEEEvEEEELb0EEENS9_INS1_11ptr_wrapperIS6_Lb0EEEEEEEC2B8ue170006IJSU_SX_ELi0EEEDpOT_, symObjAddr: 0xE840, symBinAddr: 0x10000FBDC, symSize: 0x3C }
  - { offsetInCU: 0xAB751, offset: 0xAB751, size: 0x8, addend: 0x0, symName: __ZNSt3__112__tuple_implINS_15__tuple_indicesIJLm0ELm1EEEEJN2pm25binary_transform_iteratorINS3_13iterator_pairINS3_19same_value_iteratorIRKNS3_8RationalEEENS3_14iterator_rangeINS3_17sequence_iteratorIlLb1EEEEEN8polymake5mlistIJNS3_20FeaturesViaSecondTagINSG_IJNS3_13end_sensitiveEEEEEEEEEEENS_4pairINS3_7nothingENS3_10operations6apply2INS3_12BuildUnaryItINSP_11dereferenceEEEvEEEELb0EEENSB_INS3_11ptr_wrapperIS8_Lb0EEEEEEEC1B8ue170006IJLm0ELm1EEJSW_SZ_EJEJEJSW_SZ_EEENS1_IJXspT_EEEENS_13__tuple_typesIJDpT0_EEENS1_IJXspT1_EEEENS13_IJDpT2_EEEDpOT3_, symObjAddr: 0xE87C, symBinAddr: 0x10000FC18, symSize: 0x3C }
  - { offsetInCU: 0xAB801, offset: 0xAB801, size: 0x8, addend: 0x0, symName: __ZNSt3__112__tuple_implINS_15__tuple_indicesIJLm0ELm1EEEEJN2pm25binary_transform_iteratorINS3_13iterator_pairINS3_19same_value_iteratorIRKNS3_8RationalEEENS3_14iterator_rangeINS3_17sequence_iteratorIlLb1EEEEEN8polymake5mlistIJNS3_20FeaturesViaSecondTagINSG_IJNS3_13end_sensitiveEEEEEEEEEEENS_4pairINS3_7nothingENS3_10operations6apply2INS3_12BuildUnaryItINSP_11dereferenceEEEvEEEELb0EEENSB_INS3_11ptr_wrapperIS8_Lb0EEEEEEEC2B8ue170006IJLm0ELm1EEJSW_SZ_EJEJEJSW_SZ_EEENS1_IJXspT_EEEENS_13__tuple_typesIJDpT0_EEENS1_IJXspT1_EEEENS13_IJDpT2_EEEDpOT3_, symObjAddr: 0xE8B8, symBinAddr: 0x10000FC54, symSize: 0x48 }
  - { offsetInCU: 0xAB8B1, offset: 0xAB8B1, size: 0x8, addend: 0x0, symName: __ZNSt3__112__tuple_leafILm0EN2pm25binary_transform_iteratorINS1_13iterator_pairINS1_19same_value_iteratorIRKNS1_8RationalEEENS1_14iterator_rangeINS1_17sequence_iteratorIlLb1EEEEEN8polymake5mlistIJNS1_20FeaturesViaSecondTagINSE_IJNS1_13end_sensitiveEEEEEEEEEEENS_4pairINS1_7nothingENS1_10operations6apply2INS1_12BuildUnaryItINSN_11dereferenceEEEvEEEELb0EEELb0EEC2B8ue170006ISU_vEEOT_, symObjAddr: 0xE900, symBinAddr: 0x10000FC9C, symSize: 0x34 }
  - { offsetInCU: 0xAB8F4, offset: 0xAB8F4, size: 0x8, addend: 0x0, symName: __ZNSt3__112__tuple_leafILm1EN2pm14iterator_rangeINS1_11ptr_wrapperIKNS1_8RationalELb0EEEEELb0EEC2B8ue170006IS7_vEEOT_, symObjAddr: 0xE934, symBinAddr: 0x10000FCD0, symSize: 0x24 }
  - { offsetInCU: 0xAB937, offset: 0xAB937, size: 0x8, addend: 0x0, symName: __ZN2pm25binary_transform_iteratorINS_13iterator_pairINS_19same_value_iteratorIRKNS_8RationalEEENS_14iterator_rangeINS_17sequence_iteratorIlLb1EEEEEN8polymake5mlistIJNS_20FeaturesViaSecondTagINSC_IJNS_13end_sensitiveEEEEEEEEEEENSt3__14pairINS_7nothingENS_10operations6apply2INS_12BuildUnaryItINSM_11dereferenceEEEvEEEELb0EEC1EOST_, symObjAddr: 0xE958, symBinAddr: 0x10000FCF4, symSize: 0x34 }
  - { offsetInCU: 0xAB96D, offset: 0xAB96D, size: 0x8, addend: 0x0, symName: __ZNK2pm6chains14iterator_storeIN8polymake5mlistIJNS_25binary_transform_iteratorINS_13iterator_pairINS_19same_value_iteratorIRKNS_8RationalEEENS_14iterator_rangeINS_17sequence_iteratorIlLb1EEEEENS3_IJNS_20FeaturesViaSecondTagINS3_IJNS_13end_sensitiveEEEEEEEEEEENSt3__14pairINS_7nothingENS_10operations6apply2INS_12BuildUnaryItINSO_11dereferenceEEEvEEEELb0EEENSB_INS_11ptr_wrapperIS8_Lb0EEEEEEEELb0EE6at_endEi, symObjAddr: 0xE98C, symBinAddr: 0x10000FD28, symSize: 0x40 }
  - { offsetInCU: 0xAB9A1, offset: 0xAB9A1, size: 0x8, addend: 0x0, symName: __ZN2pm6chains8FunctionINSt3__116integer_sequenceImJLm0ELm1EEEENS0_10OperationsIN8polymake5mlistIJNS_25binary_transform_iteratorINS_13iterator_pairINS_19same_value_iteratorIRKNS_8RationalEEENS_14iterator_rangeINS_17sequence_iteratorIlLb1EEEEENS7_IJNS_20FeaturesViaSecondTagINS7_IJNS_13end_sensitiveEEEEEEEEEEENS2_4pairINS_7nothingENS_10operations6apply2INS_12BuildUnaryItINSR_11dereferenceEEEvEEEELb0EEENSF_INS_11ptr_wrapperISC_Lb0EEEEEEEEE6at_endEE3getEi, symObjAddr: 0xE9CC, symBinAddr: 0x10000FD68, symSize: 0x20 }
  - { offsetInCU: 0xAB9C4, offset: 0xAB9C4, size: 0x8, addend: 0x0, symName: __ZN2pm6chains10OperationsIN8polymake5mlistIJNS_25binary_transform_iteratorINS_13iterator_pairINS_19same_value_iteratorIRKNS_8RationalEEENS_14iterator_rangeINS_17sequence_iteratorIlLb1EEEEENS3_IJNS_20FeaturesViaSecondTagINS3_IJNS_13end_sensitiveEEEEEEEEEEENSt3__14pairINS_7nothingENS_10operations6apply2INS_12BuildUnaryItINSO_11dereferenceEEEvEEEELb0EEENSB_INS_11ptr_wrapperIS8_Lb0EEEEEEEEE6at_end7executeILm0EEEbRKNSL_5tupleIJSV_SY_EEE, symObjAddr: 0xE9EC, symBinAddr: 0x10000FD88, symSize: 0x2C }
  - { offsetInCU: 0xAB9F1, offset: 0xAB9F1, size: 0x8, addend: 0x0, symName: __ZN2pm6chains10OperationsIN8polymake5mlistIJNS_25binary_transform_iteratorINS_13iterator_pairINS_19same_value_iteratorIRKNS_8RationalEEENS_14iterator_rangeINS_17sequence_iteratorIlLb1EEEEENS3_IJNS_20FeaturesViaSecondTagINS3_IJNS_13end_sensitiveEEEEEEEEEEENSt3__14pairINS_7nothingENS_10operations6apply2INS_12BuildUnaryItINSO_11dereferenceEEEvEEEELb0EEENSB_INS_11ptr_wrapperIS8_Lb0EEEEEEEEE6at_end7executeILm1EEEbRKNSL_5tupleIJSV_SY_EEE, symObjAddr: 0xEA18, symBinAddr: 0x10000FDB4, symSize: 0x2C }
  - { offsetInCU: 0xABA1E, offset: 0xABA1E, size: 0x8, addend: 0x0, symName: __ZNKSt3__112__tuple_leafILm0EN2pm25binary_transform_iteratorINS1_13iterator_pairINS1_19same_value_iteratorIRKNS1_8RationalEEENS1_14iterator_rangeINS1_17sequence_iteratorIlLb1EEEEEN8polymake5mlistIJNS1_20FeaturesViaSecondTagINSE_IJNS1_13end_sensitiveEEEEEEEEEEENS_4pairINS1_7nothingENS1_10operations6apply2INS1_12BuildUnaryItINSN_11dereferenceEEEvEEEELb0EEELb0EE3getB8ue170006Ev, symObjAddr: 0xEA68, symBinAddr: 0x10000FE04, symSize: 0x14 }
  - { offsetInCU: 0xABA44, offset: 0xABA44, size: 0x8, addend: 0x0, symName: __ZNK2pm14iterator_rangeINS_11ptr_wrapperIKNS_8RationalELb0EEEE6at_endEv, symObjAddr: 0xEAA4, symBinAddr: 0x10000FE40, symSize: 0x30 }
  - { offsetInCU: 0xABA6A, offset: 0xABA6A, size: 0x8, addend: 0x0, symName: __ZNKSt3__112__tuple_leafILm1EN2pm14iterator_rangeINS1_11ptr_wrapperIKNS1_8RationalELb0EEEEELb0EE3getB8ue170006Ev, symObjAddr: 0xEAD4, symBinAddr: 0x10000FE70, symSize: 0x14 }
  - { offsetInCU: 0xABA90, offset: 0xABA90, size: 0x8, addend: 0x0, symName: __ZNK2pm11ptr_wrapperIKNS_8RationalELb0EEeqIS3_EENSt3__19enable_ifIXsr19is_derived_from_anyIT_NS0_IS1_Lb0EEES3_EE5valueEbE4typeERKS7_, symObjAddr: 0xEAE8, symBinAddr: 0x10000FE84, symSize: 0x38 }
  - { offsetInCU: 0xABAE3, offset: 0xABAE3, size: 0x8, addend: 0x0, symName: __ZN2pm24container_chain_typebaseINS_14ContainerChainIN8polymake5mlistIJKNS_17SameElementVectorIRKNS_8RationalEEEKNS_12IndexedSliceINS_10masqueradeINS_10ConcatRowsERKNS_11Matrix_baseIS5_EEEEKNS_6SeriesIlLb1EEENS3_IJEEEEEEEEEENS3_IJNS_15ContainerRefTagISO_EEEEEE18make_index_offsetsIJRbNSt3__116integer_sequenceImJLm0ELm1EEEEEEEDnNSW_17integral_constantIbLb0EEEDpOT_, symObjAddr: 0xEB20, symBinAddr: 0x10000FEBC, symSize: 0x18 }
  - { offsetInCU: 0xABB31, offset: 0xABB31, size: 0x8, addend: 0x0, symName: __ZN2pm4perl5Value3putIRKNS_8RationalEJEEEvOT_DpOT0_, symObjAddr: 0xEB64, symBinAddr: 0x10000FF00, symSize: 0x34 }
  - { offsetInCU: 0xABB83, offset: 0xABB83, size: 0x8, addend: 0x0, symName: __ZN2pm4perl5Value7put_valIRKNS_8RationalEEENSt3__19enable_ifIXaasr17is_class_or_unionIu11__remove_cvIu20__remove_reference_tIT_EEEE5valuentoooooosr19is_derived_from_anyISA_N8polymake5mlistIJNS0_9UndefinedENSB_9AnyStringENS6_12basic_stringIcNS6_11char_traitsIcEENS6_9allocatorIcEEEENS0_9BigObjectENS0_13BigObjectTypeENS0_13PropertyValueENS0_6ScalarENS0_10ArrayOwnerIS1_EENS0_4HashENS0_10ListReturnENS_5ArrayISL_JEEEEEEEE5valuesr20represents_BigObjectISA_EE5valuesr17is_optional_valueISA_EE5valuentsr3std7is_sameINS_13object_traitsISA_NS_22redirect_object_traitsISA_E5modelEE9proxy_forEvEE5valueEPNS1_6AnchorEE4typeEOS8_i, symObjAddr: 0xEB98, symBinAddr: 0x10000FF34, symSize: 0x9C }
  - { offsetInCU: 0xABBD0, offset: 0xABBD0, size: 0x8, addend: 0x0, symName: __ZN2pm4perl5Value18store_canned_valueIRKNS_8RationalEEEPNS1_6AnchorEOT_iNSt3__117integral_constantIbLb0EEESC_NSB_IbLb1EEE, symObjAddr: 0xEC34, symBinAddr: 0x10000FFD0, symSize: 0x50 }
  - { offsetInCU: 0xABC3E, offset: 0xABC3E, size: 0x8, addend: 0x0, symName: __ZN2pm4perl5Value16store_canned_refINS_8RationalEEEPNS1_6AnchorERKT_iNSt3__117integral_constantIbLb0EEESB_NSA_IbLb1EEE, symObjAddr: 0xEC84, symBinAddr: 0x100010020, symSize: 0x50 }
  - { offsetInCU: 0xABCAC, offset: 0xABCAC, size: 0x8, addend: 0x0, symName: __ZN2pm4perl5Value18store_canned_valueINS_8RationalERKS3_EEPNS1_6AnchorEOT0_P2svi, symObjAddr: 0xECD4, symBinAddr: 0x100010070, symSize: 0x94 }
  - { offsetInCU: 0xABD2F, offset: 0xABD2F, size: 0x8, addend: 0x0, symName: __ZN2pm4perl10type_cacheINS_8RationalEE9get_descrEP2sv, symObjAddr: 0xED68, symBinAddr: 0x100010104, symSize: 0x34 }
  - { offsetInCU: 0xABD52, offset: 0xABD52, size: 0x8, addend: 0x0, symName: __ZN2pm8RationalC1ERKS0_, symObjAddr: 0xED9C, symBinAddr: 0x100010138, symSize: 0x34 }
  - { offsetInCU: 0xABD8A, offset: 0xABD8A, size: 0x8, addend: 0x0, symName: __ZN2pm4perl5Value13store_as_perlINS_8RationalEEEvRKT_, symObjAddr: 0xEDD0, symBinAddr: 0x10001016C, symSize: 0x2C }
  - { offsetInCU: 0xABDC8, offset: 0xABDC8, size: 0x8, addend: 0x0, symName: __ZN2pm8RationalC2ERKS0_, symObjAddr: 0xEDFC, symBinAddr: 0x100010198, symSize: 0x3C }
  - { offsetInCU: 0xABE00, offset: 0xABE00, size: 0x8, addend: 0x0, symName: __ZN2pm8Rational8set_dataIRKS0_EEvOT_NS_7Integer11initializedE, symObjAddr: 0xEE38, symBinAddr: 0x1000101D4, symSize: 0x98 }
  - { offsetInCU: 0xABE4D, offset: 0xABE4D, size: 0x8, addend: 0x0, symName: __ZN2pm7Integer10set_finiteEP12__mpz_structRKS1_NS0_11initializedE, symObjAddr: 0xEF0C, symBinAddr: 0x1000102A8, symSize: 0x84 }
  - { offsetInCU: 0xABE8F, offset: 0xABE8F, size: 0x8, addend: 0x0, symName: __ZN2pm8Rational7set_infEP12__mpq_structlNS_7Integer11initializedE, symObjAddr: 0xEF90, symBinAddr: 0x10001032C, symSize: 0x5C }
  - { offsetInCU: 0xABED1, offset: 0xABED1, size: 0x8, addend: 0x0, symName: __ZN2pm7Integer12isfinite_repEPK12__mpz_struct, symObjAddr: 0xF044, symBinAddr: 0x1000103E0, symSize: 0x24 }
  - { offsetInCU: 0xABEF5, offset: 0xABEF5, size: 0x8, addend: 0x0, symName: __ZNK2pm8Rational7get_repEv, symObjAddr: 0xF068, symBinAddr: 0x100010404, symSize: 0x14 }
  - { offsetInCU: 0xABF1B, offset: 0xABF1B, size: 0x8, addend: 0x0, symName: __ZN2pm17GenericOutputImplINS_4perl11ValueOutputIN8polymake5mlistIJEEEEEElsINS_8RationalEEERS6_RKT_, symObjAddr: 0xF07C, symBinAddr: 0x100010418, symSize: 0x44 }
  - { offsetInCU: 0xABF59, offset: 0xABF59, size: 0x8, addend: 0x0, symName: __ZN2pm17GenericOutputImplINS_4perl11ValueOutputIN8polymake5mlistIJEEEEEE19dispatch_generic_ioINS_8RationalEEEvRKT_NSt3__117integral_constantIbLb0EEE, symObjAddr: 0xF0C0, symBinAddr: 0x10001045C, symSize: 0x2C }
  - { offsetInCU: 0xABFA2, offset: 0xABFA2, size: 0x8, addend: 0x0, symName: __ZN2pm17GenericOutputImplINS_4perl11ValueOutputIN8polymake5mlistIJEEEEEE19dispatch_serializedINS_8RationalEEEvRKT_NSt3__117integral_constantIbLb0EEENSE_IbLb1EEE, symObjAddr: 0xF100, symBinAddr: 0x10001049C, symSize: 0x2C }
  - { offsetInCU: 0xABFF6, offset: 0xABFF6, size: 0x8, addend: 0x0, symName: __ZN2pm17GenericOutputImplINS_4perl11ValueOutputIN8polymake5mlistIJEEEEEE14dispatch_storeINS_8RationalENS_9is_scalarEEEvRKT_T0_, symObjAddr: 0xF12C, symBinAddr: 0x1000104C8, symSize: 0x30 }
  - { offsetInCU: 0xAC048, offset: 0xAC048, size: 0x8, addend: 0x0, symName: __ZN2pm4perl11ValueOutputIN8polymake5mlistIJEEEE8fallbackINS_8RationalEEEvRKT_, symObjAddr: 0xF15C, symBinAddr: 0x1000104F8, symSize: 0x2C }
  - { offsetInCU: 0xAC086, offset: 0xAC086, size: 0x8, addend: 0x0, symName: __ZN2pm4perl11ValueOutputIN8polymake5mlistIJEEEE5storeINS_8RationalEEEvRKT_NSt3__117integral_constantIbLb0EEE, symObjAddr: 0xF188, symBinAddr: 0x100010524, symSize: 0x7C }
  - { offsetInCU: 0xAC0F0, offset: 0xAC0F0, size: 0x8, addend: 0x0, symName: __ZN2pm4perl7ostreamC1ERNS0_8SVHolderE, symObjAddr: 0xF204, symBinAddr: 0x1000105A0, symSize: 0x14C }
  - { offsetInCU: 0xAC128, offset: 0xAC128, size: 0x8, addend: 0x0, symName: __ZN2pm4perl7ostreamD1Ev, symObjAddr: 0xF350, symBinAddr: 0x1000106EC, symSize: 0x40 }
  - { offsetInCU: 0xAC154, offset: 0xAC154, size: 0x8, addend: 0x0, symName: __ZNSt3__19basic_iosIcNS_11char_traitsIcEEEC2B8ue170006Ev, symObjAddr: 0xF390, symBinAddr: 0x10001072C, symSize: 0x44 }
  - { offsetInCU: 0xAC17E, offset: 0xAC17E, size: 0x8, addend: 0x0, symName: __ZNK2pm4perl8SVHolder3getEv, symObjAddr: 0xF3D4, symBinAddr: 0x100010770, symSize: 0x18 }
  - { offsetInCU: 0xAC1A4, offset: 0xAC1A4, size: 0x8, addend: 0x0, symName: __ZN2pm4perl12BufferHolderINS0_10ostreambufEEC2EP2sv, symObjAddr: 0xF3EC, symBinAddr: 0x100010788, symSize: 0x34 }
  - { offsetInCU: 0xAC1DC, offset: 0xAC1DC, size: 0x8, addend: 0x0, symName: __ZNSt3__113basic_ostreamIcNS_11char_traitsIcEEEC2B8ue170006EPNS_15basic_streambufIcS2_EE, symObjAddr: 0xF420, symBinAddr: 0x1000107BC, symSize: 0x60 }
  - { offsetInCU: 0xAC221, offset: 0xAC221, size: 0x8, addend: 0x0, symName: __ZNSt3__18ios_base9precisionB8ue170006El, symObjAddr: 0xF480, symBinAddr: 0x10001081C, symSize: 0x2C }
  - { offsetInCU: 0xAC267, offset: 0xAC267, size: 0x8, addend: 0x0, symName: __ZNSt3__19basic_iosIcNS_11char_traitsIcEEE10exceptionsB8ue170006Ej, symObjAddr: 0xF4AC, symBinAddr: 0x100010848, symSize: 0x2C }
  - { offsetInCU: 0xAC29C, offset: 0xAC29C, size: 0x8, addend: 0x0, symName: __ZN2pm4perl12BufferHolderINS0_10ostreambufEED2Ev, symObjAddr: 0xF4D8, symBinAddr: 0x100010874, symSize: 0x2C }
  - { offsetInCU: 0xAC2C8, offset: 0xAC2C8, size: 0x8, addend: 0x0, symName: __ZN2pm4perl7ostreamD0Ev, symObjAddr: 0xF504, symBinAddr: 0x1000108A0, symSize: 0x30 }
  - { offsetInCU: 0xAC2F4, offset: 0xAC2F4, size: 0x8, addend: 0x0, symName: __ZTv0_n24_N2pm4perl7ostreamD1Ev, symObjAddr: 0xF534, symBinAddr: 0x1000108D0, symSize: 0x28 }
  - { offsetInCU: 0xAC30A, offset: 0xAC30A, size: 0x8, addend: 0x0, symName: __ZTv0_n24_N2pm4perl7ostreamD0Ev, symObjAddr: 0xF55C, symBinAddr: 0x1000108F8, symSize: 0x20 }
  - { offsetInCU: 0xAC320, offset: 0xAC320, size: 0x8, addend: 0x0, symName: __ZNSt3__18ios_baseC2B8ue170006Ev, symObjAddr: 0xF57C, symBinAddr: 0x100010918, symSize: 0x24 }
  - { offsetInCU: 0xAC34A, offset: 0xAC34A, size: 0x8, addend: 0x0, symName: __ZNSt3__19basic_iosIcNS_11char_traitsIcEEE4initB8ue170006EPNS_15basic_streambufIcS2_EE, symObjAddr: 0xF5A0, symBinAddr: 0x10001093C, symSize: 0x44 }
  - { offsetInCU: 0xAC381, offset: 0xAC381, size: 0x8, addend: 0x0, symName: __ZNSt3__111char_traitsIcE3eofB8ue170006Ev, symObjAddr: 0xF5E4, symBinAddr: 0x100010980, symSize: 0x8 }
  - { offsetInCU: 0xAC395, offset: 0xAC395, size: 0x8, addend: 0x0, symName: __ZNSt3__18ios_base10exceptionsB8ue170006Ej, symObjAddr: 0xF5EC, symBinAddr: 0x100010988, symSize: 0x34 }
  - { offsetInCU: 0xAC3CC, offset: 0xAC3CC, size: 0x8, addend: 0x0, symName: __ZN2pm4perl7ostreamD2Ev, symObjAddr: 0xF620, symBinAddr: 0x1000109BC, symSize: 0x44 }
  - { offsetInCU: 0xAC405, offset: 0xAC405, size: 0x8, addend: 0x0, symName: __ZN2pm4perl17type_cache_helperINS_8RationalEvE4initEP2svS5_S5_, symObjAddr: 0xF750, symBinAddr: 0x100010AEC, symSize: 0x30 }
  - { offsetInCU: 0xAC447, offset: 0xAC447, size: 0x8, addend: 0x0, symName: __ZN2pm4perl17type_cache_helperINS_8RationalEvE4initEP2svS5_, symObjAddr: 0xF780, symBinAddr: 0x100010B1C, symSize: 0x84 }
  - { offsetInCU: 0xAC48B, offset: 0xAC48B, size: 0x8, addend: 0x0, symName: __ZN2pm4perl10type_infosC1Ev, symObjAddr: 0xF804, symBinAddr: 0x100010BA0, symSize: 0x2C }
  - { offsetInCU: 0xAC4B7, offset: 0xAC4B7, size: 0x8, addend: 0x0, symName: __ZN2pm4perl10type_infosC2Ev, symObjAddr: 0xF8A8, symBinAddr: 0x100010C44, symSize: 0x20 }
  - { offsetInCU: 0xAC4E9, offset: 0xAC4E9, size: 0x8, addend: 0x0, symName: __ZN2pm4perl19PropertyTypeBuilder5buildIJELb1EEEP2svRKN8polymake9AnyStringERKNS5_5mlistIJDpT_EEENSt3__117integral_constantIbXT0_EEE, symObjAddr: 0xF8C8, symBinAddr: 0x100010C64, symSize: 0x100 }
  - { offsetInCU: 0xAC55E, offset: 0xAC55E, size: 0x8, addend: 0x0, symName: __ZN8polymake9AnyStringC1ILm27EEERAT__Kc, symObjAddr: 0xF9C8, symBinAddr: 0x100010D64, symSize: 0x34 }
  - { offsetInCU: 0xAC5A0, offset: 0xAC5A0, size: 0x8, addend: 0x0, symName: __ZN8polymake9AnyStringC1ILm7EEERAT__Kc, symObjAddr: 0xF9FC, symBinAddr: 0x100010D98, symSize: 0x34 }
  - { offsetInCU: 0xAC5E2, offset: 0xAC5E2, size: 0x8, addend: 0x0, symName: __ZN2pm4perl19PropertyTypeBuilderCI1NS0_7FunCallEEbRKN8polymake9AnyStringEl, symObjAddr: 0xFA30, symBinAddr: 0x100010DCC, symSize: 0x50 }
  - { offsetInCU: 0xAC62A, offset: 0xAC62A, size: 0x8, addend: 0x0, symName: __ZN2pm4perl19PropertyTypeBuilderD1Ev, symObjAddr: 0xFA80, symBinAddr: 0x100010E1C, symSize: 0x2C }
  - { offsetInCU: 0xAC657, offset: 0xAC657, size: 0x8, addend: 0x0, symName: __ZN8polymake9AnyStringC2ILm7EEERAT__Kc, symObjAddr: 0xFAAC, symBinAddr: 0x100010E48, symSize: 0x28 }
  - { offsetInCU: 0xAC699, offset: 0xAC699, size: 0x8, addend: 0x0, symName: __ZN2pm4perl19PropertyTypeBuilderCI2NS0_7FunCallEEbRKN8polymake9AnyStringEl, symObjAddr: 0xFAD4, symBinAddr: 0x100010E70, symSize: 0x50 }
  - { offsetInCU: 0xAC6E1, offset: 0xAC6E1, size: 0x8, addend: 0x0, symName: __ZN2pm4perl19PropertyTypeBuilderD2Ev, symObjAddr: 0xFB24, symBinAddr: 0x100010EC0, symSize: 0x2C }
  - { offsetInCU: 0xAC70E, offset: 0xAC70E, size: 0x8, addend: 0x0, symName: __ZN8polymake9AnyStringC2ILm27EEERAT__Kc, symObjAddr: 0xFB50, symBinAddr: 0x100010EEC, symSize: 0x28 }
  - { offsetInCU: 0xAC750, offset: 0xAC750, size: 0x8, addend: 0x0, symName: __ZN2pm4perl5Value16store_canned_refINS_8RationalEEEPNS1_6AnchorERKT_P2svi, symObjAddr: 0xFB78, symBinAddr: 0x100010F14, symSize: 0x7C }
  - { offsetInCU: 0xAC7AC, offset: 0xAC7AC, size: 0x8, addend: 0x0, symName: __ZNK2pm6chains14iterator_storeIN8polymake5mlistIJNS_25binary_transform_iteratorINS_13iterator_pairINS_19same_value_iteratorIRKNS_8RationalEEENS_14iterator_rangeINS_17sequence_iteratorIlLb1EEEEENS3_IJNS_20FeaturesViaSecondTagINS3_IJNS_13end_sensitiveEEEEEEEEEEENSt3__14pairINS_7nothingENS_10operations6apply2INS_12BuildUnaryItINSO_11dereferenceEEEvEEEELb0EEENSB_INS_11ptr_wrapperIS8_Lb0EEEEEEEELb0EE4starEi, symObjAddr: 0xFBF4, symBinAddr: 0x100010F90, symSize: 0x3C }
  - { offsetInCU: 0xAC7E0, offset: 0xAC7E0, size: 0x8, addend: 0x0, symName: __ZN2pm6chains8FunctionINSt3__116integer_sequenceImJLm0ELm1EEEENS0_10OperationsIN8polymake5mlistIJNS_25binary_transform_iteratorINS_13iterator_pairINS_19same_value_iteratorIRKNS_8RationalEEENS_14iterator_rangeINS_17sequence_iteratorIlLb1EEEEENS7_IJNS_20FeaturesViaSecondTagINS7_IJNS_13end_sensitiveEEEEEEEEEEENS2_4pairINS_7nothingENS_10operations6apply2INS_12BuildUnaryItINSR_11dereferenceEEEvEEEELb0EEENSF_INS_11ptr_wrapperISC_Lb0EEEEEEEEE4starEE3getEi, symObjAddr: 0xFC30, symBinAddr: 0x100010FCC, symSize: 0x20 }
  - { offsetInCU: 0xAC803, offset: 0xAC803, size: 0x8, addend: 0x0, symName: __ZN2pm6chains10OperationsIN8polymake5mlistIJNS_25binary_transform_iteratorINS_13iterator_pairINS_19same_value_iteratorIRKNS_8RationalEEENS_14iterator_rangeINS_17sequence_iteratorIlLb1EEEEENS3_IJNS_20FeaturesViaSecondTagINS3_IJNS_13end_sensitiveEEEEEEEEEEENSt3__14pairINS_7nothingENS_10operations6apply2INS_12BuildUnaryItINSO_11dereferenceEEEvEEEELb0EEENSB_INS_11ptr_wrapperIS8_Lb0EEEEEEEEE4star7executeILm0EEES9_RKNSL_5tupleIJSV_SY_EEE, symObjAddr: 0xFC50, symBinAddr: 0x100010FEC, symSize: 0x28 }
  - { offsetInCU: 0xAC830, offset: 0xAC830, size: 0x8, addend: 0x0, symName: __ZN2pm6chains10OperationsIN8polymake5mlistIJNS_25binary_transform_iteratorINS_13iterator_pairINS_19same_value_iteratorIRKNS_8RationalEEENS_14iterator_rangeINS_17sequence_iteratorIlLb1EEEEENS3_IJNS_20FeaturesViaSecondTagINS3_IJNS_13end_sensitiveEEEEEEEEEEENSt3__14pairINS_7nothingENS_10operations6apply2INS_12BuildUnaryItINSO_11dereferenceEEEvEEEELb0EEENSB_INS_11ptr_wrapperIS8_Lb0EEEEEEEEE4star7executeILm1EEES9_RKNSL_5tupleIJSV_SY_EEE, symObjAddr: 0xFC78, symBinAddr: 0x100011014, symSize: 0x28 }
  - { offsetInCU: 0xAC85D, offset: 0xAC85D, size: 0x8, addend: 0x0, symName: __ZNK2pm19same_value_iteratorIRKNS_8RationalEEdeEv, symObjAddr: 0xFCA0, symBinAddr: 0x10001103C, symSize: 0x24 }
  - { offsetInCU: 0xAC883, offset: 0xAC883, size: 0x8, addend: 0x0, symName: __ZN2pm5aliasIRKNS_8RationalELNS_10alias_kindE1EEdeEv, symObjAddr: 0xFCC4, symBinAddr: 0x100011060, symSize: 0x18 }
  - { offsetInCU: 0xAC8A9, offset: 0xAC8A9, size: 0x8, addend: 0x0, symName: __ZNK2pm11ptr_wrapperIKNS_8RationalELb0EEdeEv, symObjAddr: 0xFCDC, symBinAddr: 0x100011078, symSize: 0x18 }
  - { offsetInCU: 0xAC8CF, offset: 0xAC8CF, size: 0x8, addend: 0x0, symName: __ZN2pm6chains14iterator_storeIN8polymake5mlistIJNS_25binary_transform_iteratorINS_13iterator_pairINS_19same_value_iteratorIRKNS_8RationalEEENS_14iterator_rangeINS_17sequence_iteratorIlLb1EEEEENS3_IJNS_20FeaturesViaSecondTagINS3_IJNS_13end_sensitiveEEEEEEEEEEENSt3__14pairINS_7nothingENS_10operations6apply2INS_12BuildUnaryItINSO_11dereferenceEEEvEEEELb0EEENSB_INS_11ptr_wrapperIS8_Lb0EEEEEEEELb0EE4incrEi, symObjAddr: 0xFCF4, symBinAddr: 0x100011090, symSize: 0x40 }
  - { offsetInCU: 0xAC903, offset: 0xAC903, size: 0x8, addend: 0x0, symName: __ZN2pm6chains8FunctionINSt3__116integer_sequenceImJLm0ELm1EEEENS0_10OperationsIN8polymake5mlistIJNS_25binary_transform_iteratorINS_13iterator_pairINS_19same_value_iteratorIRKNS_8RationalEEENS_14iterator_rangeINS_17sequence_iteratorIlLb1EEEEENS7_IJNS_20FeaturesViaSecondTagINS7_IJNS_13end_sensitiveEEEEEEEEEEENS2_4pairINS_7nothingENS_10operations6apply2INS_12BuildUnaryItINSR_11dereferenceEEEvEEEELb0EEENSF_INS_11ptr_wrapperISC_Lb0EEEEEEEEE4incrEE3getEi, symObjAddr: 0xFD34, symBinAddr: 0x1000110D0, symSize: 0x20 }
  - { offsetInCU: 0xAC926, offset: 0xAC926, size: 0x8, addend: 0x0, symName: __ZN2pm6chains10OperationsIN8polymake5mlistIJNS_25binary_transform_iteratorINS_13iterator_pairINS_19same_value_iteratorIRKNS_8RationalEEENS_14iterator_rangeINS_17sequence_iteratorIlLb1EEEEENS3_IJNS_20FeaturesViaSecondTagINS3_IJNS_13end_sensitiveEEEEEEEEEEENSt3__14pairINS_7nothingENS_10operations6apply2INS_12BuildUnaryItINSO_11dereferenceEEEvEEEELb0EEENSB_INS_11ptr_wrapperIS8_Lb0EEEEEEEEE4incr7executeILm0EEEbRNSL_5tupleIJSV_SY_EEE, symObjAddr: 0xFD54, symBinAddr: 0x1000110F0, symSize: 0x30 }
  - { offsetInCU: 0xAC953, offset: 0xAC953, size: 0x8, addend: 0x0, symName: __ZN2pm6chains10OperationsIN8polymake5mlistIJNS_25binary_transform_iteratorINS_13iterator_pairINS_19same_value_iteratorIRKNS_8RationalEEENS_14iterator_rangeINS_17sequence_iteratorIlLb1EEEEENS3_IJNS_20FeaturesViaSecondTagINS3_IJNS_13end_sensitiveEEEEEEEEEEENSt3__14pairINS_7nothingENS_10operations6apply2INS_12BuildUnaryItINSO_11dereferenceEEEvEEEELb0EEENSB_INS_11ptr_wrapperIS8_Lb0EEEEEEEEE4incr7executeILm1EEEbRNSL_5tupleIJSV_SY_EEE, symObjAddr: 0xFD84, symBinAddr: 0x100011120, symSize: 0x30 }
  - { offsetInCU: 0xAC980, offset: 0xAC980, size: 0x8, addend: 0x0, symName: __ZN2pm25binary_transform_iteratorINS_13iterator_pairINS_19same_value_iteratorIRKNS_8RationalEEENS_14iterator_rangeINS_17sequence_iteratorIlLb1EEEEEN8polymake5mlistIJNS_20FeaturesViaSecondTagINSC_IJNS_13end_sensitiveEEEEEEEEEEENSt3__14pairINS_7nothingENS_10operations6apply2INS_12BuildUnaryItINSM_11dereferenceEEEvEEEELb0EEppEv, symObjAddr: 0xFDD8, symBinAddr: 0x100011174, symSize: 0x2C }
  - { offsetInCU: 0xAC9A6, offset: 0xAC9A6, size: 0x8, addend: 0x0, symName: __ZNSt3__112__tuple_leafILm0EN2pm25binary_transform_iteratorINS1_13iterator_pairINS1_19same_value_iteratorIRKNS1_8RationalEEENS1_14iterator_rangeINS1_17sequence_iteratorIlLb1EEEEEN8polymake5mlistIJNS1_20FeaturesViaSecondTagINSE_IJNS1_13end_sensitiveEEEEEEEEEEENS_4pairINS1_7nothingENS1_10operations6apply2INS1_12BuildUnaryItINSN_11dereferenceEEEvEEEELb0EEELb0EE3getB8ue170006Ev, symObjAddr: 0xFE04, symBinAddr: 0x1000111A0, symSize: 0x14 }
  - { offsetInCU: 0xAC9CC, offset: 0xAC9CC, size: 0x8, addend: 0x0, symName: __ZN2pm13iterator_pairINS_19same_value_iteratorIRKNS_8RationalEEENS_14iterator_rangeINS_17sequence_iteratorIlLb1EEEEEN8polymake5mlistIJNS_20FeaturesViaSecondTagINSB_IJNS_13end_sensitiveEEEEEEEEEEppEv, symObjAddr: 0xFE18, symBinAddr: 0x1000111B4, symSize: 0x38 }
  - { offsetInCU: 0xAC9F2, offset: 0xAC9F2, size: 0x8, addend: 0x0, symName: __ZN2pm19same_value_iteratorIRKNS_8RationalEEppEv, symObjAddr: 0xFE50, symBinAddr: 0x1000111EC, symSize: 0x14 }
  - { offsetInCU: 0xACA18, offset: 0xACA18, size: 0x8, addend: 0x0, symName: __ZN2pm14iterator_rangeINS_17sequence_iteratorIlLb1EEEEppEv, symObjAddr: 0xFE64, symBinAddr: 0x100011200, symSize: 0x2C }
  - { offsetInCU: 0xACA3E, offset: 0xACA3E, size: 0x8, addend: 0x0, symName: __ZN2pm17sequence_iteratorIlLb1EEppEv, symObjAddr: 0xFE90, symBinAddr: 0x10001122C, symSize: 0x20 }
  - { offsetInCU: 0xACA64, offset: 0xACA64, size: 0x8, addend: 0x0, symName: __ZN2pm14iterator_rangeINS_11ptr_wrapperIKNS_8RationalELb0EEEEppEv, symObjAddr: 0xFED8, symBinAddr: 0x100011274, symSize: 0x2C }
  - { offsetInCU: 0xACA8A, offset: 0xACA8A, size: 0x8, addend: 0x0, symName: __ZNSt3__112__tuple_leafILm1EN2pm14iterator_rangeINS1_11ptr_wrapperIKNS1_8RationalELb0EEEEELb0EE3getB8ue170006Ev, symObjAddr: 0xFF04, symBinAddr: 0x1000112A0, symSize: 0x14 }
  - { offsetInCU: 0xACAB0, offset: 0xACAB0, size: 0x8, addend: 0x0, symName: __ZN2pm11ptr_wrapperIKNS_8RationalELb0EEppEv, symObjAddr: 0xFF18, symBinAddr: 0x1000112B4, symSize: 0x20 }
  - { offsetInCU: 0xACAD6, offset: 0xACAD6, size: 0x8, addend: 0x0, symName: __ZN2pm4perl14type_cache_viaINS_11VectorChainIN8polymake5mlistIJKNS_17SameElementVectorIRKNS_8RationalEEEKNS_12IndexedSliceINS_10masqueradeINS_10ConcatRowsERKNS_11Matrix_baseIS6_EEEEKNS_6SeriesIlLb1EEENS4_IJEEEEEEEEEENS_6VectorIS6_EEE4initEP2svSV_SV_, symObjAddr: 0x10024, symBinAddr: 0x1000113C0, symSize: 0xAC }
  - { offsetInCU: 0xACB25, offset: 0xACB25, size: 0x8, addend: 0x0, symName: __ZN2pm4perl14type_cache_viaINS_11VectorChainIN8polymake5mlistIJKNS_17SameElementVectorIRKNS_8RationalEEEKNS_12IndexedSliceINS_10masqueradeINS_10ConcatRowsERKNS_11Matrix_baseIS6_EEEEKNS_6SeriesIlLb1EEENS4_IJEEEEEEEEEENS_6VectorIS6_EEE4initEP2svSV_, symObjAddr: 0x100D0, symBinAddr: 0x10001146C, symSize: 0xFC }
  - { offsetInCU: 0xACB66, offset: 0xACB66, size: 0x8, addend: 0x0, symName: __ZN2pm4perl10type_cacheINS_6VectorINS_8RationalEEEE9get_protoEP2sv, symObjAddr: 0x101CC, symBinAddr: 0x100011568, symSize: 0x34 }
  - { offsetInCU: 0xACB89, offset: 0xACB89, size: 0x8, addend: 0x0, symName: __ZN2pm4perl25ContainerClassRegistratorINS_11VectorChainIN8polymake5mlistIJKNS_17SameElementVectorIRKNS_8RationalEEEKNS_12IndexedSliceINS_10masqueradeINS_10ConcatRowsERKNS_11Matrix_baseIS6_EEEEKNS_6SeriesIlLb1EEENS4_IJEEEEEEEEEENSt3__126bidirectional_iterator_tagEE11register_itERKNS3_9AnyStringEP2svSY_SW_i, symObjAddr: 0x10200, symBinAddr: 0x10001159C, symSize: 0x74 }
  - { offsetInCU: 0xACBE9, offset: 0xACBE9, size: 0x8, addend: 0x0, symName: __ZN2pm4perl17type_cache_helperINS_6VectorINS_8RationalEEEvE4initEP2svS7_S7_, symObjAddr: 0x10360, symBinAddr: 0x1000116FC, symSize: 0x30 }
  - { offsetInCU: 0xACC2B, offset: 0xACC2B, size: 0x8, addend: 0x0, symName: __ZN2pm4perl17type_cache_helperINS_6VectorINS_8RationalEEEvE4initEP2svS7_, symObjAddr: 0x10390, symBinAddr: 0x10001172C, symSize: 0x84 }
  - { offsetInCU: 0xACC7A, offset: 0xACC7A, size: 0x8, addend: 0x0, symName: __ZN2pm4perl19PropertyTypeBuilder5buildIJNS_8RationalEELb1EEEP2svRKN8polymake9AnyStringERKNS6_5mlistIJDpT_EEENSt3__117integral_constantIbXT0_EEE, symObjAddr: 0x1048C, symBinAddr: 0x100011828, symSize: 0x100 }
  - { offsetInCU: 0xACCF5, offset: 0xACCF5, size: 0x8, addend: 0x0, symName: __ZN8polymake9AnyStringC1ILm25EEERAT__Kc, symObjAddr: 0x1058C, symBinAddr: 0x100011928, symSize: 0x34 }
  - { offsetInCU: 0xACD37, offset: 0xACD37, size: 0x8, addend: 0x0, symName: __ZN2pm4perl7FunCall10push_typesIJNS_8RationalEEEEvRKN8polymake5mlistIJDpT_EEE, symObjAddr: 0x105C0, symBinAddr: 0x10001195C, symSize: 0x54 }
  - { offsetInCU: 0xACD73, offset: 0xACD73, size: 0x8, addend: 0x0, symName: __ZN2pm4perl7FunCall9push_typeEP2sv, symObjAddr: 0x10614, symBinAddr: 0x1000119B0, symSize: 0x9C }
  - { offsetInCU: 0xACDA8, offset: 0xACDA8, size: 0x8, addend: 0x0, symName: __ZN2pm4perl10type_cacheINS_8RationalEE9get_protoEP2sv, symObjAddr: 0x106B0, symBinAddr: 0x100011A4C, symSize: 0x34 }
  - { offsetInCU: 0xACDCB, offset: 0xACDCB, size: 0x8, addend: 0x0, symName: __ZN2pm4perl9UndefinedD1Ev, symObjAddr: 0x106E4, symBinAddr: 0x100011A80, symSize: 0x2C }
  - { offsetInCU: 0xACDF7, offset: 0xACDF7, size: 0x8, addend: 0x0, symName: __ZN2pm4perl9UndefinedD2Ev, symObjAddr: 0x10710, symBinAddr: 0x100011AAC, symSize: 0x2C }
  - { offsetInCU: 0xACE23, offset: 0xACE23, size: 0x8, addend: 0x0, symName: __ZN8polymake9AnyStringC2ILm25EEERAT__Kc, symObjAddr: 0x1073C, symBinAddr: 0x100011AD8, symSize: 0x28 }
  - { offsetInCU: 0xACE65, offset: 0xACE65, size: 0x8, addend: 0x0, symName: __ZN2pm4perl25ContainerClassRegistratorINS_11VectorChainIN8polymake5mlistIJKNS_17SameElementVectorIRKNS_8RationalEEEKNS_12IndexedSliceINS_10masqueradeINS_10ConcatRowsERKNS_11Matrix_baseIS6_EEEEKNS_6SeriesIlLb1EEENS4_IJEEEEEEEEEENSt3__120forward_iterator_tagEE11register_meERKNS3_9AnyStringESW_iP2svSY_SY_, symObjAddr: 0x10764, symBinAddr: 0x100011B00, symSize: 0xD4 }
  - { offsetInCU: 0xACED4, offset: 0xACED4, size: 0x8, addend: 0x0, symName: __ZN2pm4perl25ContainerClassRegistratorINS_11VectorChainIN8polymake5mlistIJKNS_17SameElementVectorIRKNS_8RationalEEEKNS_12IndexedSliceINS_10masqueradeINS_10ConcatRowsERKNS_11Matrix_baseIS6_EEEEKNS_6SeriesIlLb1EEENS4_IJEEEEEEEEEENSt3__126bidirectional_iterator_tagEE11create_vtblEv, symObjAddr: 0x10838, symBinAddr: 0x100011BD4, symSize: 0x1C }
  - { offsetInCU: 0xACEFC, offset: 0xACEFC, size: 0x8, addend: 0x0, symName: __ZNKSt9type_info4nameB8ue170006Ev, symObjAddr: 0x10854, symBinAddr: 0x100011BF0, symSize: 0x24 }
  - { offsetInCU: 0xACF42, offset: 0xACF42, size: 0x8, addend: 0x0, symName: __ZN2pm4perl12SerializableINS_11VectorChainIN8polymake5mlistIJKNS_17SameElementVectorIRKNS_8RationalEEEKNS_12IndexedSliceINS_10masqueradeINS_10ConcatRowsERKNS_11Matrix_baseIS6_EEEEKNS_6SeriesIlLb1EEENS4_IJEEEEEEEEEEvE10flag_valueEv, symObjAddr: 0x10898, symBinAddr: 0x100011C34, symSize: 0x8 }
  - { offsetInCU: 0xACF56, offset: 0xACF56, size: 0x8, addend: 0x0, symName: __ZN2pm4perl20ClassRegistratorBase12ordered_flagINS_11VectorChainIN8polymake5mlistIJKNS_17SameElementVectorIRKNS_8RationalEEEKNS_12IndexedSliceINS_10masqueradeINS_10ConcatRowsERKNS_11Matrix_baseIS7_EEEEKNS_6SeriesIlLb1EEENS5_IJEEEEEEEEEEEENS0_10ClassFlagsEv, symObjAddr: 0x108A0, symBinAddr: 0x100011C3C, symSize: 0x8 }
  - { offsetInCU: 0xACF74, offset: 0xACF74, size: 0x8, addend: 0x0, symName: __ZN2pm4perl25ContainerClassRegistratorINS_11VectorChainIN8polymake5mlistIJKNS_17SameElementVectorIRKNS_8RationalEEEKNS_12IndexedSliceINS_10masqueradeINS_10ConcatRowsERKNS_11Matrix_baseIS6_EEEEKNS_6SeriesIlLb1EEENS4_IJEEEEEEEEEENSt3__126bidirectional_iterator_tagEE11create_vtblENSR_17integral_constantIbLb0EEE, symObjAddr: 0x108A8, symBinAddr: 0x100011C44, symSize: 0x90 }
  - { offsetInCU: 0xACFA3, offset: 0xACFA3, size: 0x8, addend: 0x0, symName: __ZN2pm4perl25ContainerClassRegistratorINS_11VectorChainIN8polymake5mlistIJKNS_17SameElementVectorIRKNS_8RationalEEEKNS_12IndexedSliceINS_10masqueradeINS_10ConcatRowsERKNS_11Matrix_baseIS6_EEEEKNS_6SeriesIlLb1EEENS4_IJEEEEEEEEEENSt3__120forward_iterator_tagEE11create_vtblEv, symObjAddr: 0x10938, symBinAddr: 0x100011CD4, symSize: 0x140 }
  - { offsetInCU: 0xACFC7, offset: 0xACFC7, size: 0x8, addend: 0x0, symName: __ZN2pm4perl25ContainerClassRegistratorINS_11VectorChainIN8polymake5mlistIJKNS_17SameElementVectorIRKNS_8RationalEEEKNS_12IndexedSliceINS_10masqueradeINS_10ConcatRowsERKNS_11Matrix_baseIS6_EEEEKNS_6SeriesIlLb1EEENS4_IJEEEEEEEEEENSt3__126bidirectional_iterator_tagEE14rit_destructorENSR_17integral_constantIbLb0EEE, symObjAddr: 0x10A78, symBinAddr: 0x100011E14, symSize: 0x1C }
  - { offsetInCU: 0xACFE7, offset: 0xACFE7, size: 0x8, addend: 0x0, symName: __ZN2pm4perl25ContainerClassRegistratorINS_11VectorChainIN8polymake5mlistIJKNS_17SameElementVectorIRKNS_8RationalEEEKNS_12IndexedSliceINS_10masqueradeINS_10ConcatRowsERKNS_11Matrix_baseIS6_EEEEKNS_6SeriesIlLb1EEENS4_IJEEEEEEEEEENSt3__126bidirectional_iterator_tagEE6rbeginENSR_17integral_constantIbLb0EEE, symObjAddr: 0x10A94, symBinAddr: 0x100011E30, symSize: 0x14 }
  - { offsetInCU: 0xAD007, offset: 0xAD007, size: 0x8, addend: 0x0, symName: __ZN2pm4perl25ContainerClassRegistratorINS_11VectorChainIN8polymake5mlistIJKNS_17SameElementVectorIRKNS_8RationalEEEKNS_12IndexedSliceINS_10masqueradeINS_10ConcatRowsERKNS_11Matrix_baseIS6_EEEEKNS_6SeriesIlLb1EEENS4_IJEEEEEEEEEENSt3__126bidirectional_iterator_tagEE6rderefENSR_17integral_constantIbLb0EEESV_, symObjAddr: 0x10AA8, symBinAddr: 0x100011E44, symSize: 0x14 }
  - { offsetInCU: 0xAD032, offset: 0xAD032, size: 0x8, addend: 0x0, symName: __ZN2pm4perl4CopyINS_11VectorChainIN8polymake5mlistIJKNS_17SameElementVectorIRKNS_8RationalEEEKNS_12IndexedSliceINS_10masqueradeINS_10ConcatRowsERKNS_11Matrix_baseIS6_EEEEKNS_6SeriesIlLb1EEENS4_IJEEEEEEEEEEvE4funcEv, symObjAddr: 0x10ABC, symBinAddr: 0x100011E58, symSize: 0x8 }
  - { offsetInCU: 0xAD046, offset: 0xAD046, size: 0x8, addend: 0x0, symName: __ZN2pm4perl6AssignINS_11VectorChainIN8polymake5mlistIJKNS_17SameElementVectorIRKNS_8RationalEEEKNS_12IndexedSliceINS_10masqueradeINS_10ConcatRowsERKNS_11Matrix_baseIS6_EEEEKNS_6SeriesIlLb1EEENS4_IJEEEEEEEEEEvE4funcEv, symObjAddr: 0x10AC4, symBinAddr: 0x100011E60, symSize: 0x8 }
  - { offsetInCU: 0xAD05A, offset: 0xAD05A, size: 0x8, addend: 0x0, symName: __ZN2pm4perl7DestroyINS_11VectorChainIN8polymake5mlistIJKNS_17SameElementVectorIRKNS_8RationalEEEKNS_12IndexedSliceINS_10masqueradeINS_10ConcatRowsERKNS_11Matrix_baseIS6_EEEEKNS_6SeriesIlLb1EEENS4_IJEEEEEEEEEEvE4funcEv, symObjAddr: 0x10ACC, symBinAddr: 0x100011E68, symSize: 0xC }
  - { offsetInCU: 0xAD079, offset: 0xAD079, size: 0x8, addend: 0x0, symName: __ZN2pm4perl8ToStringINS_11VectorChainIN8polymake5mlistIJKNS_17SameElementVectorIRKNS_8RationalEEEKNS_12IndexedSliceINS_10masqueradeINS_10ConcatRowsERKNS_11Matrix_baseIS6_EEEEKNS_6SeriesIlLb1EEENS4_IJEEEEEEEEEEvE4funcEv, symObjAddr: 0x10AD8, symBinAddr: 0x100011E74, symSize: 0xC }
  - { offsetInCU: 0xAD08D, offset: 0xAD08D, size: 0x8, addend: 0x0, symName: __ZN2pm4perl12SerializableINS_11VectorChainIN8polymake5mlistIJKNS_17SameElementVectorIRKNS_8RationalEEEKNS_12IndexedSliceINS_10masqueradeINS_10ConcatRowsERKNS_11Matrix_baseIS6_EEEEKNS_6SeriesIlLb1EEENS4_IJEEEEEEEEEEvE4convEv, symObjAddr: 0x10AE4, symBinAddr: 0x100011E80, symSize: 0x8 }
  - { offsetInCU: 0xAD0A1, offset: 0xAD0A1, size: 0x8, addend: 0x0, symName: __ZN2pm4perl12SerializableINS_11VectorChainIN8polymake5mlistIJKNS_17SameElementVectorIRKNS_8RationalEEEKNS_12IndexedSliceINS_10masqueradeINS_10ConcatRowsERKNS_11Matrix_baseIS6_EEEEKNS_6SeriesIlLb1EEENS4_IJEEEEEEEEEEvE7provideEv, symObjAddr: 0x10AEC, symBinAddr: 0x100011E88, symSize: 0x8 }
  - { offsetInCU: 0xAD0B5, offset: 0xAD0B5, size: 0x8, addend: 0x0, symName: __ZN2pm4perl25ContainerClassRegistratorINS_11VectorChainIN8polymake5mlistIJKNS_17SameElementVectorIRKNS_8RationalEEEKNS_12IndexedSliceINS_10masqueradeINS_10ConcatRowsERKNS_11Matrix_baseIS6_EEEEKNS_6SeriesIlLb1EEENS4_IJEEEEEEEEEENSt3__120forward_iterator_tagEE4sizeENSR_17integral_constantIbLb0EEE, symObjAddr: 0x10AF4, symBinAddr: 0x100011E90, symSize: 0x14 }
  - { offsetInCU: 0xAD0D5, offset: 0xAD0D5, size: 0x8, addend: 0x0, symName: __ZN2pm4perl25ContainerClassRegistratorINS_11VectorChainIN8polymake5mlistIJKNS_17SameElementVectorIRKNS_8RationalEEEKNS_12IndexedSliceINS_10masqueradeINS_10ConcatRowsERKNS_11Matrix_baseIS6_EEEEKNS_6SeriesIlLb1EEENS4_IJEEEEEEEEEENSt3__120forward_iterator_tagEE6resizeENSR_17integral_constantIbLb0EEE, symObjAddr: 0x10B08, symBinAddr: 0x100011EA4, symSize: 0x10 }
  - { offsetInCU: 0xAD0F5, offset: 0xAD0F5, size: 0x8, addend: 0x0, symName: __ZN2pm4perl25ContainerClassRegistratorINS_11VectorChainIN8polymake5mlistIJKNS_17SameElementVectorIRKNS_8RationalEEEKNS_12IndexedSliceINS_10masqueradeINS_10ConcatRowsERKNS_11Matrix_baseIS6_EEEEKNS_6SeriesIlLb1EEENS4_IJEEEEEEEEEENSt3__120forward_iterator_tagEE12store_at_refENSR_17integral_constantIbLb0EEE, symObjAddr: 0x10B18, symBinAddr: 0x100011EB4, symSize: 0x10 }
  - { offsetInCU: 0xAD115, offset: 0xAD115, size: 0x8, addend: 0x0, symName: __ZN2pm4perl25ContainerClassRegistratorINS_11VectorChainIN8polymake5mlistIJKNS_17SameElementVectorIRKNS_8RationalEEEKNS_12IndexedSliceINS_10masqueradeINS_10ConcatRowsERKNS_11Matrix_baseIS6_EEEEKNS_6SeriesIlLb1EEENS4_IJEEEEEEEEEENSt3__120forward_iterator_tagEE16provide_key_typeENSR_17integral_constantIbLb0EEE, symObjAddr: 0x10B28, symBinAddr: 0x100011EC4, symSize: 0x14 }
  - { offsetInCU: 0xAD135, offset: 0xAD135, size: 0x8, addend: 0x0, symName: __ZN2pm4perl25ContainerClassRegistratorINS_11VectorChainIN8polymake5mlistIJKNS_17SameElementVectorIRKNS_8RationalEEEKNS_12IndexedSliceINS_10masqueradeINS_10ConcatRowsERKNS_11Matrix_baseIS6_EEEEKNS_6SeriesIlLb1EEENS4_IJEEEEEEEEEENSt3__120forward_iterator_tagEE18provide_value_typeENSR_17integral_constantIbLb0EEE, symObjAddr: 0x10B3C, symBinAddr: 0x100011ED8, symSize: 0x14 }
  - { offsetInCU: 0xAD155, offset: 0xAD155, size: 0x8, addend: 0x0, symName: __ZN2pm4perl25ContainerClassRegistratorINS_11VectorChainIN8polymake5mlistIJKNS_17SameElementVectorIRKNS_8RationalEEEKNS_12IndexedSliceINS_10masqueradeINS_10ConcatRowsERKNS_11Matrix_baseIS6_EEEEKNS_6SeriesIlLb1EEENS4_IJEEEEEEEEEENSt3__120forward_iterator_tagEE13it_destructorENSR_17integral_constantIbLb0EEE, symObjAddr: 0x10B50, symBinAddr: 0x100011EEC, symSize: 0x1C }
  - { offsetInCU: 0xAD175, offset: 0xAD175, size: 0x8, addend: 0x0, symName: __ZN2pm4perl25ContainerClassRegistratorINS_11VectorChainIN8polymake5mlistIJKNS_17SameElementVectorIRKNS_8RationalEEEKNS_12IndexedSliceINS_10masqueradeINS_10ConcatRowsERKNS_11Matrix_baseIS6_EEEEKNS_6SeriesIlLb1EEENS4_IJEEEEEEEEEENSt3__120forward_iterator_tagEE5beginENSR_17integral_constantIbLb0EEE, symObjAddr: 0x10B6C, symBinAddr: 0x100011F08, symSize: 0x14 }
  - { offsetInCU: 0xAD195, offset: 0xAD195, size: 0x8, addend: 0x0, symName: __ZN2pm4perl25ContainerClassRegistratorINS_11VectorChainIN8polymake5mlistIJKNS_17SameElementVectorIRKNS_8RationalEEEKNS_12IndexedSliceINS_10masqueradeINS_10ConcatRowsERKNS_11Matrix_baseIS6_EEEEKNS_6SeriesIlLb1EEENS4_IJEEEEEEEEEENSt3__120forward_iterator_tagEE5derefENSR_17integral_constantIbLb0EEESV_SV_, symObjAddr: 0x10B80, symBinAddr: 0x100011F1C, symSize: 0x14 }
  - { offsetInCU: 0xAD1CB, offset: 0xAD1CB, size: 0x8, addend: 0x0, symName: __ZN2pm4perl7DestroyINS_11VectorChainIN8polymake5mlistIJKNS_17SameElementVectorIRKNS_8RationalEEEKNS_12IndexedSliceINS_10masqueradeINS_10ConcatRowsERKNS_11Matrix_baseIS6_EEEEKNS_6SeriesIlLb1EEENS4_IJEEEEEEEEEEvE4implEPc, symObjAddr: 0x10B94, symBinAddr: 0x100011F30, symSize: 0x2C }
  - { offsetInCU: 0xAD1FD, offset: 0xAD1FD, size: 0x8, addend: 0x0, symName: __ZN2pm4perl8ToStringINS_11VectorChainIN8polymake5mlistIJKNS_17SameElementVectorIRKNS_8RationalEEEKNS_12IndexedSliceINS_10masqueradeINS_10ConcatRowsERKNS_11Matrix_baseIS6_EEEEKNS_6SeriesIlLb1EEENS4_IJEEEEEEEEEEvE4implEPKc, symObjAddr: 0x10BC0, symBinAddr: 0x100011F5C, symSize: 0x2C }
  - { offsetInCU: 0xAD22F, offset: 0xAD22F, size: 0x8, addend: 0x0, symName: __ZN2pm4perl8ToStringINS_11VectorChainIN8polymake5mlistIJKNS_17SameElementVectorIRKNS_8RationalEEEKNS_12IndexedSliceINS_10masqueradeINS_10ConcatRowsERKNS_11Matrix_baseIS6_EEEEKNS_6SeriesIlLb1EEENS4_IJEEEEEEEEEEvE9to_stringERKSQ_, symObjAddr: 0x10BEC, symBinAddr: 0x100011F88, symSize: 0xAC }
  - { offsetInCU: 0xAD280, offset: 0xAD280, size: 0x8, addend: 0x0, symName: __ZN2pm12PlainPrinterIN8polymake5mlistIJEEENSt3__111char_traitsIcEEEC1ERNS4_13basic_ostreamIcS6_EE, symObjAddr: 0x10C98, symBinAddr: 0x100012034, symSize: 0x34 }
  - { offsetInCU: 0xAD2B8, offset: 0xAD2B8, size: 0x8, addend: 0x0, symName: __ZN2pm17GenericOutputImplINS_12PlainPrinterIN8polymake5mlistIJEEENSt3__111char_traitsIcEEEEElsINS_11VectorChainINS3_IJKNS_17SameElementVectorIRKNS_8RationalEEEKNS_12IndexedSliceINS_10masqueradeINS_10ConcatRowsERKNS_11Matrix_baseISD_EEEEKNS_6SeriesIlLb1EEES4_EEEEEEEEERS8_RKT_, symObjAddr: 0x10CCC, symBinAddr: 0x100012068, symSize: 0x44 }
  - { offsetInCU: 0xAD2F6, offset: 0xAD2F6, size: 0x8, addend: 0x0, symName: __ZN2pm12PlainPrinterIN8polymake5mlistIJEEENSt3__111char_traitsIcEEEC2ERNS4_13basic_ostreamIcS6_EE, symObjAddr: 0x10D10, symBinAddr: 0x1000120AC, symSize: 0x20 }
  - { offsetInCU: 0xAD32E, offset: 0xAD32E, size: 0x8, addend: 0x0, symName: __ZN2pm17GenericOutputImplINS_12PlainPrinterIN8polymake5mlistIJEEENSt3__111char_traitsIcEEEEE19dispatch_generic_ioINS_11VectorChainINS3_IJKNS_17SameElementVectorIRKNS_8RationalEEEKNS_12IndexedSliceINS_10masqueradeINS_10ConcatRowsERKNS_11Matrix_baseISD_EEEEKNS_6SeriesIlLb1EEES4_EEEEEEEEEvRKT_NS5_17integral_constantIbLb0EEE, symObjAddr: 0x10D30, symBinAddr: 0x1000120CC, symSize: 0x2C }
  - { offsetInCU: 0xAD377, offset: 0xAD377, size: 0x8, addend: 0x0, symName: __ZN2pm13GenericOutputINS_12PlainPrinterIN8polymake5mlistIJEEENSt3__111char_traitsIcEEEEE3topEv, symObjAddr: 0x10D5C, symBinAddr: 0x1000120F8, symSize: 0x14 }
  - { offsetInCU: 0xAD39D, offset: 0xAD39D, size: 0x8, addend: 0x0, symName: __ZN2pm17GenericOutputImplINS_12PlainPrinterIN8polymake5mlistIJEEENSt3__111char_traitsIcEEEEE19dispatch_serializedINS_11VectorChainINS3_IJKNS_17SameElementVectorIRKNS_8RationalEEEKNS_12IndexedSliceINS_10masqueradeINS_10ConcatRowsERKNS_11Matrix_baseISD_EEEEKNS_6SeriesIlLb1EEES4_EEEEEEEEEvRKT_NS5_17integral_constantIbLb0EEENS10_IbLb1EEE, symObjAddr: 0x10D70, symBinAddr: 0x10001210C, symSize: 0x2C }
  - { offsetInCU: 0xAD3F1, offset: 0xAD3F1, size: 0x8, addend: 0x0, symName: __ZN2pm17GenericOutputImplINS_12PlainPrinterIN8polymake5mlistIJEEENSt3__111char_traitsIcEEEEE14dispatch_storeINS_11VectorChainINS3_IJKNS_17SameElementVectorIRKNS_8RationalEEEKNS_12IndexedSliceINS_10masqueradeINS_10ConcatRowsERKNS_11Matrix_baseISD_EEEEKNS_6SeriesIlLb1EEES4_EEEEEEEEEvRKT_NS_12is_containerE, symObjAddr: 0x10D9C, symBinAddr: 0x100012138, symSize: 0x2C }
  - { offsetInCU: 0xAD43A, offset: 0xAD43A, size: 0x8, addend: 0x0, symName: __ZN2pm17GenericOutputImplINS_12PlainPrinterIN8polymake5mlistIJEEENSt3__111char_traitsIcEEEEE18dispatch_containerINS_11VectorChainINS3_IJKNS_17SameElementVectorIRKNS_8RationalEEEKNS_12IndexedSliceINS_10masqueradeINS_10ConcatRowsERKNS_11Matrix_baseISD_EEEEKNS_6SeriesIlLb1EEES4_EEEEEEEEEvRKT_NS5_17integral_constantIiLi1EEE, symObjAddr: 0x10DC8, symBinAddr: 0x100012164, symSize: 0x2C }
  - { offsetInCU: 0xAD483, offset: 0xAD483, size: 0x8, addend: 0x0, symName: __ZN2pm17GenericOutputImplINS_12PlainPrinterIN8polymake5mlistIJEEENSt3__111char_traitsIcEEEEE15store_containerINS_11VectorChainINS3_IJKNS_17SameElementVectorIRKNS_8RationalEEEKNS_12IndexedSliceINS_10masqueradeINS_10ConcatRowsERKNS_11Matrix_baseISD_EEEEKNS_6SeriesIlLb1EEES4_EEEEEEEEEvRKT_NS5_17integral_constantIbLb0EEE, symObjAddr: 0x10DF4, symBinAddr: 0x100012190, symSize: 0x2C }
  - { offsetInCU: 0xAD4CC, offset: 0xAD4CC, size: 0x8, addend: 0x0, symName: __ZN2pm17GenericOutputImplINS_12PlainPrinterIN8polymake5mlistIJEEENSt3__111char_traitsIcEEEEE10store_listINS_11VectorChainINS3_IJKNS_17SameElementVectorIRKNS_8RationalEEEKNS_12IndexedSliceINS_10masqueradeINS_10ConcatRowsERKNS_11Matrix_baseISD_EEEEKNS_6SeriesIlLb1EEES4_EEEEEEEEEvRKT_, symObjAddr: 0x10E20, symBinAddr: 0x1000121BC, symSize: 0x2C }
  - { offsetInCU: 0xAD50A, offset: 0xAD50A, size: 0x8, addend: 0x0, symName: __ZN2pm17GenericOutputImplINS_12PlainPrinterIN8polymake5mlistIJEEENSt3__111char_traitsIcEEEEE13store_list_asINS_11VectorChainINS3_IJKNS_17SameElementVectorIRKNS_8RationalEEEKNS_12IndexedSliceINS_10masqueradeINS_10ConcatRowsERKNS_11Matrix_baseISD_EEEEKNS_6SeriesIlLb1EEES4_EEEEEEESW_EEvRKT0_, symObjAddr: 0x10E4C, symBinAddr: 0x1000121E8, symSize: 0xCC }
  - { offsetInCU: 0xAD580, offset: 0xAD580, size: 0x8, addend: 0x0, symName: __ZNK2pm12PlainPrinterIN8polymake5mlistIJEEENSt3__111char_traitsIcEEE10begin_listIKNS_11VectorChainINS2_IJKNS_17SameElementVectorIRKNS_8RationalEEEKNS_12IndexedSliceINS_10masqueradeINS_10ConcatRowsERKNS_11Matrix_baseISB_EEEEKNS_6SeriesIlLb1EEES3_EEEEEEEEENS7_11list_cursorIT_E4typeEPSX_, symObjAddr: 0x10F18, symBinAddr: 0x1000122B4, symSize: 0x40 }
  - { offsetInCU: 0xAD5B9, offset: 0xAD5B9, size: 0x8, addend: 0x0, symName: __ZN2pm27PlainPrinterCompositeCursorIN8polymake5mlistIJNS_13SeparatorCharINSt3__117integral_constantIcLc32EEEEENS_14ClosingBracketINS5_IcLc0EEEEENS_14OpeningBracketIS9_EEEEENS4_11char_traitsIcEEElsINS_8RationalEEERSG_RKT_, symObjAddr: 0x10F58, symBinAddr: 0x1000122F4, symSize: 0xD4 }
  - { offsetInCU: 0xAD5F6, offset: 0xAD5F6, size: 0x8, addend: 0x0, symName: __ZN2pm27PlainPrinterCompositeCursorIN8polymake5mlistIJNS_13SeparatorCharINSt3__117integral_constantIcLc32EEEEENS_14ClosingBracketINS5_IcLc0EEEEENS_14OpeningBracketIS9_EEEEENS4_11char_traitsIcEEE6finishEv, symObjAddr: 0x1102C, symBinAddr: 0x1000123C8, symSize: 0x18 }
  - { offsetInCU: 0xAD61C, offset: 0xAD61C, size: 0x8, addend: 0x0, symName: __ZN2pm27PlainPrinterCompositeCursorIN8polymake5mlistIJNS_13SeparatorCharINSt3__117integral_constantIcLc32EEEEENS_14ClosingBracketINS5_IcLc0EEEEENS_14OpeningBracketIS9_EEEEENS4_11char_traitsIcEEEC1ERNS4_13basic_ostreamIcSF_EEb, symObjAddr: 0x11044, symBinAddr: 0x1000123E0, symSize: 0x48 }
  - { offsetInCU: 0xAD662, offset: 0xAD662, size: 0x8, addend: 0x0, symName: __ZN2pm27PlainPrinterCompositeCursorIN8polymake5mlistIJNS_13SeparatorCharINSt3__117integral_constantIcLc32EEEEENS_14ClosingBracketINS5_IcLc0EEEEENS_14OpeningBracketIS9_EEEEENS4_11char_traitsIcEEEC2ERNS4_13basic_ostreamIcSF_EEb, symObjAddr: 0x1108C, symBinAddr: 0x100012428, symSize: 0x60 }
  - { offsetInCU: 0xAD6A8, offset: 0xAD6A8, size: 0x8, addend: 0x0, symName: __ZN2pm12PlainPrinterIN8polymake5mlistIJNS_13SeparatorCharINSt3__117integral_constantIcLc32EEEEENS_14ClosingBracketINS5_IcLc0EEEEENS_14OpeningBracketIS9_EEEEENS4_11char_traitsIcEEEC2ERNS4_13basic_ostreamIcSF_EE, symObjAddr: 0x110EC, symBinAddr: 0x100012488, symSize: 0x20 }
  - { offsetInCU: 0xAD6E6, offset: 0xAD6E6, size: 0x8, addend: 0x0, symName: __ZN2pm17GenericOutputImplINS_12PlainPrinterIN8polymake5mlistIJNS_13SeparatorCharINSt3__117integral_constantIcLc32EEEEENS_14ClosingBracketINS6_IcLc0EEEEENS_14OpeningBracketISA_EEEEENS5_11char_traitsIcEEEEElsINS_8RationalEEERSH_RKT_, symObjAddr: 0x111AC, symBinAddr: 0x100012548, symSize: 0x44 }
  - { offsetInCU: 0xAD741, offset: 0xAD741, size: 0x8, addend: 0x0, symName: __ZNKSt3__113basic_ostreamIcNS_11char_traitsIcEEE6sentrycvbB8ue170006Ev, symObjAddr: 0x113D0, symBinAddr: 0x10001276C, symSize: 0x1C }
  - { offsetInCU: 0xAD767, offset: 0xAD767, size: 0x8, addend: 0x0, symName: __ZNSt3__119ostreambuf_iteratorIcNS_11char_traitsIcEEEC1B8ue170006ERNS_13basic_ostreamIcS2_EE, symObjAddr: 0x1162C, symBinAddr: 0x1000129C8, symSize: 0x34 }
  - { offsetInCU: 0xAD79F, offset: 0xAD79F, size: 0x8, addend: 0x0, symName: __ZNKSt3__19basic_iosIcNS_11char_traitsIcEEE4fillB8ue170006Ev, symObjAddr: 0x11660, symBinAddr: 0x1000129FC, symSize: 0x64 }
  - { offsetInCU: 0xAD7C7, offset: 0xAD7C7, size: 0x8, addend: 0x0, symName: __ZNKSt3__119ostreambuf_iteratorIcNS_11char_traitsIcEEE6failedB8ue170006Ev, symObjAddr: 0x116C4, symBinAddr: 0x100012A60, symSize: 0x24 }
  - { offsetInCU: 0xAD7ED, offset: 0xAD7ED, size: 0x8, addend: 0x0, symName: __ZNSt3__19basic_iosIcNS_11char_traitsIcEEE8setstateB8ue170006Ej, symObjAddr: 0x116E8, symBinAddr: 0x100012A84, symSize: 0x2C }
  - { offsetInCU: 0xAD822, offset: 0xAD822, size: 0x8, addend: 0x0, symName: __ZNSt3__115basic_streambufIcNS_11char_traitsIcEEE5sputnB8ue170006EPKcl, symObjAddr: 0x11714, symBinAddr: 0x100012AB0, symSize: 0x3C }
  - { offsetInCU: 0xAD864, offset: 0xAD864, size: 0x8, addend: 0x0, symName: __ZNSt3__112basic_stringIcNS_11char_traitsIcEENS_9allocatorIcEEEC1B8ue170006Emc, symObjAddr: 0x11750, symBinAddr: 0x100012AEC, symSize: 0x3C }
  - { offsetInCU: 0xAD8AC, offset: 0xAD8AC, size: 0x8, addend: 0x0, symName: __ZNKSt3__112basic_stringIcNS_11char_traitsIcEENS_9allocatorIcEEE4dataB8ue170006Ev, symObjAddr: 0x1178C, symBinAddr: 0x100012B28, symSize: 0x28 }
  - { offsetInCU: 0xAD8D2, offset: 0xAD8D2, size: 0x8, addend: 0x0, symName: __ZNSt3__112basic_stringIcNS_11char_traitsIcEENS_9allocatorIcEEEC2B8ue170006Emc, symObjAddr: 0x117B4, symBinAddr: 0x100012B50, symSize: 0x4C }
  - { offsetInCU: 0xAD91A, offset: 0xAD91A, size: 0x8, addend: 0x0, symName: __ZNKSt3__112basic_stringIcNS_11char_traitsIcEENS_9allocatorIcEEE13__get_pointerB8ue170006Ev, symObjAddr: 0x11814, symBinAddr: 0x100012BB0, symSize: 0x54 }
  - { offsetInCU: 0xAD940, offset: 0xAD940, size: 0x8, addend: 0x0, symName: __ZNKSt3__112basic_stringIcNS_11char_traitsIcEENS_9allocatorIcEEE9__is_longB8ue170006Ev, symObjAddr: 0x11868, symBinAddr: 0x100012C04, symSize: 0x38 }
  - { offsetInCU: 0xAD966, offset: 0xAD966, size: 0x8, addend: 0x0, symName: __ZNKSt3__112basic_stringIcNS_11char_traitsIcEENS_9allocatorIcEEE18__get_long_pointerB8ue170006Ev, symObjAddr: 0x118A0, symBinAddr: 0x100012C3C, symSize: 0x28 }
  - { offsetInCU: 0xAD98C, offset: 0xAD98C, size: 0x8, addend: 0x0, symName: __ZNKSt3__112basic_stringIcNS_11char_traitsIcEENS_9allocatorIcEEE19__get_short_pointerB8ue170006Ev, symObjAddr: 0x118C8, symBinAddr: 0x100012C64, symSize: 0x28 }
  - { offsetInCU: 0xAD9B2, offset: 0xAD9B2, size: 0x8, addend: 0x0, symName: __ZNKSt3__117__compressed_pairINS_12basic_stringIcNS_11char_traitsIcEENS_9allocatorIcEEE5__repES5_E5firstB8ue170006Ev, symObjAddr: 0x118F0, symBinAddr: 0x100012C8C, symSize: 0x24 }
  - { offsetInCU: 0xAD9D8, offset: 0xAD9D8, size: 0x8, addend: 0x0, symName: __ZNKSt3__122__compressed_pair_elemINS_12basic_stringIcNS_11char_traitsIcEENS_9allocatorIcEEE5__repELi0ELb0EE5__getB8ue170006Ev, symObjAddr: 0x11914, symBinAddr: 0x100012CB0, symSize: 0x14 }
  - { offsetInCU: 0xAD9FE, offset: 0xAD9FE, size: 0x8, addend: 0x0, symName: __ZNSt3__114pointer_traitsIPKcE10pointer_toB8ue170006ERS1_, symObjAddr: 0x11928, symBinAddr: 0x100012CC4, symSize: 0x14 }
  - { offsetInCU: 0xADA21, offset: 0xADA21, size: 0x8, addend: 0x0, symName: __ZNSt3__119ostreambuf_iteratorIcNS_11char_traitsIcEEEC2B8ue170006ERNS_13basic_ostreamIcS2_EE, symObjAddr: 0x1193C, symBinAddr: 0x100012CD8, symSize: 0x54 }
  - { offsetInCU: 0xADA59, offset: 0xADA59, size: 0x8, addend: 0x0, symName: __ZNSt3__111char_traitsIcE11eq_int_typeB8ue170006Eii, symObjAddr: 0x11990, symBinAddr: 0x100012D2C, symSize: 0x28 }
  - { offsetInCU: 0xADA8C, offset: 0xADA8C, size: 0x8, addend: 0x0, symName: __ZNKSt3__19basic_iosIcNS_11char_traitsIcEEE5widenB8ue170006Ec, symObjAddr: 0x119B8, symBinAddr: 0x100012D54, symSize: 0x84 }
  - { offsetInCU: 0xADAFC, offset: 0xADAFC, size: 0x8, addend: 0x0, symName: __ZNKSt3__15ctypeIcE5widenB8ue170006Ec, symObjAddr: 0x11A68, symBinAddr: 0x100012E04, symSize: 0x38 }
  - { offsetInCU: 0xADB31, offset: 0xADB31, size: 0x8, addend: 0x0, symName: __ZNSt3__18ios_base8setstateB8ue170006Ej, symObjAddr: 0x11AA0, symBinAddr: 0x100012E3C, symSize: 0x34 }
  - { offsetInCU: 0xADB68, offset: 0xADB68, size: 0x8, addend: 0x0, symName: __ZNSt3__18__iom_t6C1B8ue170006Ei, symObjAddr: 0x11AD4, symBinAddr: 0x100012E70, symSize: 0x34 }
  - { offsetInCU: 0xADBA0, offset: 0xADBA0, size: 0x8, addend: 0x0, symName: __ZNSt3__18__iom_t6C2B8ue170006Ei, symObjAddr: 0x11B08, symBinAddr: 0x100012EA4, symSize: 0x20 }
  - { offsetInCU: 0xADBD8, offset: 0xADBD8, size: 0x8, addend: 0x0, symName: __ZN2pm17GenericOutputImplINS_12PlainPrinterIN8polymake5mlistIJNS_13SeparatorCharINSt3__117integral_constantIcLc32EEEEENS_14ClosingBracketINS6_IcLc0EEEEENS_14OpeningBracketISA_EEEEENS5_11char_traitsIcEEEEE19dispatch_generic_ioINS_8RationalEEEvRKT_NS6_IbLb0EEE, symObjAddr: 0x11B28, symBinAddr: 0x100012EC4, symSize: 0x2C }
  - { offsetInCU: 0xADC21, offset: 0xADC21, size: 0x8, addend: 0x0, symName: __ZN2pm13GenericOutputINS_12PlainPrinterIN8polymake5mlistIJNS_13SeparatorCharINSt3__117integral_constantIcLc32EEEEENS_14ClosingBracketINS6_IcLc0EEEEENS_14OpeningBracketISA_EEEEENS5_11char_traitsIcEEEEE3topEv, symObjAddr: 0x11B54, symBinAddr: 0x100012EF0, symSize: 0x14 }
  - { offsetInCU: 0xADC47, offset: 0xADC47, size: 0x8, addend: 0x0, symName: __ZN2pm17GenericOutputImplINS_12PlainPrinterIN8polymake5mlistIJNS_13SeparatorCharINSt3__117integral_constantIcLc32EEEEENS_14ClosingBracketINS6_IcLc0EEEEENS_14OpeningBracketISA_EEEEENS5_11char_traitsIcEEEEE19dispatch_serializedINS_8RationalEEEvRKT_NS6_IbLb0EEENS6_IbLb1EEE, symObjAddr: 0x11B68, symBinAddr: 0x100012F04, symSize: 0x2C }
  - { offsetInCU: 0xADC9B, offset: 0xADC9B, size: 0x8, addend: 0x0, symName: __ZN2pm17GenericOutputImplINS_12PlainPrinterIN8polymake5mlistIJNS_13SeparatorCharINSt3__117integral_constantIcLc32EEEEENS_14ClosingBracketINS6_IcLc0EEEEENS_14OpeningBracketISA_EEEEENS5_11char_traitsIcEEEEE14dispatch_storeINS_8RationalENS_9is_scalarEEEvRKT_T0_, symObjAddr: 0x11B94, symBinAddr: 0x100012F30, symSize: 0x30 }
  - { offsetInCU: 0xADCED, offset: 0xADCED, size: 0x8, addend: 0x0, symName: __ZN2pm12PlainPrinterIN8polymake5mlistIJNS_13SeparatorCharINSt3__117integral_constantIcLc32EEEEENS_14ClosingBracketINS5_IcLc0EEEEENS_14OpeningBracketIS9_EEEEENS4_11char_traitsIcEEE8fallbackINS_8RationalEEEvRKT_, symObjAddr: 0x11BC4, symBinAddr: 0x100012F60, symSize: 0x30 }
  - { offsetInCU: 0xADD2A, offset: 0xADD2A, size: 0x8, addend: 0x0, symName: __ZN2pm4perl25ContainerClassRegistratorINS_11VectorChainIN8polymake5mlistIJKNS_17SameElementVectorIRKNS_8RationalEEEKNS_12IndexedSliceINS_10masqueradeINS_10ConcatRowsERKNS_11Matrix_baseIS6_EEEEKNS_6SeriesIlLb1EEENS4_IJEEEEEEEEEENSt3__120forward_iterator_tagEE9size_implEPKc, symObjAddr: 0x11BF4, symBinAddr: 0x100012F90, symSize: 0x34 }
  - { offsetInCU: 0xADD5D, offset: 0xADD5D, size: 0x8, addend: 0x0, symName: __ZN2pm4perl16container_helperINS_11VectorChainIN8polymake5mlistIJKNS_17SameElementVectorIRKNS_8RationalEEEKNS_12IndexedSliceINS_10masqueradeINS_10ConcatRowsERKNS_11Matrix_baseIS6_EEEEKNS_6SeriesIlLb1EEENS4_IJEEEEEEEEEELi1EE10streamlineERKSQ_, symObjAddr: 0x11C28, symBinAddr: 0x100012FC4, symSize: 0x14 }
  - { offsetInCU: 0xADD81, offset: 0xADD81, size: 0x8, addend: 0x0, symName: __ZN2pm4perl10type_cacheINS_8RationalEE7provideEP2svS5_S5_, symObjAddr: 0x11C3C, symBinAddr: 0x100012FD8, symSize: 0x58 }
  - { offsetInCU: 0xADDDA, offset: 0xADDDA, size: 0x8, addend: 0x0, symName: __ZNSt3__14pairIP2svS2_EC1B8ue170006ILb1ELPv0EEERKS2_S7_, symObjAddr: 0x11C94, symBinAddr: 0x100013030, symSize: 0x3C }
  - { offsetInCU: 0xADE30, offset: 0xADE30, size: 0x8, addend: 0x0, symName: __ZNSt3__14pairIP2svS2_EC2B8ue170006ILb1ELPv0EEERKS2_S7_, symObjAddr: 0x11CD0, symBinAddr: 0x10001306C, symSize: 0x34 }
  - { offsetInCU: 0xADE86, offset: 0xADE86, size: 0x8, addend: 0x0, symName: __ZN2pm4perl7DestroyINS_14iterator_chainIN8polymake5mlistIJNS_25binary_transform_iteratorINS_13iterator_pairINS_19same_value_iteratorIRKNS_8RationalEEENS_14iterator_rangeINS_17sequence_iteratorIlLb1EEEEENS4_IJNS_20FeaturesViaSecondTagINS4_IJNS_13end_sensitiveEEEEEEEEEEENSt3__14pairINS_7nothingENS_10operations6apply2INS_12BuildUnaryItINSP_11dereferenceEEEvEEEELb0EEENSC_INS_11ptr_wrapperIS9_Lb0EEEEEEEELb0EEEvE4funcEv, symObjAddr: 0x11D04, symBinAddr: 0x1000130A0, symSize: 0x8 }
  - { offsetInCU: 0xADE9A, offset: 0xADE9A, size: 0x8, addend: 0x0, symName: __ZN2pm4perl25ContainerClassRegistratorINS_11VectorChainIN8polymake5mlistIJKNS_17SameElementVectorIRKNS_8RationalEEEKNS_12IndexedSliceINS_10masqueradeINS_10ConcatRowsERKNS_11Matrix_baseIS6_EEEEKNS_6SeriesIlLb1EEENS4_IJEEEEEEEEEENSt3__120forward_iterator_tagEE5do_itINS_14iterator_chainINS4_IJNS_25binary_transform_iteratorINS_13iterator_pairINS_19same_value_iteratorIS8_EENS_14iterator_rangeINS_17sequence_iteratorIlLb1EEEEENS4_IJNS_20FeaturesViaSecondTagINS4_IJNS_13end_sensitiveEEEEEEEEEEENSR_4pairINS_7nothingENS_10operations6apply2INS_12BuildUnaryItINS1C_11dereferenceEEEvEEEELb0EEENS10_INS_11ptr_wrapperIS7_Lb0EEEEEEEELb0EEELb0EE5beginEPvPc, symObjAddr: 0x11D0C, symBinAddr: 0x1000130A8, symSize: 0x48 }
  - { offsetInCU: 0xADEDC, offset: 0xADEDC, size: 0x8, addend: 0x0, symName: __ZN2pm4perl25ContainerClassRegistratorINS_11VectorChainIN8polymake5mlistIJKNS_17SameElementVectorIRKNS_8RationalEEEKNS_12IndexedSliceINS_10masqueradeINS_10ConcatRowsERKNS_11Matrix_baseIS6_EEEEKNS_6SeriesIlLb1EEENS4_IJEEEEEEEEEENSt3__120forward_iterator_tagEE5do_itINS_14iterator_chainINS4_IJNS_25binary_transform_iteratorINS_13iterator_pairINS_19same_value_iteratorIS8_EENS_14iterator_rangeINS_17sequence_iteratorIlLb1EEEEENS4_IJNS_20FeaturesViaSecondTagINS4_IJNS_13end_sensitiveEEEEEEEEEEENSR_4pairINS_7nothingENS_10operations6apply2INS_12BuildUnaryItINS1C_11dereferenceEEEvEEEELb0EEENS10_INS_11ptr_wrapperIS7_Lb0EEEEEEEELb0EEELb0EE5derefEPcS1Q_lP2svS1S_, symObjAddr: 0x11D68, symBinAddr: 0x100013104, symSize: 0x94 }
  - { offsetInCU: 0xADF52, offset: 0xADF52, size: 0x8, addend: 0x0, symName: __ZN2pm4perl5ValueC1EP2svNS0_10ValueFlagsE, symObjAddr: 0x11DFC, symBinAddr: 0x100013198, symSize: 0x3C }
  - { offsetInCU: 0xADFA0, offset: 0xADFA0, size: 0x8, addend: 0x0, symName: __ZN2pm4perl5Value10put_lvalueIRKNS_8RationalEJRP2svEEENSt3__19enable_ifIXntsr14mlist_containsIN8polymake5mlistIJbldNS9_12basic_stringIcNS9_11char_traitsIcEENS9_9allocatorIcEEEENS0_6ScalarENS0_10ArrayOwnerIS1_EENS0_4HashEEEEu11__remove_cvIu20__remove_reference_tIT_EEEE5valueEvE4typeEOSO_DpOT0_, symObjAddr: 0x11E38, symBinAddr: 0x1000131D4, symSize: 0x34 }
  - { offsetInCU: 0xADFF8, offset: 0xADFF8, size: 0x8, addend: 0x0, symName: __ZN2pm4perl5ValueC2EP2svNS0_10ValueFlagsE, symObjAddr: 0x11E6C, symBinAddr: 0x100013208, symSize: 0x40 }
  - { offsetInCU: 0xAE040, offset: 0xAE040, size: 0x8, addend: 0x0, symName: __ZN2pm4perl8SVHolderC2EP2sv, symObjAddr: 0x11EAC, symBinAddr: 0x100013248, symSize: 0x20 }
  - { offsetInCU: 0xAE078, offset: 0xAE078, size: 0x8, addend: 0x0, symName: __ZN2pm4perl5Value3putIRKNS_8RationalEJRP2svEEEvOT_DpOT0_, symObjAddr: 0x11ECC, symBinAddr: 0x100013268, symSize: 0x5C }
  - { offsetInCU: 0xAE0DF, offset: 0xAE0DF, size: 0x8, addend: 0x0, symName: __ZN2pm4perl5Value13store_anchorsIJRP2svEEEvPNS1_6AnchorEDpOT_, symObjAddr: 0x11F28, symBinAddr: 0x1000132C4, symSize: 0x54 }
  - { offsetInCU: 0xAE11D, offset: 0xAE11D, size: 0x8, addend: 0x0, symName: __ZN2pm4perl7DestroyINS_14iterator_chainIN8polymake5mlistIJNS_14iterator_rangeINS_11ptr_wrapperIKNS_8RationalELb1EEEEENS_25binary_transform_iteratorINS_13iterator_pairINS_19same_value_iteratorIRS8_EENS5_INS_17sequence_iteratorIlLb0EEEEENS4_IJNS_20FeaturesViaSecondTagINS4_IJNS_13end_sensitiveEEEEEEEEEEENSt3__14pairINS_7nothingENS_10operations6apply2INS_12BuildUnaryItINSS_11dereferenceEEEvEEEELb0EEEEEELb0EEEvE4funcEv, symObjAddr: 0x11F7C, symBinAddr: 0x100013318, symSize: 0x8 }
  - { offsetInCU: 0xAE131, offset: 0xAE131, size: 0x8, addend: 0x0, symName: __ZN2pm4perl25ContainerClassRegistratorINS_11VectorChainIN8polymake5mlistIJKNS_17SameElementVectorIRKNS_8RationalEEEKNS_12IndexedSliceINS_10masqueradeINS_10ConcatRowsERKNS_11Matrix_baseIS6_EEEEKNS_6SeriesIlLb1EEENS4_IJEEEEEEEEEENSt3__120forward_iterator_tagEE5do_itINS_14iterator_chainINS4_IJNS_14iterator_rangeINS_11ptr_wrapperIS7_Lb1EEEEENS_25binary_transform_iteratorINS_13iterator_pairINS_19same_value_iteratorIS8_EENSW_INS_17sequence_iteratorIlLb0EEEEENS4_IJNS_20FeaturesViaSecondTagINS4_IJNS_13end_sensitiveEEEEEEEEEEENSR_4pairINS_7nothingENS_10operations6apply2INS_12BuildUnaryItINS1F_11dereferenceEEEvEEEELb0EEEEEELb0EEELb0EE6rbeginEPvPc, symObjAddr: 0x11F84, symBinAddr: 0x100013320, symSize: 0x48 }
  - { offsetInCU: 0xAE173, offset: 0xAE173, size: 0x8, addend: 0x0, symName: __ZNK2pm20container_chain_implINS_14ContainerChainIN8polymake5mlistIJKNS_17SameElementVectorIRKNS_8RationalEEEKNS_12IndexedSliceINS_10masqueradeINS_10ConcatRowsERKNS_11Matrix_baseIS5_EEEEKNS_6SeriesIlLb1EEENS3_IJEEEEEEEEEENS3_IJNS_15ContainerRefTagISO_EEEEENSt3__126bidirectional_iterator_tagEE6rbeginEv, symObjAddr: 0x11FCC, symBinAddr: 0x100013368, symSize: 0x64 }
  - { offsetInCU: 0xAE1F0, offset: 0xAE1F0, size: 0x8, addend: 0x0, symName: __ZNK2pm24container_chain_typebaseINS_14ContainerChainIN8polymake5mlistIJKNS_17SameElementVectorIRKNS_8RationalEEEKNS_12IndexedSliceINS_10masqueradeINS_10ConcatRowsERKNS_11Matrix_baseIS5_EEEEKNS_6SeriesIlLb1EEENS3_IJEEEEEEEEEENS3_IJNS_15ContainerRefTagISO_EEEEEE13make_iteratorINS_14iterator_chainINS3_IJNS_14iterator_rangeINS_11ptr_wrapperIS6_Lb1EEEEENS_25binary_transform_iteratorINS_13iterator_pairINS_19same_value_iteratorIS7_EENSW_INS_17sequence_iteratorIlLb0EEEEENS3_IJNS_20FeaturesViaSecondTagINS3_IJNS_13end_sensitiveEEEEEEEEEEENSt3__14pairINS_7nothingENS_10operations6apply2INS_12BuildUnaryItINS1G_11dereferenceEEEvEEEELb0EEEEEELb0EEEZNST_11make_rbeginEvEUlOT_E_JLm1ELm0EEDnEES1Q_iRKT0_NS1D_16integer_sequenceImJXspT1_EEEEOT2_, symObjAddr: 0x12030, symBinAddr: 0x1000133CC, symSize: 0xAC }
  - { offsetInCU: 0xAE28A, offset: 0xAE28A, size: 0x8, addend: 0x0, symName: __ZN2pm24container_chain_typebaseINS_14ContainerChainIN8polymake5mlistIJKNS_17SameElementVectorIRKNS_8RationalEEEKNS_12IndexedSliceINS_10masqueradeINS_10ConcatRowsERKNS_11Matrix_baseIS5_EEEEKNS_6SeriesIlLb1EEENS3_IJEEEEEEEEEENS3_IJNS_15ContainerRefTagISO_EEEEEE11make_rbeginEv, symObjAddr: 0x120DC, symBinAddr: 0x100013478, symSize: 0x4 }
  - { offsetInCU: 0xAE29E, offset: 0xAE29E, size: 0x8, addend: 0x0, symName: __ZN2pm24container_chain_typebaseINS_14ContainerChainIN8polymake5mlistIJKNS_17SameElementVectorIRKNS_8RationalEEEKNS_12IndexedSliceINS_10masqueradeINS_10ConcatRowsERKNS_11Matrix_baseIS5_EEEEKNS_6SeriesIlLb1EEENS3_IJEEEEEEEEEENS3_IJNS_15ContainerRefTagISO_EEEEEE21reverse_tuple_indexesEv, symObjAddr: 0x120E0, symBinAddr: 0x10001347C, symSize: 0x4 }
  - { offsetInCU: 0xAE2B8, offset: 0xAE2B8, size: 0x8, addend: 0x0, symName: __ZZN2pm24container_chain_typebaseINS_14ContainerChainIN8polymake5mlistIJKNS_17SameElementVectorIRKNS_8RationalEEEKNS_12IndexedSliceINS_10masqueradeINS_10ConcatRowsERKNS_11Matrix_baseIS5_EEEEKNS_6SeriesIlLb1EEENS3_IJEEEEEEEEEENS3_IJNS_15ContainerRefTagISO_EEEEEE11make_rbeginEvENKUlOT_E_clIRSN_EEDaSV_, symObjAddr: 0x120E4, symBinAddr: 0x100013480, symSize: 0x3C }
  - { offsetInCU: 0xAE2FA, offset: 0xAE2FA, size: 0x8, addend: 0x0, symName: __ZZN2pm24container_chain_typebaseINS_14ContainerChainIN8polymake5mlistIJKNS_17SameElementVectorIRKNS_8RationalEEEKNS_12IndexedSliceINS_10masqueradeINS_10ConcatRowsERKNS_11Matrix_baseIS5_EEEEKNS_6SeriesIlLb1EEENS3_IJEEEEEEEEEENS3_IJNS_15ContainerRefTagISO_EEEEEE11make_rbeginEvENKUlOT_E_clIRS9_EEDaSV_, symObjAddr: 0x12120, symBinAddr: 0x1000134BC, symSize: 0x38 }
  - { offsetInCU: 0xAE348, offset: 0xAE348, size: 0x8, addend: 0x0, symName: __ZN2pm14iterator_chainIN8polymake5mlistIJNS_14iterator_rangeINS_11ptr_wrapperIKNS_8RationalELb1EEEEENS_25binary_transform_iteratorINS_13iterator_pairINS_19same_value_iteratorIRS6_EENS3_INS_17sequence_iteratorIlLb0EEEEENS2_IJNS_20FeaturesViaSecondTagINS2_IJNS_13end_sensitiveEEEEEEEEEEENSt3__14pairINS_7nothingENS_10operations6apply2INS_12BuildUnaryItINSQ_11dereferenceEEEvEEEELb0EEEEEELb0EEC1IJS8_SX_EEEiDnDpOT_, symObjAddr: 0x12158, symBinAddr: 0x1000134F4, symSize: 0x4C }
  - { offsetInCU: 0xAE3BA, offset: 0xAE3BA, size: 0x8, addend: 0x0, symName: __ZNK2pm30indexed_subset_rev_elem_accessINS_23manip_feature_collectorINS_12IndexedSliceINS_10masqueradeINS_10ConcatRowsERKNS_11Matrix_baseINS_8RationalEEEEEKNS_6SeriesIlLb1EEEN8polymake5mlistIJEEEEENSF_IJNS_13end_sensitiveEEEEEENSF_IJNS_16Container1RefTagISA_EENS_16Container2RefTagISD_EENS_11RenumberTagINSt3__117integral_constantIbLb1EEEEEEEELNS_17subset_classifier4kindE4EE6rbeginEv, symObjAddr: 0x121A4, symBinAddr: 0x100013540, symSize: 0xAC }
  - { offsetInCU: 0xAE40D, offset: 0xAE40D, size: 0x8, addend: 0x0, symName: __ZNK2pm23construct_end_sensitiveINS_10ConcatRowsINS_11Matrix_baseINS_8RationalEEEEELb1EE6rbeginEv, symObjAddr: 0x12250, symBinAddr: 0x1000135EC, symSize: 0x5C }
  - { offsetInCU: 0xAE433, offset: 0xAE433, size: 0x8, addend: 0x0, symName: __ZN2pm14iterator_rangeINS_11ptr_wrapperIKNS_8RationalELb1EEEE8contractEbll, symObjAddr: 0x122AC, symBinAddr: 0x100013648, symSize: 0x68 }
  - { offsetInCU: 0xAE486, offset: 0xAE486, size: 0x8, addend: 0x0, symName: __ZNK2pm11plain_arrayINS_10ConcatRowsINS_11Matrix_baseINS_8RationalEEEEES3_E6rbeginEv, symObjAddr: 0x12314, symBinAddr: 0x1000136B0, symSize: 0x54 }
  - { offsetInCU: 0xAE4AC, offset: 0xAE4AC, size: 0x8, addend: 0x0, symName: __ZNK2pm11plain_arrayINS_10ConcatRowsINS_11Matrix_baseINS_8RationalEEEEES3_E4rendEv, symObjAddr: 0x12368, symBinAddr: 0x100013704, symSize: 0x38 }
  - { offsetInCU: 0xAE4D8, offset: 0xAE4D8, size: 0x8, addend: 0x0, symName: __ZN2pm14iterator_rangeINS_11ptr_wrapperIKNS_8RationalELb1EEEEC1IS4_S4_vEERKT_RKT0_, symObjAddr: 0x123A0, symBinAddr: 0x10001373C, symSize: 0x3C }
  - { offsetInCU: 0xAE533, offset: 0xAE533, size: 0x8, addend: 0x0, symName: __ZN2pm11ptr_wrapperIKNS_8RationalELb1EEC1EPS2_, symObjAddr: 0x123DC, symBinAddr: 0x100013778, symSize: 0x34 }
  - { offsetInCU: 0xAE56C, offset: 0xAE56C, size: 0x8, addend: 0x0, symName: __ZN2pm11ptr_wrapperIKNS_8RationalELb1EEC2EPS2_, symObjAddr: 0x12410, symBinAddr: 0x1000137AC, symSize: 0x20 }
  - { offsetInCU: 0xAE5A5, offset: 0xAE5A5, size: 0x8, addend: 0x0, symName: __ZN2pm14iterator_rangeINS_11ptr_wrapperIKNS_8RationalELb1EEEEC2IS4_S4_vEERKT_RKT0_, symObjAddr: 0x12430, symBinAddr: 0x1000137CC, symSize: 0x34 }
  - { offsetInCU: 0xAE600, offset: 0xAE600, size: 0x8, addend: 0x0, symName: __ZN2pm14iterator_rangeINS_11ptr_wrapperIKNS_8RationalELb1EEEE14contract1_implEbllNSt3__117integral_constantIbLb0EEE, symObjAddr: 0x12464, symBinAddr: 0x100013800, symSize: 0x38 }
  - { offsetInCU: 0xAE656, offset: 0xAE656, size: 0x8, addend: 0x0, symName: __ZN2pm21accompanying_iteratorINS_11ptr_wrapperIKNS_8RationalELb1EEEE7advanceERS4_RKS4_l, symObjAddr: 0x1249C, symBinAddr: 0x100013838, symSize: 0x30 }
  - { offsetInCU: 0xAE694, offset: 0xAE694, size: 0x8, addend: 0x0, symName: __ZN2pm11ptr_wrapperIKNS_8RationalELb1EEpLEl, symObjAddr: 0x12530, symBinAddr: 0x1000138CC, symSize: 0x30 }
  - { offsetInCU: 0xAE6C9, offset: 0xAE6C9, size: 0x8, addend: 0x0, symName: __ZNK2pm28modified_container_pair_implINS_23manip_feature_collectorINS_17SameElementVectorIRKNS_8RationalEEEN8polymake5mlistIJNS_13end_sensitiveEEEEEENS8_IJNS_16Container1RefTagINS_20same_value_containerIS5_EEEENS_16Container2RefTagINS_9SeriesRawIlLb1EEEEENS_12OperationTagINSt3__14pairINS_7nothingENS_10operations6apply2INS_12BuildUnaryItINSO_11dereferenceEEEvEEEEEEEEELb1EE6rbeginEv, symObjAddr: 0x12560, symBinAddr: 0x1000138FC, symSize: 0x98 }
  - { offsetInCU: 0xAE6EF, offset: 0xAE6EF, size: 0x8, addend: 0x0, symName: __ZNKR2pm20same_value_containerIRKNS_8RationalEE6rbeginEv, symObjAddr: 0x125F8, symBinAddr: 0x100013994, symSize: 0x2C }
  - { offsetInCU: 0xAE715, offset: 0xAE715, size: 0x8, addend: 0x0, symName: __ZN2pm23construct_end_sensitiveINS_9SeriesRawIlLb1EEELb1EE6rbeginEv, symObjAddr: 0x12624, symBinAddr: 0x1000139C0, symSize: 0x58 }
  - { offsetInCU: 0xAE746, offset: 0xAE746, size: 0x8, addend: 0x0, symName: __ZN2pm25binary_transform_iteratorINS_13iterator_pairINS_19same_value_iteratorIRKNS_8RationalEEENS_14iterator_rangeINS_17sequence_iteratorIlLb0EEEEEN8polymake5mlistIJNS_20FeaturesViaSecondTagINSC_IJNS_13end_sensitiveEEEEEEEEEEENSt3__14pairINS_7nothingENS_10operations6apply2INS_12BuildUnaryItINSM_11dereferenceEEEvEEEELb0EEC1IS6_SA_vvEERKT_RKT0_RKSR_, symObjAddr: 0x1267C, symBinAddr: 0x100013A18, symSize: 0x44 }
  - { offsetInCU: 0xAE7B1, offset: 0xAE7B1, size: 0x8, addend: 0x0, symName: __ZNK2pm9SeriesRawIlLb1EE6rbeginEv, symObjAddr: 0x126C0, symBinAddr: 0x100013A5C, symSize: 0x50 }
  - { offsetInCU: 0xAE7D7, offset: 0xAE7D7, size: 0x8, addend: 0x0, symName: __ZNK2pm9SeriesRawIlLb1EE4rendEv, symObjAddr: 0x12710, symBinAddr: 0x100013AAC, symSize: 0x48 }
  - { offsetInCU: 0xAE7FD, offset: 0xAE7FD, size: 0x8, addend: 0x0, symName: __ZN2pm14iterator_rangeINS_17sequence_iteratorIlLb0EEEEC1IS2_S2_vEERKT_RKT0_, symObjAddr: 0x12758, symBinAddr: 0x100013AF4, symSize: 0x3C }
  - { offsetInCU: 0xAE858, offset: 0xAE858, size: 0x8, addend: 0x0, symName: __ZN2pm17sequence_iteratorIlLb0EEC1EOl, symObjAddr: 0x12794, symBinAddr: 0x100013B30, symSize: 0x34 }
  - { offsetInCU: 0xAE890, offset: 0xAE890, size: 0x8, addend: 0x0, symName: __ZN2pm17sequence_iteratorIlLb0EEC2EOl, symObjAddr: 0x127C8, symBinAddr: 0x100013B64, symSize: 0x24 }
  - { offsetInCU: 0xAE8C8, offset: 0xAE8C8, size: 0x8, addend: 0x0, symName: __ZN2pm14iterator_rangeINS_17sequence_iteratorIlLb0EEEEC2IS2_S2_vEERKT_RKT0_, symObjAddr: 0x127EC, symBinAddr: 0x100013B88, symSize: 0x48 }
  - { offsetInCU: 0xAE923, offset: 0xAE923, size: 0x8, addend: 0x0, symName: __ZN2pm17sequence_iteratorIlLb0EEC2ERKS1_, symObjAddr: 0x12834, symBinAddr: 0x100013BD0, symSize: 0x24 }
  - { offsetInCU: 0xAE95B, offset: 0xAE95B, size: 0x8, addend: 0x0, symName: __ZN2pm17sequence_iteratorIlLb0EEC1ERKS1_, symObjAddr: 0x12858, symBinAddr: 0x100013BF4, symSize: 0x34 }
  - { offsetInCU: 0xAE993, offset: 0xAE993, size: 0x8, addend: 0x0, symName: __ZN2pm25binary_transform_iteratorINS_13iterator_pairINS_19same_value_iteratorIRKNS_8RationalEEENS_14iterator_rangeINS_17sequence_iteratorIlLb0EEEEEN8polymake5mlistIJNS_20FeaturesViaSecondTagINSC_IJNS_13end_sensitiveEEEEEEEEEEENSt3__14pairINS_7nothingENS_10operations6apply2INS_12BuildUnaryItINSM_11dereferenceEEEvEEEELb0EEC2IS6_SA_vvEERKT_RKT0_RKSR_, symObjAddr: 0x1288C, symBinAddr: 0x100013C28, symSize: 0x68 }
  - { offsetInCU: 0xAE9FE, offset: 0xAE9FE, size: 0x8, addend: 0x0, symName: __ZN2pm21binary_transform_evalINS_13iterator_pairINS_19same_value_iteratorIRKNS_8RationalEEENS_14iterator_rangeINS_17sequence_iteratorIlLb0EEEEEN8polymake5mlistIJNS_20FeaturesViaSecondTagINSC_IJNS_13end_sensitiveEEEEEEEEEEENSt3__14pairINS_7nothingENS_10operations6apply2INS_12BuildUnaryItINSM_11dereferenceEEEvEEEELb0EEC2IS6_SA_EERKT_RKT0_RKSR_, symObjAddr: 0x1290C, symBinAddr: 0x100013CA8, symSize: 0x48 }
  - { offsetInCU: 0xAEA67, offset: 0xAEA67, size: 0x8, addend: 0x0, symName: __ZN2pm13iterator_pairINS_19same_value_iteratorIRKNS_8RationalEEENS_14iterator_rangeINS_17sequence_iteratorIlLb0EEEEEN8polymake5mlistIJNS_20FeaturesViaSecondTagINSB_IJNS_13end_sensitiveEEEEEEEEEEC2IS5_S9_vvEERKT_RKT0_, symObjAddr: 0x12954, symBinAddr: 0x100013CF0, symSize: 0x68 }
  - { offsetInCU: 0xAEAC3, offset: 0xAEAC3, size: 0x8, addend: 0x0, symName: __ZN2pm16empty_op_builderINS_10operations6apply2INS1_11dereferenceIRKNS_14iterator_rangeINS_17sequence_iteratorIlLb0EEEEEEENS_19same_value_iteratorIRKNS_8RationalEEEEEE6createINS2_INS_12BuildUnaryItIS3_EEvEEEESG_RKT_, symObjAddr: 0x129BC, symBinAddr: 0x100013D58, symSize: 0x28 }
  - { offsetInCU: 0xAEAEC, offset: 0xAEAEC, size: 0x8, addend: 0x0, symName: __ZN2pm14iterator_rangeINS_17sequence_iteratorIlLb0EEEEC1ERKS3_, symObjAddr: 0x129E4, symBinAddr: 0x100013D80, symSize: 0x34 }
  - { offsetInCU: 0xAEB25, offset: 0xAEB25, size: 0x8, addend: 0x0, symName: __ZN2pm14iterator_rangeINS_17sequence_iteratorIlLb0EEEEC2ERKS3_, symObjAddr: 0x12A18, symBinAddr: 0x100013DB4, symSize: 0x48 }
  - { offsetInCU: 0xAEB5E, offset: 0xAEB5E, size: 0x8, addend: 0x0, symName: __ZN2pm10operations6apply2INS0_11dereferenceIRKNS_14iterator_rangeINS_17sequence_iteratorIlLb0EEEEEEENS_19same_value_iteratorIRKNS_8RationalEEEEC1ERKS9_, symObjAddr: 0x12A60, symBinAddr: 0x100013DFC, symSize: 0x34 }
  - { offsetInCU: 0xAEB97, offset: 0xAEB97, size: 0x8, addend: 0x0, symName: __ZN2pm10operations6apply2INS0_11dereferenceIRKNS_14iterator_rangeINS_17sequence_iteratorIlLb0EEEEEEENS_19same_value_iteratorIRKNS_8RationalEEEEC2ERKS9_, symObjAddr: 0x12A94, symBinAddr: 0x100013E30, symSize: 0x18 }
  - { offsetInCU: 0xAEBD0, offset: 0xAEBD0, size: 0x8, addend: 0x0, symName: __ZN2pm14iterator_chainIN8polymake5mlistIJNS_14iterator_rangeINS_11ptr_wrapperIKNS_8RationalELb1EEEEENS_25binary_transform_iteratorINS_13iterator_pairINS_19same_value_iteratorIRS6_EENS3_INS_17sequence_iteratorIlLb0EEEEENS2_IJNS_20FeaturesViaSecondTagINS2_IJNS_13end_sensitiveEEEEEEEEEEENSt3__14pairINS_7nothingENS_10operations6apply2INS_12BuildUnaryItINSQ_11dereferenceEEEvEEEELb0EEEEEELb0EEC2IJS8_SX_EEEiDnDpOT_, symObjAddr: 0x12AAC, symBinAddr: 0x100013E48, symSize: 0x54 }
  - { offsetInCU: 0xAEC42, offset: 0xAEC42, size: 0x8, addend: 0x0, symName: __ZN2pm6chains14iterator_storeIN8polymake5mlistIJNS_14iterator_rangeINS_11ptr_wrapperIKNS_8RationalELb1EEEEENS_25binary_transform_iteratorINS_13iterator_pairINS_19same_value_iteratorIRS7_EENS4_INS_17sequence_iteratorIlLb0EEEEENS3_IJNS_20FeaturesViaSecondTagINS3_IJNS_13end_sensitiveEEEEEEEEEEENSt3__14pairINS_7nothingENS_10operations6apply2INS_12BuildUnaryItINSR_11dereferenceEEEvEEEELb0EEEEEELb0EEC2IJS9_SY_EvEEDpOT_, symObjAddr: 0x12B00, symBinAddr: 0x100013E9C, symSize: 0x3C }
  - { offsetInCU: 0xAEC99, offset: 0xAEC99, size: 0x8, addend: 0x0, symName: __ZN2pm14iterator_chainIN8polymake5mlistIJNS_14iterator_rangeINS_11ptr_wrapperIKNS_8RationalELb1EEEEENS_25binary_transform_iteratorINS_13iterator_pairINS_19same_value_iteratorIRS6_EENS3_INS_17sequence_iteratorIlLb0EEEEENS2_IJNS_20FeaturesViaSecondTagINS2_IJNS_13end_sensitiveEEEEEEEEEEENSt3__14pairINS_7nothingENS_10operations6apply2INS_12BuildUnaryItINSQ_11dereferenceEEEvEEEELb0EEEEEELb0EE14valid_positionEv, symObjAddr: 0x12B3C, symBinAddr: 0x100013ED8, symSize: 0x74 }
  - { offsetInCU: 0xAECBF, offset: 0xAECBF, size: 0x8, addend: 0x0, symName: __ZNSt3__15tupleIJN2pm14iterator_rangeINS1_11ptr_wrapperIKNS1_8RationalELb1EEEEENS1_25binary_transform_iteratorINS1_13iterator_pairINS1_19same_value_iteratorIRS5_EENS2_INS1_17sequence_iteratorIlLb0EEEEEN8polymake5mlistIJNS1_20FeaturesViaSecondTagINSH_IJNS1_13end_sensitiveEEEEEEEEEEENS_4pairINS1_7nothingENS1_10operations6apply2INS1_12BuildUnaryItINSQ_11dereferenceEEEvEEEELb0EEEEEC1B8ue170006IJS7_SX_ELi0EEEDpOT_, symObjAddr: 0x12BB0, symBinAddr: 0x100013F4C, symSize: 0x3C }
  - { offsetInCU: 0xAED1E, offset: 0xAED1E, size: 0x8, addend: 0x0, symName: __ZNSt3__15tupleIJN2pm14iterator_rangeINS1_11ptr_wrapperIKNS1_8RationalELb1EEEEENS1_25binary_transform_iteratorINS1_13iterator_pairINS1_19same_value_iteratorIRS5_EENS2_INS1_17sequence_iteratorIlLb0EEEEEN8polymake5mlistIJNS1_20FeaturesViaSecondTagINSH_IJNS1_13end_sensitiveEEEEEEEEEEENS_4pairINS1_7nothingENS1_10operations6apply2INS1_12BuildUnaryItINSQ_11dereferenceEEEvEEEELb0EEEEEC2B8ue170006IJS7_SX_ELi0EEEDpOT_, symObjAddr: 0x12BEC, symBinAddr: 0x100013F88, symSize: 0x3C }
